
main.o:     file format elf32-littlearm


Disassembly of section .init:

00008000 <_init>:
    8000:	b5f8      	push	{r3, r4, r5, r6, r7, lr}
    8002:	46c0      	nop			; (mov r8, r8)
    8004:	bcf8      	pop	{r3, r4, r5, r6, r7}
    8006:	bc08      	pop	{r3}
    8008:	469e      	mov	lr, r3
    800a:	4770      	bx	lr

Disassembly of section .text:

00008010 <exit>:
    8010:	b510      	push	{r4, lr}
    8012:	2100      	movs	r1, #0
    8014:	0004      	movs	r4, r0
    8016:	f002 f87f 	bl	a118 <__call_exitprocs>
    801a:	4b05      	ldr	r3, [pc, #20]	; (8030 <exit+0x20>)
    801c:	6818      	ldr	r0, [r3, #0]
    801e:	6bc3      	ldr	r3, [r0, #60]	; 0x3c
    8020:	2b00      	cmp	r3, #0
    8022:	d001      	beq.n	8028 <exit+0x18>
    8024:	f000 f806 	bl	8034 <exit+0x24>
    8028:	0020      	movs	r0, r4
    802a:	f008 fccd 	bl	109c8 <_exit>
    802e:	46c0      	nop			; (mov r8, r8)
    8030:	00010ad0 	.word	0x00010ad0
    8034:	4718      	bx	r3
    8036:	46c0      	nop			; (mov r8, r8)

00008038 <register_fini>:
    8038:	4b04      	ldr	r3, [pc, #16]	; (804c <register_fini+0x14>)
    803a:	b510      	push	{r4, lr}
    803c:	2b00      	cmp	r3, #0
    803e:	d002      	beq.n	8046 <register_fini+0xe>
    8040:	4803      	ldr	r0, [pc, #12]	; (8050 <register_fini+0x18>)
    8042:	f002 f8eb 	bl	a21c <atexit>
    8046:	bc10      	pop	{r4}
    8048:	bc01      	pop	{r0}
    804a:	4700      	bx	r0
    804c:	00000000 	.word	0x00000000
    8050:	0000b92d 	.word	0x0000b92d

00008054 <__do_global_dtors_aux>:
    8054:	b510      	push	{r4, lr}
    8056:	4c07      	ldr	r4, [pc, #28]	; (8074 <__do_global_dtors_aux+0x20>)
    8058:	7823      	ldrb	r3, [r4, #0]
    805a:	2b00      	cmp	r3, #0
    805c:	d107      	bne.n	806e <__do_global_dtors_aux+0x1a>
    805e:	4b06      	ldr	r3, [pc, #24]	; (8078 <__do_global_dtors_aux+0x24>)
    8060:	2b00      	cmp	r3, #0
    8062:	d002      	beq.n	806a <__do_global_dtors_aux+0x16>
    8064:	4805      	ldr	r0, [pc, #20]	; (807c <__do_global_dtors_aux+0x28>)
    8066:	e000      	b.n	806a <__do_global_dtors_aux+0x16>
    8068:	bf00      	nop
    806a:	2301      	movs	r3, #1
    806c:	7023      	strb	r3, [r4, #0]
    806e:	bc10      	pop	{r4}
    8070:	bc01      	pop	{r0}
    8072:	4700      	bx	r0
    8074:	00021bb8 	.word	0x00021bb8
    8078:	00000000 	.word	0x00000000
    807c:	000111f8 	.word	0x000111f8

00008080 <frame_dummy>:
    8080:	4b05      	ldr	r3, [pc, #20]	; (8098 <frame_dummy+0x18>)
    8082:	b510      	push	{r4, lr}
    8084:	2b00      	cmp	r3, #0
    8086:	d003      	beq.n	8090 <frame_dummy+0x10>
    8088:	4904      	ldr	r1, [pc, #16]	; (809c <frame_dummy+0x1c>)
    808a:	4805      	ldr	r0, [pc, #20]	; (80a0 <frame_dummy+0x20>)
    808c:	e000      	b.n	8090 <frame_dummy+0x10>
    808e:	bf00      	nop
    8090:	bc10      	pop	{r4}
    8092:	bc01      	pop	{r0}
    8094:	4700      	bx	r0
    8096:	46c0      	nop			; (mov r8, r8)
    8098:	00000000 	.word	0x00000000
    809c:	00021bbc 	.word	0x00021bbc
    80a0:	000111f8 	.word	0x000111f8

000080a4 <_stack_init>:
    80a4:	e10f4000 	mrs	r4, CPSR
    80a8:	e314000f 	tst	r4, #15
    80ac:	0a00001c 	beq	8124 <_stack_init+0x80>
    80b0:	e1a0300d 	mov	r3, sp
    80b4:	e3a010d1 	mov	r1, #209	; 0xd1
    80b8:	e121f001 	msr	CPSR_c, r1
    80bc:	e1a0d003 	mov	sp, r3
    80c0:	e24daa01 	sub	sl, sp, #4096	; 0x1000
    80c4:	e1a0300a 	mov	r3, sl
    80c8:	e3a010d7 	mov	r1, #215	; 0xd7
    80cc:	e121f001 	msr	CPSR_c, r1
    80d0:	e1a0d003 	mov	sp, r3
    80d4:	e2433a01 	sub	r3, r3, #4096	; 0x1000
    80d8:	e3a010db 	mov	r1, #219	; 0xdb
    80dc:	e121f001 	msr	CPSR_c, r1
    80e0:	e1a0d003 	mov	sp, r3
    80e4:	e2433a01 	sub	r3, r3, #4096	; 0x1000
    80e8:	e3a010d2 	mov	r1, #210	; 0xd2
    80ec:	e121f001 	msr	CPSR_c, r1
    80f0:	e1a0d003 	mov	sp, r3
    80f4:	e2433a02 	sub	r3, r3, #8192	; 0x2000
    80f8:	e3a010d3 	mov	r1, #211	; 0xd3
    80fc:	e121f001 	msr	CPSR_c, r1
    8100:	e1a0d003 	mov	sp, r3
    8104:	e2433902 	sub	r3, r3, #32768	; 0x8000
    8108:	e3c330ff 	bic	r3, r3, #255	; 0xff
    810c:	e3c33cff 	bic	r3, r3, #65280	; 0xff00
    8110:	e3a010df 	mov	r1, #223	; 0xdf
    8114:	e121f001 	msr	CPSR_c, r1
    8118:	e1a0d003 	mov	sp, r3
    811c:	e38440c0 	orr	r4, r4, #192	; 0xc0
    8120:	e121f004 	msr	CPSR_c, r4
    8124:	e243a801 	sub	sl, r3, #65536	; 0x10000
    8128:	e12fff1e 	bx	lr

0000812c <_mainCRTStartup>:
    812c:	e59f307c 	ldr	r3, [pc, #124]	; 81b0 <change_back+0x10>
    8130:	e3530000 	cmp	r3, #0
    8134:	059f3068 	ldreq	r3, [pc, #104]	; 81a4 <change_back+0x4>
    8138:	e1a0d003 	mov	sp, r3
    813c:	ebffffd8 	bl	80a4 <_stack_init>
    8140:	e3b01000 	movs	r1, #0
    8144:	e1a0b001 	mov	fp, r1
    8148:	e1a07001 	mov	r7, r1
    814c:	e59f0060 	ldr	r0, [pc, #96]	; 81b4 <change_back+0x14>
    8150:	e59f2060 	ldr	r2, [pc, #96]	; 81b8 <change_back+0x18>
    8154:	e0522000 	subs	r2, r2, r0
    8158:	e28f3001 	add	r3, pc, #1
    815c:	e12fff13 	bx	r3

00008160 <__change_mode>:
    8160:	f000 f862 	bl	8228 <memset>
    8164:	4b10      	ldr	r3, [pc, #64]	; (81a8 <change_back+0x8>)
    8166:	2b00      	cmp	r3, #0
    8168:	d001      	beq.n	816e <__change_mode+0xe>
    816a:	46fe      	mov	lr, pc
    816c:	469f      	mov	pc, r3
    816e:	4b0f      	ldr	r3, [pc, #60]	; (81ac <change_back+0xc>)
    8170:	2b00      	cmp	r3, #0
    8172:	d001      	beq.n	8178 <__change_mode+0x18>
    8174:	46fe      	mov	lr, pc
    8176:	469f      	mov	pc, r3
    8178:	2000      	movs	r0, #0
    817a:	2100      	movs	r1, #0
    817c:	0004      	movs	r4, r0
    817e:	000d      	movs	r5, r1
    8180:	480e      	ldr	r0, [pc, #56]	; (81bc <change_back+0x1c>)
    8182:	2800      	cmp	r0, #0
    8184:	d002      	beq.n	818c <__change_mode+0x2c>
    8186:	480e      	ldr	r0, [pc, #56]	; (81c0 <change_back+0x20>)
    8188:	f002 f848 	bl	a21c <atexit>
    818c:	f000 f824 	bl	81d8 <__libc_init_array>
    8190:	0020      	movs	r0, r4
    8192:	0029      	movs	r1, r5
    8194:	f000 f816 	bl	81c4 <main>
    8198:	f7ff ff3a 	bl	8010 <exit>
    819c:	467b      	mov	r3, pc
    819e:	4718      	bx	r3

000081a0 <change_back>:
    81a0:	ef000011 	svc	0x00000011
    81a4:	00080000 	.word	0x00080000
	...
    81b4:	00021bb8 	.word	0x00021bb8
    81b8:	00021c38 	.word	0x00021c38
    81bc:	0000a21d 	.word	0x0000a21d
    81c0:	0000b92d 	.word	0x0000b92d

000081c4 <main>:
    81c4:	b580      	push	{r7, lr}
    81c6:	af00      	add	r7, sp, #0
    81c8:	4b02      	ldr	r3, [pc, #8]	; (81d4 <main+0x10>)
    81ca:	0018      	movs	r0, r3
    81cc:	f000 f892 	bl	82f4 <printf>
    81d0:	e7fe      	b.n	81d0 <main+0xc>
    81d2:	46c0      	nop			; (mov r8, r8)
    81d4:	00010ac4 	.word	0x00010ac4

000081d8 <__libc_init_array>:
    81d8:	b570      	push	{r4, r5, r6, lr}
    81da:	4d0e      	ldr	r5, [pc, #56]	; (8214 <__libc_init_array+0x3c>)
    81dc:	4e0e      	ldr	r6, [pc, #56]	; (8218 <__libc_init_array+0x40>)
    81de:	1b76      	subs	r6, r6, r5
    81e0:	10b6      	asrs	r6, r6, #2
    81e2:	d006      	beq.n	81f2 <__libc_init_array+0x1a>
    81e4:	2400      	movs	r4, #0
    81e6:	cd08      	ldmia	r5!, {r3}
    81e8:	3401      	adds	r4, #1
    81ea:	f000 f81b 	bl	8224 <__libc_init_array+0x4c>
    81ee:	42a6      	cmp	r6, r4
    81f0:	d1f9      	bne.n	81e6 <__libc_init_array+0xe>
    81f2:	f7ff ff05 	bl	8000 <_init>
    81f6:	4d09      	ldr	r5, [pc, #36]	; (821c <__libc_init_array+0x44>)
    81f8:	4e09      	ldr	r6, [pc, #36]	; (8220 <__libc_init_array+0x48>)
    81fa:	1b76      	subs	r6, r6, r5
    81fc:	10b6      	asrs	r6, r6, #2
    81fe:	d006      	beq.n	820e <__libc_init_array+0x36>
    8200:	2400      	movs	r4, #0
    8202:	cd08      	ldmia	r5!, {r3}
    8204:	3401      	adds	r4, #1
    8206:	f000 f80d 	bl	8224 <__libc_init_array+0x4c>
    820a:	42a6      	cmp	r6, r4
    820c:	d1f9      	bne.n	8202 <__libc_init_array+0x2a>
    820e:	bc70      	pop	{r4, r5, r6}
    8210:	bc01      	pop	{r0}
    8212:	4700      	bx	r0
    8214:	000211fc 	.word	0x000211fc
    8218:	000211fc 	.word	0x000211fc
    821c:	000211fc 	.word	0x000211fc
    8220:	00021204 	.word	0x00021204
    8224:	4718      	bx	r3
    8226:	46c0      	nop			; (mov r8, r8)

00008228 <memset>:
    8228:	b5f0      	push	{r4, r5, r6, r7, lr}
    822a:	0005      	movs	r5, r0
    822c:	0783      	lsls	r3, r0, #30
    822e:	d04d      	beq.n	82cc <memset+0xa4>
    8230:	1e54      	subs	r4, r2, #1
    8232:	2a00      	cmp	r2, #0
    8234:	d047      	beq.n	82c6 <memset+0x9e>
    8236:	060a      	lsls	r2, r1, #24
    8238:	0003      	movs	r3, r0
    823a:	2603      	movs	r6, #3
    823c:	0e12      	lsrs	r2, r2, #24
    823e:	e002      	b.n	8246 <memset+0x1e>
    8240:	3501      	adds	r5, #1
    8242:	3c01      	subs	r4, #1
    8244:	d33f      	bcc.n	82c6 <memset+0x9e>
    8246:	3301      	adds	r3, #1
    8248:	702a      	strb	r2, [r5, #0]
    824a:	4233      	tst	r3, r6
    824c:	d1f8      	bne.n	8240 <memset+0x18>
    824e:	2c03      	cmp	r4, #3
    8250:	d930      	bls.n	82b4 <memset+0x8c>
    8252:	22ff      	movs	r2, #255	; 0xff
    8254:	400a      	ands	r2, r1
    8256:	0215      	lsls	r5, r2, #8
    8258:	4315      	orrs	r5, r2
    825a:	042a      	lsls	r2, r5, #16
    825c:	4315      	orrs	r5, r2
    825e:	2c0f      	cmp	r4, #15
    8260:	d937      	bls.n	82d2 <memset+0xaa>
    8262:	0027      	movs	r7, r4
    8264:	3f10      	subs	r7, #16
    8266:	093f      	lsrs	r7, r7, #4
    8268:	013e      	lsls	r6, r7, #4
    826a:	46b4      	mov	ip, r6
    826c:	001e      	movs	r6, r3
    826e:	001a      	movs	r2, r3
    8270:	3610      	adds	r6, #16
    8272:	4466      	add	r6, ip
    8274:	6015      	str	r5, [r2, #0]
    8276:	6055      	str	r5, [r2, #4]
    8278:	6095      	str	r5, [r2, #8]
    827a:	60d5      	str	r5, [r2, #12]
    827c:	3210      	adds	r2, #16
    827e:	42b2      	cmp	r2, r6
    8280:	d1f8      	bne.n	8274 <memset+0x4c>
    8282:	3701      	adds	r7, #1
    8284:	013f      	lsls	r7, r7, #4
    8286:	19db      	adds	r3, r3, r7
    8288:	270f      	movs	r7, #15
    828a:	220c      	movs	r2, #12
    828c:	4027      	ands	r7, r4
    828e:	4022      	ands	r2, r4
    8290:	003c      	movs	r4, r7
    8292:	2a00      	cmp	r2, #0
    8294:	d00e      	beq.n	82b4 <memset+0x8c>
    8296:	1f3e      	subs	r6, r7, #4
    8298:	08b6      	lsrs	r6, r6, #2
    829a:	00b4      	lsls	r4, r6, #2
    829c:	46a4      	mov	ip, r4
    829e:	001a      	movs	r2, r3
    82a0:	1d1c      	adds	r4, r3, #4
    82a2:	4464      	add	r4, ip
    82a4:	c220      	stmia	r2!, {r5}
    82a6:	42a2      	cmp	r2, r4
    82a8:	d1fc      	bne.n	82a4 <memset+0x7c>
    82aa:	2403      	movs	r4, #3
    82ac:	3601      	adds	r6, #1
    82ae:	00b6      	lsls	r6, r6, #2
    82b0:	199b      	adds	r3, r3, r6
    82b2:	403c      	ands	r4, r7
    82b4:	2c00      	cmp	r4, #0
    82b6:	d006      	beq.n	82c6 <memset+0x9e>
    82b8:	0609      	lsls	r1, r1, #24
    82ba:	0e09      	lsrs	r1, r1, #24
    82bc:	191c      	adds	r4, r3, r4
    82be:	7019      	strb	r1, [r3, #0]
    82c0:	3301      	adds	r3, #1
    82c2:	429c      	cmp	r4, r3
    82c4:	d1fb      	bne.n	82be <memset+0x96>
    82c6:	bcf0      	pop	{r4, r5, r6, r7}
    82c8:	bc02      	pop	{r1}
    82ca:	4708      	bx	r1
    82cc:	0003      	movs	r3, r0
    82ce:	0014      	movs	r4, r2
    82d0:	e7bd      	b.n	824e <memset+0x26>
    82d2:	0027      	movs	r7, r4
    82d4:	e7df      	b.n	8296 <memset+0x6e>
    82d6:	46c0      	nop			; (mov r8, r8)

000082d8 <_printf_r>:
    82d8:	b40e      	push	{r1, r2, r3}
    82da:	b500      	push	{lr}
    82dc:	b082      	sub	sp, #8
    82de:	ab03      	add	r3, sp, #12
    82e0:	cb04      	ldmia	r3!, {r2}
    82e2:	6881      	ldr	r1, [r0, #8]
    82e4:	9301      	str	r3, [sp, #4]
    82e6:	f000 f817 	bl	8318 <_vfprintf_r>
    82ea:	b002      	add	sp, #8
    82ec:	bc08      	pop	{r3}
    82ee:	b003      	add	sp, #12
    82f0:	4718      	bx	r3
    82f2:	46c0      	nop			; (mov r8, r8)

000082f4 <printf>:
    82f4:	b40f      	push	{r0, r1, r2, r3}
    82f6:	b500      	push	{lr}
    82f8:	4906      	ldr	r1, [pc, #24]	; (8314 <printf+0x20>)
    82fa:	b083      	sub	sp, #12
    82fc:	ab04      	add	r3, sp, #16
    82fe:	6808      	ldr	r0, [r1, #0]
    8300:	cb04      	ldmia	r3!, {r2}
    8302:	6881      	ldr	r1, [r0, #8]
    8304:	9301      	str	r3, [sp, #4]
    8306:	f000 f807 	bl	8318 <_vfprintf_r>
    830a:	b003      	add	sp, #12
    830c:	bc08      	pop	{r3}
    830e:	b004      	add	sp, #16
    8310:	4718      	bx	r3
    8312:	46c0      	nop			; (mov r8, r8)
    8314:	0002120c 	.word	0x0002120c

00008318 <_vfprintf_r>:
    8318:	b5f0      	push	{r4, r5, r6, r7, lr}
    831a:	46de      	mov	lr, fp
    831c:	464e      	mov	r6, r9
    831e:	4657      	mov	r7, sl
    8320:	4645      	mov	r5, r8
    8322:	b5e0      	push	{r5, r6, r7, lr}
    8324:	b0d5      	sub	sp, #340	; 0x154
    8326:	4681      	mov	r9, r0
    8328:	468b      	mov	fp, r1
    832a:	001c      	movs	r4, r3
    832c:	9206      	str	r2, [sp, #24]
    832e:	930e      	str	r3, [sp, #56]	; 0x38
    8330:	f003 fc96 	bl	bc60 <_localeconv_r>
    8334:	6803      	ldr	r3, [r0, #0]
    8336:	0018      	movs	r0, r3
    8338:	931a      	str	r3, [sp, #104]	; 0x68
    833a:	f004 fefb 	bl	d134 <strlen>
    833e:	464b      	mov	r3, r9
    8340:	9019      	str	r0, [sp, #100]	; 0x64
    8342:	2b00      	cmp	r3, #0
    8344:	d003      	beq.n	834e <_vfprintf_r+0x36>
    8346:	6b9b      	ldr	r3, [r3, #56]	; 0x38
    8348:	2b00      	cmp	r3, #0
    834a:	d100      	bne.n	834e <_vfprintf_r+0x36>
    834c:	e245      	b.n	87da <_vfprintf_r+0x4c2>
    834e:	465b      	mov	r3, fp
    8350:	6e5b      	ldr	r3, [r3, #100]	; 0x64
    8352:	07db      	lsls	r3, r3, #31
    8354:	d500      	bpl.n	8358 <_vfprintf_r+0x40>
    8356:	e0a7      	b.n	84a8 <_vfprintf_r+0x190>
    8358:	465b      	mov	r3, fp
    835a:	210c      	movs	r1, #12
    835c:	5e59      	ldrsh	r1, [r3, r1]
    835e:	040a      	lsls	r2, r1, #16
    8360:	0c13      	lsrs	r3, r2, #16
    8362:	0192      	lsls	r2, r2, #6
    8364:	d400      	bmi.n	8368 <_vfprintf_r+0x50>
    8366:	e09b      	b.n	84a0 <_vfprintf_r+0x188>
    8368:	2280      	movs	r2, #128	; 0x80
    836a:	0192      	lsls	r2, r2, #6
    836c:	4213      	tst	r3, r2
    836e:	d10a      	bne.n	8386 <_vfprintf_r+0x6e>
    8370:	430a      	orrs	r2, r1
    8372:	465b      	mov	r3, fp
    8374:	4659      	mov	r1, fp
    8376:	819a      	strh	r2, [r3, #12]
    8378:	6e49      	ldr	r1, [r1, #100]	; 0x64
    837a:	4bd4      	ldr	r3, [pc, #848]	; (86cc <_vfprintf_r+0x3b4>)
    837c:	400b      	ands	r3, r1
    837e:	4659      	mov	r1, fp
    8380:	0412      	lsls	r2, r2, #16
    8382:	664b      	str	r3, [r1, #100]	; 0x64
    8384:	0c13      	lsrs	r3, r2, #16
    8386:	071a      	lsls	r2, r3, #28
    8388:	d55d      	bpl.n	8446 <_vfprintf_r+0x12e>
    838a:	465a      	mov	r2, fp
    838c:	6912      	ldr	r2, [r2, #16]
    838e:	2a00      	cmp	r2, #0
    8390:	d059      	beq.n	8446 <_vfprintf_r+0x12e>
    8392:	221a      	movs	r2, #26
    8394:	401a      	ands	r2, r3
    8396:	2a0a      	cmp	r2, #10
    8398:	d063      	beq.n	8462 <_vfprintf_r+0x14a>
    839a:	ab2b      	add	r3, sp, #172	; 0xac
    839c:	9328      	str	r3, [sp, #160]	; 0xa0
    839e:	2300      	movs	r3, #0
    83a0:	2400      	movs	r4, #0
    83a2:	932a      	str	r3, [sp, #168]	; 0xa8
    83a4:	9329      	str	r3, [sp, #164]	; 0xa4
    83a6:	9314      	str	r3, [sp, #80]	; 0x50
    83a8:	2300      	movs	r3, #0
    83aa:	9316      	str	r3, [sp, #88]	; 0x58
    83ac:	9417      	str	r4, [sp, #92]	; 0x5c
    83ae:	2300      	movs	r3, #0
    83b0:	46d8      	mov	r8, fp
    83b2:	46cb      	mov	fp, r9
    83b4:	931c      	str	r3, [sp, #112]	; 0x70
    83b6:	931d      	str	r3, [sp, #116]	; 0x74
    83b8:	931b      	str	r3, [sp, #108]	; 0x6c
    83ba:	931e      	str	r3, [sp, #120]	; 0x78
    83bc:	931f      	str	r3, [sp, #124]	; 0x7c
    83be:	9308      	str	r3, [sp, #32]
    83c0:	af2b      	add	r7, sp, #172	; 0xac
    83c2:	9c06      	ldr	r4, [sp, #24]
    83c4:	7823      	ldrb	r3, [r4, #0]
    83c6:	2b25      	cmp	r3, #37	; 0x25
    83c8:	d100      	bne.n	83cc <_vfprintf_r+0xb4>
    83ca:	e116      	b.n	85fa <_vfprintf_r+0x2e2>
    83cc:	2b00      	cmp	r3, #0
    83ce:	d100      	bne.n	83d2 <_vfprintf_r+0xba>
    83d0:	e113      	b.n	85fa <_vfprintf_r+0x2e2>
    83d2:	0025      	movs	r5, r4
    83d4:	7863      	ldrb	r3, [r4, #1]
    83d6:	3401      	adds	r4, #1
    83d8:	2b00      	cmp	r3, #0
    83da:	d001      	beq.n	83e0 <_vfprintf_r+0xc8>
    83dc:	2b25      	cmp	r3, #37	; 0x25
    83de:	d1f8      	bne.n	83d2 <_vfprintf_r+0xba>
    83e0:	9a06      	ldr	r2, [sp, #24]
    83e2:	1aa6      	subs	r6, r4, r2
    83e4:	4294      	cmp	r4, r2
    83e6:	d011      	beq.n	840c <_vfprintf_r+0xf4>
    83e8:	9b2a      	ldr	r3, [sp, #168]	; 0xa8
    83ea:	199b      	adds	r3, r3, r6
    83ec:	932a      	str	r3, [sp, #168]	; 0xa8
    83ee:	9b29      	ldr	r3, [sp, #164]	; 0xa4
    83f0:	9306      	str	r3, [sp, #24]
    83f2:	3301      	adds	r3, #1
    83f4:	603a      	str	r2, [r7, #0]
    83f6:	607e      	str	r6, [r7, #4]
    83f8:	9329      	str	r3, [sp, #164]	; 0xa4
    83fa:	2b07      	cmp	r3, #7
    83fc:	dc5a      	bgt.n	84b4 <_vfprintf_r+0x19c>
    83fe:	3708      	adds	r7, #8
    8400:	9b08      	ldr	r3, [sp, #32]
    8402:	469c      	mov	ip, r3
    8404:	44b4      	add	ip, r6
    8406:	4663      	mov	r3, ip
    8408:	9308      	str	r3, [sp, #32]
    840a:	786b      	ldrb	r3, [r5, #1]
    840c:	2b00      	cmp	r3, #0
    840e:	d101      	bne.n	8414 <_vfprintf_r+0xfc>
    8410:	f001 f898 	bl	9544 <_vfprintf_r+0x122c>
    8414:	1c63      	adds	r3, r4, #1
    8416:	9306      	str	r3, [sp, #24]
    8418:	2300      	movs	r3, #0
    841a:	aa1a      	add	r2, sp, #104	; 0x68
    841c:	76d3      	strb	r3, [r2, #27]
    841e:	2201      	movs	r2, #1
    8420:	4252      	negs	r2, r2
    8422:	4692      	mov	sl, r2
    8424:	2200      	movs	r2, #0
    8426:	7863      	ldrb	r3, [r4, #1]
    8428:	4655      	mov	r5, sl
    842a:	0014      	movs	r4, r2
    842c:	465e      	mov	r6, fp
    842e:	9209      	str	r2, [sp, #36]	; 0x24
    8430:	9a06      	ldr	r2, [sp, #24]
    8432:	3201      	adds	r2, #1
    8434:	9206      	str	r2, [sp, #24]
    8436:	001a      	movs	r2, r3
    8438:	3a20      	subs	r2, #32
    843a:	2a5a      	cmp	r2, #90	; 0x5a
    843c:	d845      	bhi.n	84ca <_vfprintf_r+0x1b2>
    843e:	49a4      	ldr	r1, [pc, #656]	; (86d0 <_vfprintf_r+0x3b8>)
    8440:	0092      	lsls	r2, r2, #2
    8442:	588a      	ldr	r2, [r1, r2]
    8444:	4697      	mov	pc, r2
    8446:	4659      	mov	r1, fp
    8448:	4648      	mov	r0, r9
    844a:	f001 fdf1 	bl	a030 <__swsetup_r>
    844e:	465b      	mov	r3, fp
    8450:	2800      	cmp	r0, #0
    8452:	d001      	beq.n	8458 <_vfprintf_r+0x140>
    8454:	f001 fc29 	bl	9caa <_vfprintf_r+0x1992>
    8458:	221a      	movs	r2, #26
    845a:	899b      	ldrh	r3, [r3, #12]
    845c:	401a      	ands	r2, r3
    845e:	2a0a      	cmp	r2, #10
    8460:	d19b      	bne.n	839a <_vfprintf_r+0x82>
    8462:	465a      	mov	r2, fp
    8464:	210e      	movs	r1, #14
    8466:	5e52      	ldrsh	r2, [r2, r1]
    8468:	2a00      	cmp	r2, #0
    846a:	db96      	blt.n	839a <_vfprintf_r+0x82>
    846c:	465a      	mov	r2, fp
    846e:	6e52      	ldr	r2, [r2, #100]	; 0x64
    8470:	07d2      	lsls	r2, r2, #31
    8472:	d403      	bmi.n	847c <_vfprintf_r+0x164>
    8474:	059b      	lsls	r3, r3, #22
    8476:	d401      	bmi.n	847c <_vfprintf_r+0x164>
    8478:	f001 f9e3 	bl	9842 <_vfprintf_r+0x152a>
    847c:	0023      	movs	r3, r4
    847e:	4659      	mov	r1, fp
    8480:	4648      	mov	r0, r9
    8482:	9a06      	ldr	r2, [sp, #24]
    8484:	f001 fd8c 	bl	9fa0 <__sbprintf>
    8488:	9008      	str	r0, [sp, #32]
    848a:	f000 fc4b 	bl	8d24 <_vfprintf_r+0xa0c>
    848e:	ab1a      	add	r3, sp, #104	; 0x68
    8490:	7edb      	ldrb	r3, [r3, #27]
    8492:	2b00      	cmp	r3, #0
    8494:	d101      	bne.n	849a <_vfprintf_r+0x182>
    8496:	f000 fe5b 	bl	9150 <_vfprintf_r+0xe38>
    849a:	9b06      	ldr	r3, [sp, #24]
    849c:	781b      	ldrb	r3, [r3, #0]
    849e:	e7c7      	b.n	8430 <_vfprintf_r+0x118>
    84a0:	465b      	mov	r3, fp
    84a2:	6d98      	ldr	r0, [r3, #88]	; 0x58
    84a4:	f003 fbee 	bl	bc84 <__retarget_lock_acquire_recursive>
    84a8:	465b      	mov	r3, fp
    84aa:	210c      	movs	r1, #12
    84ac:	5e59      	ldrsh	r1, [r3, r1]
    84ae:	040b      	lsls	r3, r1, #16
    84b0:	0c1b      	lsrs	r3, r3, #16
    84b2:	e759      	b.n	8368 <_vfprintf_r+0x50>
    84b4:	4641      	mov	r1, r8
    84b6:	4658      	mov	r0, fp
    84b8:	aa28      	add	r2, sp, #160	; 0xa0
    84ba:	f004 feeb 	bl	d294 <__sprint_r>
    84be:	2800      	cmp	r0, #0
    84c0:	d001      	beq.n	84c6 <_vfprintf_r+0x1ae>
    84c2:	f001 fc70 	bl	9da6 <_vfprintf_r+0x1a8e>
    84c6:	af2b      	add	r7, sp, #172	; 0xac
    84c8:	e79a      	b.n	8400 <_vfprintf_r+0xe8>
    84ca:	46a1      	mov	r9, r4
    84cc:	46b3      	mov	fp, r6
    84ce:	9311      	str	r3, [sp, #68]	; 0x44
    84d0:	2b00      	cmp	r3, #0
    84d2:	d101      	bne.n	84d8 <_vfprintf_r+0x1c0>
    84d4:	f001 f836 	bl	9544 <_vfprintf_r+0x122c>
    84d8:	ae3b      	add	r6, sp, #236	; 0xec
    84da:	7033      	strb	r3, [r6, #0]
    84dc:	2300      	movs	r3, #0
    84de:	aa1a      	add	r2, sp, #104	; 0x68
    84e0:	76d3      	strb	r3, [r2, #27]
    84e2:	2200      	movs	r2, #0
    84e4:	920d      	str	r2, [sp, #52]	; 0x34
    84e6:	3201      	adds	r2, #1
    84e8:	920c      	str	r2, [sp, #48]	; 0x30
    84ea:	2200      	movs	r2, #0
    84ec:	3301      	adds	r3, #1
    84ee:	9307      	str	r3, [sp, #28]
    84f0:	4692      	mov	sl, r2
    84f2:	2300      	movs	r3, #0
    84f4:	9215      	str	r2, [sp, #84]	; 0x54
    84f6:	9213      	str	r2, [sp, #76]	; 0x4c
    84f8:	9212      	str	r2, [sp, #72]	; 0x48
    84fa:	2202      	movs	r2, #2
    84fc:	4649      	mov	r1, r9
    84fe:	4011      	ands	r1, r2
    8500:	910f      	str	r1, [sp, #60]	; 0x3c
    8502:	4649      	mov	r1, r9
    8504:	420a      	tst	r2, r1
    8506:	d002      	beq.n	850e <_vfprintf_r+0x1f6>
    8508:	9a07      	ldr	r2, [sp, #28]
    850a:	3202      	adds	r2, #2
    850c:	9207      	str	r2, [sp, #28]
    850e:	2284      	movs	r2, #132	; 0x84
    8510:	4649      	mov	r1, r9
    8512:	4011      	ands	r1, r2
    8514:	9110      	str	r1, [sp, #64]	; 0x40
    8516:	4649      	mov	r1, r9
    8518:	420a      	tst	r2, r1
    851a:	d105      	bne.n	8528 <_vfprintf_r+0x210>
    851c:	9a09      	ldr	r2, [sp, #36]	; 0x24
    851e:	9907      	ldr	r1, [sp, #28]
    8520:	1a54      	subs	r4, r2, r1
    8522:	2c00      	cmp	r4, #0
    8524:	dd00      	ble.n	8528 <_vfprintf_r+0x210>
    8526:	e0c6      	b.n	86b6 <_vfprintf_r+0x39e>
    8528:	9c2a      	ldr	r4, [sp, #168]	; 0xa8
    852a:	2b00      	cmp	r3, #0
    852c:	d011      	beq.n	8552 <_vfprintf_r+0x23a>
    852e:	aa1a      	add	r2, sp, #104	; 0x68
    8530:	231b      	movs	r3, #27
    8532:	4694      	mov	ip, r2
    8534:	4463      	add	r3, ip
    8536:	603b      	str	r3, [r7, #0]
    8538:	2301      	movs	r3, #1
    853a:	607b      	str	r3, [r7, #4]
    853c:	9b29      	ldr	r3, [sp, #164]	; 0xa4
    853e:	3401      	adds	r4, #1
    8540:	9318      	str	r3, [sp, #96]	; 0x60
    8542:	3301      	adds	r3, #1
    8544:	942a      	str	r4, [sp, #168]	; 0xa8
    8546:	9329      	str	r3, [sp, #164]	; 0xa4
    8548:	2b07      	cmp	r3, #7
    854a:	dd01      	ble.n	8550 <_vfprintf_r+0x238>
    854c:	f000 fc04 	bl	8d58 <_vfprintf_r+0xa40>
    8550:	3708      	adds	r7, #8
    8552:	9b0f      	ldr	r3, [sp, #60]	; 0x3c
    8554:	2b00      	cmp	r3, #0
    8556:	d00e      	beq.n	8576 <_vfprintf_r+0x25e>
    8558:	ab21      	add	r3, sp, #132	; 0x84
    855a:	603b      	str	r3, [r7, #0]
    855c:	2302      	movs	r3, #2
    855e:	607b      	str	r3, [r7, #4]
    8560:	9b29      	ldr	r3, [sp, #164]	; 0xa4
    8562:	3402      	adds	r4, #2
    8564:	930f      	str	r3, [sp, #60]	; 0x3c
    8566:	3301      	adds	r3, #1
    8568:	942a      	str	r4, [sp, #168]	; 0xa8
    856a:	9329      	str	r3, [sp, #164]	; 0xa4
    856c:	2b07      	cmp	r3, #7
    856e:	dd01      	ble.n	8574 <_vfprintf_r+0x25c>
    8570:	f000 fbfd 	bl	8d6e <_vfprintf_r+0xa56>
    8574:	3708      	adds	r7, #8
    8576:	9b10      	ldr	r3, [sp, #64]	; 0x40
    8578:	2b80      	cmp	r3, #128	; 0x80
    857a:	d100      	bne.n	857e <_vfprintf_r+0x266>
    857c:	e30b      	b.n	8b96 <_vfprintf_r+0x87e>
    857e:	4653      	mov	r3, sl
    8580:	9a0c      	ldr	r2, [sp, #48]	; 0x30
    8582:	1a9d      	subs	r5, r3, r2
    8584:	2d00      	cmp	r5, #0
    8586:	dd00      	ble.n	858a <_vfprintf_r+0x272>
    8588:	e34a      	b.n	8c20 <_vfprintf_r+0x908>
    858a:	464b      	mov	r3, r9
    858c:	05db      	lsls	r3, r3, #23
    858e:	d500      	bpl.n	8592 <_vfprintf_r+0x27a>
    8590:	e2a6      	b.n	8ae0 <_vfprintf_r+0x7c8>
    8592:	9b0c      	ldr	r3, [sp, #48]	; 0x30
    8594:	469c      	mov	ip, r3
    8596:	607b      	str	r3, [r7, #4]
    8598:	9b29      	ldr	r3, [sp, #164]	; 0xa4
    859a:	4464      	add	r4, ip
    859c:	930c      	str	r3, [sp, #48]	; 0x30
    859e:	3301      	adds	r3, #1
    85a0:	603e      	str	r6, [r7, #0]
    85a2:	942a      	str	r4, [sp, #168]	; 0xa8
    85a4:	9329      	str	r3, [sp, #164]	; 0xa4
    85a6:	2b07      	cmp	r3, #7
    85a8:	dd00      	ble.n	85ac <_vfprintf_r+0x294>
    85aa:	e10b      	b.n	87c4 <_vfprintf_r+0x4ac>
    85ac:	3708      	adds	r7, #8
    85ae:	464b      	mov	r3, r9
    85b0:	075b      	lsls	r3, r3, #29
    85b2:	d506      	bpl.n	85c2 <_vfprintf_r+0x2aa>
    85b4:	9b09      	ldr	r3, [sp, #36]	; 0x24
    85b6:	9a07      	ldr	r2, [sp, #28]
    85b8:	1a9e      	subs	r6, r3, r2
    85ba:	2e00      	cmp	r6, #0
    85bc:	dd01      	ble.n	85c2 <_vfprintf_r+0x2aa>
    85be:	f000 fc00 	bl	8dc2 <_vfprintf_r+0xaaa>
    85c2:	9b09      	ldr	r3, [sp, #36]	; 0x24
    85c4:	9a07      	ldr	r2, [sp, #28]
    85c6:	4293      	cmp	r3, r2
    85c8:	da00      	bge.n	85cc <_vfprintf_r+0x2b4>
    85ca:	0013      	movs	r3, r2
    85cc:	9a08      	ldr	r2, [sp, #32]
    85ce:	4694      	mov	ip, r2
    85d0:	449c      	add	ip, r3
    85d2:	4663      	mov	r3, ip
    85d4:	9308      	str	r3, [sp, #32]
    85d6:	2c00      	cmp	r4, #0
    85d8:	d000      	beq.n	85dc <_vfprintf_r+0x2c4>
    85da:	e387      	b.n	8cec <_vfprintf_r+0x9d4>
    85dc:	2300      	movs	r3, #0
    85de:	9329      	str	r3, [sp, #164]	; 0xa4
    85e0:	9b0d      	ldr	r3, [sp, #52]	; 0x34
    85e2:	2b00      	cmp	r3, #0
    85e4:	d003      	beq.n	85ee <_vfprintf_r+0x2d6>
    85e6:	4658      	mov	r0, fp
    85e8:	990d      	ldr	r1, [sp, #52]	; 0x34
    85ea:	f003 fa07 	bl	b9fc <_free_r>
    85ee:	9c06      	ldr	r4, [sp, #24]
    85f0:	7823      	ldrb	r3, [r4, #0]
    85f2:	af2b      	add	r7, sp, #172	; 0xac
    85f4:	2b25      	cmp	r3, #37	; 0x25
    85f6:	d000      	beq.n	85fa <_vfprintf_r+0x2e2>
    85f8:	e6e8      	b.n	83cc <_vfprintf_r+0xb4>
    85fa:	9c06      	ldr	r4, [sp, #24]
    85fc:	e706      	b.n	840c <_vfprintf_r+0xf4>
    85fe:	3b30      	subs	r3, #48	; 0x30
    8600:	2000      	movs	r0, #0
    8602:	001a      	movs	r2, r3
    8604:	9906      	ldr	r1, [sp, #24]
    8606:	0083      	lsls	r3, r0, #2
    8608:	1818      	adds	r0, r3, r0
    860a:	000b      	movs	r3, r1
    860c:	781b      	ldrb	r3, [r3, #0]
    860e:	0040      	lsls	r0, r0, #1
    8610:	1810      	adds	r0, r2, r0
    8612:	001a      	movs	r2, r3
    8614:	3a30      	subs	r2, #48	; 0x30
    8616:	3101      	adds	r1, #1
    8618:	2a09      	cmp	r2, #9
    861a:	d9f4      	bls.n	8606 <_vfprintf_r+0x2ee>
    861c:	9009      	str	r0, [sp, #36]	; 0x24
    861e:	9106      	str	r1, [sp, #24]
    8620:	e709      	b.n	8436 <_vfprintf_r+0x11e>
    8622:	9311      	str	r3, [sp, #68]	; 0x44
    8624:	2307      	movs	r3, #7
    8626:	46a1      	mov	r9, r4
    8628:	9c0e      	ldr	r4, [sp, #56]	; 0x38
    862a:	3407      	adds	r4, #7
    862c:	439c      	bics	r4, r3
    862e:	0022      	movs	r2, r4
    8630:	ca18      	ldmia	r2!, {r3, r4}
    8632:	9316      	str	r3, [sp, #88]	; 0x58
    8634:	9417      	str	r4, [sp, #92]	; 0x5c
    8636:	9b16      	ldr	r3, [sp, #88]	; 0x58
    8638:	9c17      	ldr	r4, [sp, #92]	; 0x5c
    863a:	46aa      	mov	sl, r5
    863c:	920e      	str	r2, [sp, #56]	; 0x38
    863e:	001d      	movs	r5, r3
    8640:	2201      	movs	r2, #1
    8642:	0064      	lsls	r4, r4, #1
    8644:	0864      	lsrs	r4, r4, #1
    8646:	0028      	movs	r0, r5
    8648:	0021      	movs	r1, r4
    864a:	4b22      	ldr	r3, [pc, #136]	; (86d4 <_vfprintf_r+0x3bc>)
    864c:	4252      	negs	r2, r2
    864e:	46b3      	mov	fp, r6
    8650:	f008 f9ee 	bl	10a30 <____aeabi_dcmpun_from_thumb>
    8654:	2800      	cmp	r0, #0
    8656:	d001      	beq.n	865c <_vfprintf_r+0x344>
    8658:	f000 fd8d 	bl	9176 <_vfprintf_r+0xe5e>
    865c:	2201      	movs	r2, #1
    865e:	0028      	movs	r0, r5
    8660:	0021      	movs	r1, r4
    8662:	4b1c      	ldr	r3, [pc, #112]	; (86d4 <_vfprintf_r+0x3bc>)
    8664:	4252      	negs	r2, r2
    8666:	f008 f9f9 	bl	10a5c <____aeabi_dcmple_from_thumb>
    866a:	2800      	cmp	r0, #0
    866c:	d001      	beq.n	8672 <_vfprintf_r+0x35a>
    866e:	f000 fd82 	bl	9176 <_vfprintf_r+0xe5e>
    8672:	2200      	movs	r2, #0
    8674:	2300      	movs	r3, #0
    8676:	9816      	ldr	r0, [sp, #88]	; 0x58
    8678:	9917      	ldr	r1, [sp, #92]	; 0x5c
    867a:	f008 f9eb 	bl	10a54 <____aeabi_dcmplt_from_thumb>
    867e:	2800      	cmp	r0, #0
    8680:	d001      	beq.n	8686 <_vfprintf_r+0x36e>
    8682:	f001 f8c2 	bl	980a <_vfprintf_r+0x14f2>
    8686:	ab1a      	add	r3, sp, #104	; 0x68
    8688:	7edb      	ldrb	r3, [r3, #27]
    868a:	9a11      	ldr	r2, [sp, #68]	; 0x44
    868c:	2a47      	cmp	r2, #71	; 0x47
    868e:	dc01      	bgt.n	8694 <_vfprintf_r+0x37c>
    8690:	f000 ffe1 	bl	9656 <_vfprintf_r+0x133e>
    8694:	4e10      	ldr	r6, [pc, #64]	; (86d8 <_vfprintf_r+0x3c0>)
    8696:	2280      	movs	r2, #128	; 0x80
    8698:	4649      	mov	r1, r9
    869a:	4391      	bics	r1, r2
    869c:	3a7d      	subs	r2, #125	; 0x7d
    869e:	9207      	str	r2, [sp, #28]
    86a0:	2200      	movs	r2, #0
    86a2:	4689      	mov	r9, r1
    86a4:	920d      	str	r2, [sp, #52]	; 0x34
    86a6:	3203      	adds	r2, #3
    86a8:	920c      	str	r2, [sp, #48]	; 0x30
    86aa:	2200      	movs	r2, #0
    86ac:	4692      	mov	sl, r2
    86ae:	9215      	str	r2, [sp, #84]	; 0x54
    86b0:	9213      	str	r2, [sp, #76]	; 0x4c
    86b2:	9212      	str	r2, [sp, #72]	; 0x48
    86b4:	e184      	b.n	89c0 <_vfprintf_r+0x6a8>
    86b6:	9a2a      	ldr	r2, [sp, #168]	; 0xa8
    86b8:	9b29      	ldr	r3, [sp, #164]	; 0xa4
    86ba:	4d08      	ldr	r5, [pc, #32]	; (86dc <_vfprintf_r+0x3c4>)
    86bc:	2c10      	cmp	r4, #16
    86be:	dd2e      	ble.n	871e <_vfprintf_r+0x406>
    86c0:	0039      	movs	r1, r7
    86c2:	4647      	mov	r7, r8
    86c4:	46b0      	mov	r8, r6
    86c6:	465e      	mov	r6, fp
    86c8:	e00e      	b.n	86e8 <_vfprintf_r+0x3d0>
    86ca:	46c0      	nop			; (mov r8, r8)
    86cc:	ffffdfff 	.word	0xffffdfff
    86d0:	00010b18 	.word	0x00010b18
    86d4:	7fefffff 	.word	0x7fefffff
    86d8:	00010ad8 	.word	0x00010ad8
    86dc:	00010c84 	.word	0x00010c84
    86e0:	3c10      	subs	r4, #16
    86e2:	3108      	adds	r1, #8
    86e4:	2c10      	cmp	r4, #16
    86e6:	dd16      	ble.n	8716 <_vfprintf_r+0x3fe>
    86e8:	2010      	movs	r0, #16
    86ea:	3210      	adds	r2, #16
    86ec:	3301      	adds	r3, #1
    86ee:	600d      	str	r5, [r1, #0]
    86f0:	6048      	str	r0, [r1, #4]
    86f2:	922a      	str	r2, [sp, #168]	; 0xa8
    86f4:	9329      	str	r3, [sp, #164]	; 0xa4
    86f6:	2b07      	cmp	r3, #7
    86f8:	ddf2      	ble.n	86e0 <_vfprintf_r+0x3c8>
    86fa:	0039      	movs	r1, r7
    86fc:	0030      	movs	r0, r6
    86fe:	aa28      	add	r2, sp, #160	; 0xa0
    8700:	f004 fdc8 	bl	d294 <__sprint_r>
    8704:	2800      	cmp	r0, #0
    8706:	d000      	beq.n	870a <_vfprintf_r+0x3f2>
    8708:	e358      	b.n	8dbc <_vfprintf_r+0xaa4>
    870a:	3c10      	subs	r4, #16
    870c:	9a2a      	ldr	r2, [sp, #168]	; 0xa8
    870e:	9b29      	ldr	r3, [sp, #164]	; 0xa4
    8710:	a92b      	add	r1, sp, #172	; 0xac
    8712:	2c10      	cmp	r4, #16
    8714:	dce8      	bgt.n	86e8 <_vfprintf_r+0x3d0>
    8716:	46b3      	mov	fp, r6
    8718:	4646      	mov	r6, r8
    871a:	46b8      	mov	r8, r7
    871c:	000f      	movs	r7, r1
    871e:	607c      	str	r4, [r7, #4]
    8720:	3301      	adds	r3, #1
    8722:	18a4      	adds	r4, r4, r2
    8724:	603d      	str	r5, [r7, #0]
    8726:	942a      	str	r4, [sp, #168]	; 0xa8
    8728:	9329      	str	r3, [sp, #164]	; 0xa4
    872a:	2b07      	cmp	r3, #7
    872c:	dd01      	ble.n	8732 <_vfprintf_r+0x41a>
    872e:	f000 fecb 	bl	94c8 <_vfprintf_r+0x11b0>
    8732:	ab1a      	add	r3, sp, #104	; 0x68
    8734:	7edb      	ldrb	r3, [r3, #27]
    8736:	3708      	adds	r7, #8
    8738:	e6f7      	b.n	852a <_vfprintf_r+0x212>
    873a:	9b14      	ldr	r3, [sp, #80]	; 0x50
    873c:	603e      	str	r6, [r7, #0]
    873e:	2b01      	cmp	r3, #1
    8740:	dc01      	bgt.n	8746 <_vfprintf_r+0x42e>
    8742:	f000 fc1a 	bl	8f7a <_vfprintf_r+0xc62>
    8746:	2301      	movs	r3, #1
    8748:	607b      	str	r3, [r7, #4]
    874a:	9b29      	ldr	r3, [sp, #164]	; 0xa4
    874c:	3401      	adds	r4, #1
    874e:	1c5d      	adds	r5, r3, #1
    8750:	942a      	str	r4, [sp, #168]	; 0xa8
    8752:	930c      	str	r3, [sp, #48]	; 0x30
    8754:	9529      	str	r5, [sp, #164]	; 0xa4
    8756:	2d07      	cmp	r5, #7
    8758:	dd01      	ble.n	875e <_vfprintf_r+0x446>
    875a:	f000 fe9a 	bl	9492 <_vfprintf_r+0x117a>
    875e:	3708      	adds	r7, #8
    8760:	9b1a      	ldr	r3, [sp, #104]	; 0x68
    8762:	603b      	str	r3, [r7, #0]
    8764:	9b19      	ldr	r3, [sp, #100]	; 0x64
    8766:	469c      	mov	ip, r3
    8768:	3501      	adds	r5, #1
    876a:	4464      	add	r4, ip
    876c:	607b      	str	r3, [r7, #4]
    876e:	942a      	str	r4, [sp, #168]	; 0xa8
    8770:	9529      	str	r5, [sp, #164]	; 0xa4
    8772:	2d07      	cmp	r5, #7
    8774:	dd01      	ble.n	877a <_vfprintf_r+0x462>
    8776:	f000 fe99 	bl	94ac <_vfprintf_r+0x1194>
    877a:	3708      	adds	r7, #8
    877c:	2200      	movs	r2, #0
    877e:	2300      	movs	r3, #0
    8780:	9816      	ldr	r0, [sp, #88]	; 0x58
    8782:	9917      	ldr	r1, [sp, #92]	; 0x5c
    8784:	f008 f92c 	bl	109e0 <____aeabi_dcmpeq_from_thumb>
    8788:	2800      	cmp	r0, #0
    878a:	d001      	beq.n	8790 <_vfprintf_r+0x478>
    878c:	f000 fc13 	bl	8fb6 <_vfprintf_r+0xc9e>
    8790:	9b14      	ldr	r3, [sp, #80]	; 0x50
    8792:	3b01      	subs	r3, #1
    8794:	3601      	adds	r6, #1
    8796:	18e4      	adds	r4, r4, r3
    8798:	3501      	adds	r5, #1
    879a:	603e      	str	r6, [r7, #0]
    879c:	607b      	str	r3, [r7, #4]
    879e:	942a      	str	r4, [sp, #168]	; 0xa8
    87a0:	9529      	str	r5, [sp, #164]	; 0xa4
    87a2:	2d07      	cmp	r5, #7
    87a4:	dd01      	ble.n	87aa <_vfprintf_r+0x492>
    87a6:	f000 fbf9 	bl	8f9c <_vfprintf_r+0xc84>
    87aa:	3708      	adds	r7, #8
    87ac:	ab24      	add	r3, sp, #144	; 0x90
    87ae:	603b      	str	r3, [r7, #0]
    87b0:	9b1d      	ldr	r3, [sp, #116]	; 0x74
    87b2:	469c      	mov	ip, r3
    87b4:	3501      	adds	r5, #1
    87b6:	4464      	add	r4, ip
    87b8:	607b      	str	r3, [r7, #4]
    87ba:	942a      	str	r4, [sp, #168]	; 0xa8
    87bc:	9529      	str	r5, [sp, #164]	; 0xa4
    87be:	2d07      	cmp	r5, #7
    87c0:	dc00      	bgt.n	87c4 <_vfprintf_r+0x4ac>
    87c2:	e6f3      	b.n	85ac <_vfprintf_r+0x294>
    87c4:	4641      	mov	r1, r8
    87c6:	4658      	mov	r0, fp
    87c8:	aa28      	add	r2, sp, #160	; 0xa0
    87ca:	f004 fd63 	bl	d294 <__sprint_r>
    87ce:	2800      	cmp	r0, #0
    87d0:	d000      	beq.n	87d4 <_vfprintf_r+0x4bc>
    87d2:	e293      	b.n	8cfc <_vfprintf_r+0x9e4>
    87d4:	9c2a      	ldr	r4, [sp, #168]	; 0xa8
    87d6:	af2b      	add	r7, sp, #172	; 0xac
    87d8:	e6e9      	b.n	85ae <_vfprintf_r+0x296>
    87da:	4648      	mov	r0, r9
    87dc:	f002 ff5a 	bl	b694 <__sinit>
    87e0:	e5b5      	b.n	834e <_vfprintf_r+0x36>
    87e2:	2320      	movs	r3, #32
    87e4:	431c      	orrs	r4, r3
    87e6:	9b06      	ldr	r3, [sp, #24]
    87e8:	781b      	ldrb	r3, [r3, #0]
    87ea:	e621      	b.n	8430 <_vfprintf_r+0x118>
    87ec:	46a1      	mov	r9, r4
    87ee:	9c0e      	ldr	r4, [sp, #56]	; 0x38
    87f0:	9311      	str	r3, [sp, #68]	; 0x44
    87f2:	cc08      	ldmia	r4!, {r3}
    87f4:	46b3      	mov	fp, r6
    87f6:	ae3b      	add	r6, sp, #236	; 0xec
    87f8:	7033      	strb	r3, [r6, #0]
    87fa:	2300      	movs	r3, #0
    87fc:	aa1a      	add	r2, sp, #104	; 0x68
    87fe:	76d3      	strb	r3, [r2, #27]
    8800:	940e      	str	r4, [sp, #56]	; 0x38
    8802:	e66e      	b.n	84e2 <_vfprintf_r+0x1ca>
    8804:	9311      	str	r3, [sp, #68]	; 0x44
    8806:	2300      	movs	r3, #0
    8808:	46a1      	mov	r9, r4
    880a:	9c0e      	ldr	r4, [sp, #56]	; 0x38
    880c:	46b3      	mov	fp, r6
    880e:	cc40      	ldmia	r4!, {r6}
    8810:	aa1a      	add	r2, sp, #104	; 0x68
    8812:	76d3      	strb	r3, [r2, #27]
    8814:	002b      	movs	r3, r5
    8816:	2e00      	cmp	r6, #0
    8818:	d101      	bne.n	881e <_vfprintf_r+0x506>
    881a:	f000 fde4 	bl	93e6 <_vfprintf_r+0x10ce>
    881e:	3301      	adds	r3, #1
    8820:	d101      	bne.n	8826 <_vfprintf_r+0x50e>
    8822:	f000 fed4 	bl	95ce <_vfprintf_r+0x12b6>
    8826:	002a      	movs	r2, r5
    8828:	2100      	movs	r1, #0
    882a:	0030      	movs	r0, r6
    882c:	f003 fda0 	bl	c370 <memchr>
    8830:	900d      	str	r0, [sp, #52]	; 0x34
    8832:	2800      	cmp	r0, #0
    8834:	d101      	bne.n	883a <_vfprintf_r+0x522>
    8836:	f001 f9db 	bl	9bf0 <_vfprintf_r+0x18d8>
    883a:	9b0d      	ldr	r3, [sp, #52]	; 0x34
    883c:	1b99      	subs	r1, r3, r6
    883e:	43ca      	mvns	r2, r1
    8840:	17d2      	asrs	r2, r2, #31
    8842:	910c      	str	r1, [sp, #48]	; 0x30
    8844:	4011      	ands	r1, r2
    8846:	2200      	movs	r2, #0
    8848:	ab1a      	add	r3, sp, #104	; 0x68
    884a:	4692      	mov	sl, r2
    884c:	7edb      	ldrb	r3, [r3, #27]
    884e:	9107      	str	r1, [sp, #28]
    8850:	940e      	str	r4, [sp, #56]	; 0x38
    8852:	920d      	str	r2, [sp, #52]	; 0x34
    8854:	9215      	str	r2, [sp, #84]	; 0x54
    8856:	9213      	str	r2, [sp, #76]	; 0x4c
    8858:	9212      	str	r2, [sp, #72]	; 0x48
    885a:	e0b1      	b.n	89c0 <_vfprintf_r+0x6a8>
    885c:	9a0e      	ldr	r2, [sp, #56]	; 0x38
    885e:	ca08      	ldmia	r2!, {r3}
    8860:	9309      	str	r3, [sp, #36]	; 0x24
    8862:	2b00      	cmp	r3, #0
    8864:	db01      	blt.n	886a <_vfprintf_r+0x552>
    8866:	f000 fc18 	bl	909a <_vfprintf_r+0xd82>
    886a:	9b09      	ldr	r3, [sp, #36]	; 0x24
    886c:	425b      	negs	r3, r3
    886e:	9309      	str	r3, [sp, #36]	; 0x24
    8870:	920e      	str	r2, [sp, #56]	; 0x38
    8872:	2304      	movs	r3, #4
    8874:	431c      	orrs	r4, r3
    8876:	9b06      	ldr	r3, [sp, #24]
    8878:	781b      	ldrb	r3, [r3, #0]
    887a:	e5d9      	b.n	8430 <_vfprintf_r+0x118>
    887c:	232b      	movs	r3, #43	; 0x2b
    887e:	aa1a      	add	r2, sp, #104	; 0x68
    8880:	76d3      	strb	r3, [r2, #27]
    8882:	9b06      	ldr	r3, [sp, #24]
    8884:	781b      	ldrb	r3, [r3, #0]
    8886:	e5d3      	b.n	8430 <_vfprintf_r+0x118>
    8888:	2380      	movs	r3, #128	; 0x80
    888a:	431c      	orrs	r4, r3
    888c:	9b06      	ldr	r3, [sp, #24]
    888e:	781b      	ldrb	r3, [r3, #0]
    8890:	e5ce      	b.n	8430 <_vfprintf_r+0x118>
    8892:	9b06      	ldr	r3, [sp, #24]
    8894:	1c58      	adds	r0, r3, #1
    8896:	781b      	ldrb	r3, [r3, #0]
    8898:	2b2a      	cmp	r3, #42	; 0x2a
    889a:	d101      	bne.n	88a0 <_vfprintf_r+0x588>
    889c:	f001 fb2f 	bl	9efe <_vfprintf_r+0x1be6>
    88a0:	001a      	movs	r2, r3
    88a2:	3a30      	subs	r2, #48	; 0x30
    88a4:	0001      	movs	r1, r0
    88a6:	2500      	movs	r5, #0
    88a8:	2a09      	cmp	r2, #9
    88aa:	d80b      	bhi.n	88c4 <_vfprintf_r+0x5ac>
    88ac:	00ab      	lsls	r3, r5, #2
    88ae:	195d      	adds	r5, r3, r5
    88b0:	000b      	movs	r3, r1
    88b2:	781b      	ldrb	r3, [r3, #0]
    88b4:	006d      	lsls	r5, r5, #1
    88b6:	18ad      	adds	r5, r5, r2
    88b8:	001a      	movs	r2, r3
    88ba:	3101      	adds	r1, #1
    88bc:	3a30      	subs	r2, #48	; 0x30
    88be:	0008      	movs	r0, r1
    88c0:	2a09      	cmp	r2, #9
    88c2:	d9f3      	bls.n	88ac <_vfprintf_r+0x594>
    88c4:	9006      	str	r0, [sp, #24]
    88c6:	e5b6      	b.n	8436 <_vfprintf_r+0x11e>
    88c8:	0022      	movs	r2, r4
    88ca:	9311      	str	r3, [sp, #68]	; 0x44
    88cc:	2310      	movs	r3, #16
    88ce:	431a      	orrs	r2, r3
    88d0:	46aa      	mov	sl, r5
    88d2:	46b3      	mov	fp, r6
    88d4:	4691      	mov	r9, r2
    88d6:	464b      	mov	r3, r9
    88d8:	069b      	lsls	r3, r3, #26
    88da:	d400      	bmi.n	88de <_vfprintf_r+0x5c6>
    88dc:	e3b8      	b.n	9050 <_vfprintf_r+0xd38>
    88de:	2307      	movs	r3, #7
    88e0:	9c0e      	ldr	r4, [sp, #56]	; 0x38
    88e2:	3407      	adds	r4, #7
    88e4:	439c      	bics	r4, r3
    88e6:	3301      	adds	r3, #1
    88e8:	469c      	mov	ip, r3
    88ea:	44a4      	add	ip, r4
    88ec:	4663      	mov	r3, ip
    88ee:	6822      	ldr	r2, [r4, #0]
    88f0:	930e      	str	r3, [sp, #56]	; 0x38
    88f2:	6863      	ldr	r3, [r4, #4]
    88f4:	920a      	str	r2, [sp, #40]	; 0x28
    88f6:	930b      	str	r3, [sp, #44]	; 0x2c
    88f8:	2b00      	cmp	r3, #0
    88fa:	da00      	bge.n	88fe <_vfprintf_r+0x5e6>
    88fc:	e3b4      	b.n	9068 <_vfprintf_r+0xd50>
    88fe:	4653      	mov	r3, sl
    8900:	3301      	adds	r3, #1
    8902:	d100      	bne.n	8906 <_vfprintf_r+0x5ee>
    8904:	e298      	b.n	8e38 <_vfprintf_r+0xb20>
    8906:	2380      	movs	r3, #128	; 0x80
    8908:	464a      	mov	r2, r9
    890a:	439a      	bics	r2, r3
    890c:	4653      	mov	r3, sl
    890e:	4691      	mov	r9, r2
    8910:	2b00      	cmp	r3, #0
    8912:	d000      	beq.n	8916 <_vfprintf_r+0x5fe>
    8914:	e290      	b.n	8e38 <_vfprintf_r+0xb20>
    8916:	9a0a      	ldr	r2, [sp, #40]	; 0x28
    8918:	9b0b      	ldr	r3, [sp, #44]	; 0x2c
    891a:	0011      	movs	r1, r2
    891c:	4319      	orrs	r1, r3
    891e:	d000      	beq.n	8922 <_vfprintf_r+0x60a>
    8920:	e28a      	b.n	8e38 <_vfprintf_r+0xb20>
    8922:	468a      	mov	sl, r1
    8924:	910c      	str	r1, [sp, #48]	; 0x30
    8926:	ae54      	add	r6, sp, #336	; 0x150
    8928:	e03d      	b.n	89a6 <_vfprintf_r+0x68e>
    892a:	46a1      	mov	r9, r4
    892c:	9311      	str	r3, [sp, #68]	; 0x44
    892e:	2410      	movs	r4, #16
    8930:	464b      	mov	r3, r9
    8932:	4323      	orrs	r3, r4
    8934:	46aa      	mov	sl, r5
    8936:	46b3      	mov	fp, r6
    8938:	001c      	movs	r4, r3
    893a:	06a3      	lsls	r3, r4, #26
    893c:	d400      	bmi.n	8940 <_vfprintf_r+0x628>
    893e:	e37c      	b.n	903a <_vfprintf_r+0xd22>
    8940:	2207      	movs	r2, #7
    8942:	9b0e      	ldr	r3, [sp, #56]	; 0x38
    8944:	3307      	adds	r3, #7
    8946:	4393      	bics	r3, r2
    8948:	0019      	movs	r1, r3
    894a:	c90c      	ldmia	r1!, {r2, r3}
    894c:	920a      	str	r2, [sp, #40]	; 0x28
    894e:	930b      	str	r3, [sp, #44]	; 0x2c
    8950:	2301      	movs	r3, #1
    8952:	910e      	str	r1, [sp, #56]	; 0x38
    8954:	2200      	movs	r2, #0
    8956:	a91a      	add	r1, sp, #104	; 0x68
    8958:	76ca      	strb	r2, [r1, #27]
    895a:	4652      	mov	r2, sl
    895c:	3201      	adds	r2, #1
    895e:	d100      	bne.n	8962 <_vfprintf_r+0x64a>
    8960:	e19b      	b.n	8c9a <_vfprintf_r+0x982>
    8962:	2280      	movs	r2, #128	; 0x80
    8964:	0021      	movs	r1, r4
    8966:	4391      	bics	r1, r2
    8968:	4689      	mov	r9, r1
    896a:	990a      	ldr	r1, [sp, #40]	; 0x28
    896c:	9a0b      	ldr	r2, [sp, #44]	; 0x2c
    896e:	0008      	movs	r0, r1
    8970:	4310      	orrs	r0, r2
    8972:	d000      	beq.n	8976 <_vfprintf_r+0x65e>
    8974:	e190      	b.n	8c98 <_vfprintf_r+0x980>
    8976:	4652      	mov	r2, sl
    8978:	2a00      	cmp	r2, #0
    897a:	d000      	beq.n	897e <_vfprintf_r+0x666>
    897c:	e18c      	b.n	8c98 <_vfprintf_r+0x980>
    897e:	2b00      	cmp	r3, #0
    8980:	d000      	beq.n	8984 <_vfprintf_r+0x66c>
    8982:	e254      	b.n	8e2e <_vfprintf_r+0xb16>
    8984:	3301      	adds	r3, #1
    8986:	001a      	movs	r2, r3
    8988:	4022      	ands	r2, r4
    898a:	920c      	str	r2, [sp, #48]	; 0x30
    898c:	4223      	tst	r3, r4
    898e:	d100      	bne.n	8992 <_vfprintf_r+0x67a>
    8990:	e2ef      	b.n	8f72 <_vfprintf_r+0xc5a>
    8992:	2130      	movs	r1, #48	; 0x30
    8994:	3362      	adds	r3, #98	; 0x62
    8996:	aa3b      	add	r2, sp, #236	; 0xec
    8998:	54d1      	strb	r1, [r2, r3]
    899a:	2300      	movs	r3, #0
    899c:	469a      	mov	sl, r3
    899e:	ab1a      	add	r3, sp, #104	; 0x68
    89a0:	26e7      	movs	r6, #231	; 0xe7
    89a2:	469c      	mov	ip, r3
    89a4:	4466      	add	r6, ip
    89a6:	4652      	mov	r2, sl
    89a8:	9207      	str	r2, [sp, #28]
    89aa:	9a0c      	ldr	r2, [sp, #48]	; 0x30
    89ac:	ab1a      	add	r3, sp, #104	; 0x68
    89ae:	7edb      	ldrb	r3, [r3, #27]
    89b0:	4592      	cmp	sl, r2
    89b2:	da00      	bge.n	89b6 <_vfprintf_r+0x69e>
    89b4:	9207      	str	r2, [sp, #28]
    89b6:	2200      	movs	r2, #0
    89b8:	920d      	str	r2, [sp, #52]	; 0x34
    89ba:	9215      	str	r2, [sp, #84]	; 0x54
    89bc:	9213      	str	r2, [sp, #76]	; 0x4c
    89be:	9212      	str	r2, [sp, #72]	; 0x48
    89c0:	2b00      	cmp	r3, #0
    89c2:	d100      	bne.n	89c6 <_vfprintf_r+0x6ae>
    89c4:	e599      	b.n	84fa <_vfprintf_r+0x1e2>
    89c6:	9a07      	ldr	r2, [sp, #28]
    89c8:	3201      	adds	r2, #1
    89ca:	9207      	str	r2, [sp, #28]
    89cc:	e595      	b.n	84fa <_vfprintf_r+0x1e2>
    89ce:	0022      	movs	r2, r4
    89d0:	9311      	str	r3, [sp, #68]	; 0x44
    89d2:	2310      	movs	r3, #16
    89d4:	431a      	orrs	r2, r3
    89d6:	46aa      	mov	sl, r5
    89d8:	46b3      	mov	fp, r6
    89da:	4691      	mov	r9, r2
    89dc:	464b      	mov	r3, r9
    89de:	069b      	lsls	r3, r3, #26
    89e0:	d400      	bmi.n	89e4 <_vfprintf_r+0x6cc>
    89e2:	e31f      	b.n	9024 <_vfprintf_r+0xd0c>
    89e4:	2307      	movs	r3, #7
    89e6:	9c0e      	ldr	r4, [sp, #56]	; 0x38
    89e8:	3407      	adds	r4, #7
    89ea:	439c      	bics	r4, r3
    89ec:	0022      	movs	r2, r4
    89ee:	ca18      	ldmia	r2!, {r3, r4}
    89f0:	930a      	str	r3, [sp, #40]	; 0x28
    89f2:	940b      	str	r4, [sp, #44]	; 0x2c
    89f4:	920e      	str	r2, [sp, #56]	; 0x38
    89f6:	464b      	mov	r3, r9
    89f8:	4cd3      	ldr	r4, [pc, #844]	; (8d48 <_vfprintf_r+0xa30>)
    89fa:	4023      	ands	r3, r4
    89fc:	001c      	movs	r4, r3
    89fe:	2300      	movs	r3, #0
    8a00:	e7a8      	b.n	8954 <_vfprintf_r+0x63c>
    8a02:	2308      	movs	r3, #8
    8a04:	431c      	orrs	r4, r3
    8a06:	9b06      	ldr	r3, [sp, #24]
    8a08:	781b      	ldrb	r3, [r3, #0]
    8a0a:	e511      	b.n	8430 <_vfprintf_r+0x118>
    8a0c:	0030      	movs	r0, r6
    8a0e:	f003 f927 	bl	bc60 <_localeconv_r>
    8a12:	6843      	ldr	r3, [r0, #4]
    8a14:	0018      	movs	r0, r3
    8a16:	931f      	str	r3, [sp, #124]	; 0x7c
    8a18:	f004 fb8c 	bl	d134 <strlen>
    8a1c:	4681      	mov	r9, r0
    8a1e:	901e      	str	r0, [sp, #120]	; 0x78
    8a20:	0030      	movs	r0, r6
    8a22:	f003 f91d 	bl	bc60 <_localeconv_r>
    8a26:	464a      	mov	r2, r9
    8a28:	6883      	ldr	r3, [r0, #8]
    8a2a:	931b      	str	r3, [sp, #108]	; 0x6c
    8a2c:	2a00      	cmp	r2, #0
    8a2e:	d100      	bne.n	8a32 <_vfprintf_r+0x71a>
    8a30:	e533      	b.n	849a <_vfprintf_r+0x182>
    8a32:	2b00      	cmp	r3, #0
    8a34:	d100      	bne.n	8a38 <_vfprintf_r+0x720>
    8a36:	e530      	b.n	849a <_vfprintf_r+0x182>
    8a38:	9b1b      	ldr	r3, [sp, #108]	; 0x6c
    8a3a:	781b      	ldrb	r3, [r3, #0]
    8a3c:	2b00      	cmp	r3, #0
    8a3e:	d100      	bne.n	8a42 <_vfprintf_r+0x72a>
    8a40:	e52b      	b.n	849a <_vfprintf_r+0x182>
    8a42:	2380      	movs	r3, #128	; 0x80
    8a44:	00db      	lsls	r3, r3, #3
    8a46:	431c      	orrs	r4, r3
    8a48:	9b06      	ldr	r3, [sp, #24]
    8a4a:	781b      	ldrb	r3, [r3, #0]
    8a4c:	e4f0      	b.n	8430 <_vfprintf_r+0x118>
    8a4e:	2301      	movs	r3, #1
    8a50:	431c      	orrs	r4, r3
    8a52:	9b06      	ldr	r3, [sp, #24]
    8a54:	781b      	ldrb	r3, [r3, #0]
    8a56:	e4eb      	b.n	8430 <_vfprintf_r+0x118>
    8a58:	9b06      	ldr	r3, [sp, #24]
    8a5a:	781b      	ldrb	r3, [r3, #0]
    8a5c:	2b68      	cmp	r3, #104	; 0x68
    8a5e:	d101      	bne.n	8a64 <_vfprintf_r+0x74c>
    8a60:	f000 fc76 	bl	9350 <_vfprintf_r+0x1038>
    8a64:	2240      	movs	r2, #64	; 0x40
    8a66:	4314      	orrs	r4, r2
    8a68:	e4e2      	b.n	8430 <_vfprintf_r+0x118>
    8a6a:	9b0e      	ldr	r3, [sp, #56]	; 0x38
    8a6c:	cb04      	ldmia	r3!, {r2}
    8a6e:	46a1      	mov	r9, r4
    8a70:	920a      	str	r2, [sp, #40]	; 0x28
    8a72:	2200      	movs	r2, #0
    8a74:	2402      	movs	r4, #2
    8a76:	920b      	str	r2, [sp, #44]	; 0x2c
    8a78:	464a      	mov	r2, r9
    8a7a:	2130      	movs	r1, #48	; 0x30
    8a7c:	4322      	orrs	r2, r4
    8a7e:	0014      	movs	r4, r2
    8a80:	aa21      	add	r2, sp, #132	; 0x84
    8a82:	7011      	strb	r1, [r2, #0]
    8a84:	3148      	adds	r1, #72	; 0x48
    8a86:	7051      	strb	r1, [r2, #1]
    8a88:	2278      	movs	r2, #120	; 0x78
    8a8a:	930e      	str	r3, [sp, #56]	; 0x38
    8a8c:	4baf      	ldr	r3, [pc, #700]	; (8d4c <_vfprintf_r+0xa34>)
    8a8e:	46aa      	mov	sl, r5
    8a90:	931c      	str	r3, [sp, #112]	; 0x70
    8a92:	46b3      	mov	fp, r6
    8a94:	2302      	movs	r3, #2
    8a96:	9211      	str	r2, [sp, #68]	; 0x44
    8a98:	e75c      	b.n	8954 <_vfprintf_r+0x63c>
    8a9a:	0023      	movs	r3, r4
    8a9c:	46b3      	mov	fp, r6
    8a9e:	069b      	lsls	r3, r3, #26
    8aa0:	d500      	bpl.n	8aa4 <_vfprintf_r+0x78c>
    8aa2:	e338      	b.n	9116 <_vfprintf_r+0xdfe>
    8aa4:	0023      	movs	r3, r4
    8aa6:	06db      	lsls	r3, r3, #27
    8aa8:	d501      	bpl.n	8aae <_vfprintf_r+0x796>
    8aaa:	f000 fd44 	bl	9536 <_vfprintf_r+0x121e>
    8aae:	0023      	movs	r3, r4
    8ab0:	065b      	lsls	r3, r3, #25
    8ab2:	d501      	bpl.n	8ab8 <_vfprintf_r+0x7a0>
    8ab4:	f000 febe 	bl	9834 <_vfprintf_r+0x151c>
    8ab8:	0023      	movs	r3, r4
    8aba:	059b      	lsls	r3, r3, #22
    8abc:	d401      	bmi.n	8ac2 <_vfprintf_r+0x7aa>
    8abe:	f000 fd3a 	bl	9536 <_vfprintf_r+0x121e>
    8ac2:	9c0e      	ldr	r4, [sp, #56]	; 0x38
    8ac4:	9a08      	ldr	r2, [sp, #32]
    8ac6:	cc08      	ldmia	r4!, {r3}
    8ac8:	701a      	strb	r2, [r3, #0]
    8aca:	940e      	str	r4, [sp, #56]	; 0x38
    8acc:	e479      	b.n	83c2 <_vfprintf_r+0xaa>
    8ace:	9b06      	ldr	r3, [sp, #24]
    8ad0:	781b      	ldrb	r3, [r3, #0]
    8ad2:	2b6c      	cmp	r3, #108	; 0x6c
    8ad4:	d101      	bne.n	8ada <_vfprintf_r+0x7c2>
    8ad6:	f000 fc33 	bl	9340 <_vfprintf_r+0x1028>
    8ada:	2210      	movs	r2, #16
    8adc:	4314      	orrs	r4, r2
    8ade:	e4a7      	b.n	8430 <_vfprintf_r+0x118>
    8ae0:	9b11      	ldr	r3, [sp, #68]	; 0x44
    8ae2:	2b65      	cmp	r3, #101	; 0x65
    8ae4:	dc00      	bgt.n	8ae8 <_vfprintf_r+0x7d0>
    8ae6:	e628      	b.n	873a <_vfprintf_r+0x422>
    8ae8:	2200      	movs	r2, #0
    8aea:	2300      	movs	r3, #0
    8aec:	9816      	ldr	r0, [sp, #88]	; 0x58
    8aee:	9917      	ldr	r1, [sp, #92]	; 0x5c
    8af0:	f007 ff76 	bl	109e0 <____aeabi_dcmpeq_from_thumb>
    8af4:	2800      	cmp	r0, #0
    8af6:	d100      	bne.n	8afa <_vfprintf_r+0x7e2>
    8af8:	e1b4      	b.n	8e64 <_vfprintf_r+0xb4c>
    8afa:	4b95      	ldr	r3, [pc, #596]	; (8d50 <_vfprintf_r+0xa38>)
    8afc:	603b      	str	r3, [r7, #0]
    8afe:	2301      	movs	r3, #1
    8b00:	607b      	str	r3, [r7, #4]
    8b02:	9b29      	ldr	r3, [sp, #164]	; 0xa4
    8b04:	3401      	adds	r4, #1
    8b06:	930c      	str	r3, [sp, #48]	; 0x30
    8b08:	3301      	adds	r3, #1
    8b0a:	942a      	str	r4, [sp, #168]	; 0xa8
    8b0c:	9329      	str	r3, [sp, #164]	; 0xa4
    8b0e:	2b07      	cmp	r3, #7
    8b10:	dd01      	ble.n	8b16 <_vfprintf_r+0x7fe>
    8b12:	f000 fcf5 	bl	9500 <_vfprintf_r+0x11e8>
    8b16:	3708      	adds	r7, #8
    8b18:	9b22      	ldr	r3, [sp, #136]	; 0x88
    8b1a:	9a14      	ldr	r2, [sp, #80]	; 0x50
    8b1c:	4293      	cmp	r3, r2
    8b1e:	db00      	blt.n	8b22 <_vfprintf_r+0x80a>
    8b20:	e2af      	b.n	9082 <_vfprintf_r+0xd6a>
    8b22:	9b1a      	ldr	r3, [sp, #104]	; 0x68
    8b24:	603b      	str	r3, [r7, #0]
    8b26:	9b19      	ldr	r3, [sp, #100]	; 0x64
    8b28:	469c      	mov	ip, r3
    8b2a:	607b      	str	r3, [r7, #4]
    8b2c:	9b29      	ldr	r3, [sp, #164]	; 0xa4
    8b2e:	4464      	add	r4, ip
    8b30:	930c      	str	r3, [sp, #48]	; 0x30
    8b32:	3301      	adds	r3, #1
    8b34:	942a      	str	r4, [sp, #168]	; 0xa8
    8b36:	9329      	str	r3, [sp, #164]	; 0xa4
    8b38:	2b07      	cmp	r3, #7
    8b3a:	dd01      	ble.n	8b40 <_vfprintf_r+0x828>
    8b3c:	f000 fc0b 	bl	9356 <_vfprintf_r+0x103e>
    8b40:	3708      	adds	r7, #8
    8b42:	9b14      	ldr	r3, [sp, #80]	; 0x50
    8b44:	1e5d      	subs	r5, r3, #1
    8b46:	2d00      	cmp	r5, #0
    8b48:	dc00      	bgt.n	8b4c <_vfprintf_r+0x834>
    8b4a:	e530      	b.n	85ae <_vfprintf_r+0x296>
    8b4c:	9b29      	ldr	r3, [sp, #164]	; 0xa4
    8b4e:	2d10      	cmp	r5, #16
    8b50:	dc01      	bgt.n	8b56 <_vfprintf_r+0x83e>
    8b52:	f001 f9ac 	bl	9eae <_vfprintf_r+0x1b96>
    8b56:	497f      	ldr	r1, [pc, #508]	; (8d54 <_vfprintf_r+0xa3c>)
    8b58:	0022      	movs	r2, r4
    8b5a:	2610      	movs	r6, #16
    8b5c:	000c      	movs	r4, r1
    8b5e:	910f      	str	r1, [sp, #60]	; 0x3c
    8b60:	e005      	b.n	8b6e <_vfprintf_r+0x856>
    8b62:	3708      	adds	r7, #8
    8b64:	3d10      	subs	r5, #16
    8b66:	2d10      	cmp	r5, #16
    8b68:	dc01      	bgt.n	8b6e <_vfprintf_r+0x856>
    8b6a:	f000 fcd6 	bl	951a <_vfprintf_r+0x1202>
    8b6e:	3210      	adds	r2, #16
    8b70:	3301      	adds	r3, #1
    8b72:	603c      	str	r4, [r7, #0]
    8b74:	607e      	str	r6, [r7, #4]
    8b76:	922a      	str	r2, [sp, #168]	; 0xa8
    8b78:	9329      	str	r3, [sp, #164]	; 0xa4
    8b7a:	2b07      	cmp	r3, #7
    8b7c:	ddf1      	ble.n	8b62 <_vfprintf_r+0x84a>
    8b7e:	4641      	mov	r1, r8
    8b80:	4658      	mov	r0, fp
    8b82:	aa28      	add	r2, sp, #160	; 0xa0
    8b84:	f004 fb86 	bl	d294 <__sprint_r>
    8b88:	2800      	cmp	r0, #0
    8b8a:	d000      	beq.n	8b8e <_vfprintf_r+0x876>
    8b8c:	e0b6      	b.n	8cfc <_vfprintf_r+0x9e4>
    8b8e:	9a2a      	ldr	r2, [sp, #168]	; 0xa8
    8b90:	9b29      	ldr	r3, [sp, #164]	; 0xa4
    8b92:	af2b      	add	r7, sp, #172	; 0xac
    8b94:	e7e6      	b.n	8b64 <_vfprintf_r+0x84c>
    8b96:	9b09      	ldr	r3, [sp, #36]	; 0x24
    8b98:	9a07      	ldr	r2, [sp, #28]
    8b9a:	1a9d      	subs	r5, r3, r2
    8b9c:	2d00      	cmp	r5, #0
    8b9e:	dc00      	bgt.n	8ba2 <_vfprintf_r+0x88a>
    8ba0:	e4ed      	b.n	857e <_vfprintf_r+0x266>
    8ba2:	9b29      	ldr	r3, [sp, #164]	; 0xa4
    8ba4:	2d10      	cmp	r5, #16
    8ba6:	dc01      	bgt.n	8bac <_vfprintf_r+0x894>
    8ba8:	f001 f8a9 	bl	9cfe <_vfprintf_r+0x19e6>
    8bac:	4869      	ldr	r0, [pc, #420]	; (8d54 <_vfprintf_r+0xa3c>)
    8bae:	003a      	movs	r2, r7
    8bb0:	0021      	movs	r1, r4
    8bb2:	4647      	mov	r7, r8
    8bb4:	0004      	movs	r4, r0
    8bb6:	46b0      	mov	r8, r6
    8bb8:	900f      	str	r0, [sp, #60]	; 0x3c
    8bba:	465e      	mov	r6, fp
    8bbc:	e003      	b.n	8bc6 <_vfprintf_r+0x8ae>
    8bbe:	3d10      	subs	r5, #16
    8bc0:	3208      	adds	r2, #8
    8bc2:	2d10      	cmp	r5, #16
    8bc4:	dd16      	ble.n	8bf4 <_vfprintf_r+0x8dc>
    8bc6:	2010      	movs	r0, #16
    8bc8:	3110      	adds	r1, #16
    8bca:	3301      	adds	r3, #1
    8bcc:	6014      	str	r4, [r2, #0]
    8bce:	6050      	str	r0, [r2, #4]
    8bd0:	912a      	str	r1, [sp, #168]	; 0xa8
    8bd2:	9329      	str	r3, [sp, #164]	; 0xa4
    8bd4:	2b07      	cmp	r3, #7
    8bd6:	ddf2      	ble.n	8bbe <_vfprintf_r+0x8a6>
    8bd8:	0039      	movs	r1, r7
    8bda:	0030      	movs	r0, r6
    8bdc:	aa28      	add	r2, sp, #160	; 0xa0
    8bde:	f004 fb59 	bl	d294 <__sprint_r>
    8be2:	2800      	cmp	r0, #0
    8be4:	d000      	beq.n	8be8 <_vfprintf_r+0x8d0>
    8be6:	e0e9      	b.n	8dbc <_vfprintf_r+0xaa4>
    8be8:	3d10      	subs	r5, #16
    8bea:	992a      	ldr	r1, [sp, #168]	; 0xa8
    8bec:	9b29      	ldr	r3, [sp, #164]	; 0xa4
    8bee:	aa2b      	add	r2, sp, #172	; 0xac
    8bf0:	2d10      	cmp	r5, #16
    8bf2:	dce8      	bgt.n	8bc6 <_vfprintf_r+0x8ae>
    8bf4:	46b3      	mov	fp, r6
    8bf6:	000c      	movs	r4, r1
    8bf8:	4646      	mov	r6, r8
    8bfa:	46b8      	mov	r8, r7
    8bfc:	0017      	movs	r7, r2
    8bfe:	9a0f      	ldr	r2, [sp, #60]	; 0x3c
    8c00:	1964      	adds	r4, r4, r5
    8c02:	3301      	adds	r3, #1
    8c04:	603a      	str	r2, [r7, #0]
    8c06:	607d      	str	r5, [r7, #4]
    8c08:	942a      	str	r4, [sp, #168]	; 0xa8
    8c0a:	9329      	str	r3, [sp, #164]	; 0xa4
    8c0c:	2b07      	cmp	r3, #7
    8c0e:	dd00      	ble.n	8c12 <_vfprintf_r+0x8fa>
    8c10:	e38a      	b.n	9328 <_vfprintf_r+0x1010>
    8c12:	4653      	mov	r3, sl
    8c14:	9a0c      	ldr	r2, [sp, #48]	; 0x30
    8c16:	3708      	adds	r7, #8
    8c18:	1a9d      	subs	r5, r3, r2
    8c1a:	2d00      	cmp	r5, #0
    8c1c:	dc00      	bgt.n	8c20 <_vfprintf_r+0x908>
    8c1e:	e4b4      	b.n	858a <_vfprintf_r+0x272>
    8c20:	9b29      	ldr	r3, [sp, #164]	; 0xa4
    8c22:	2d10      	cmp	r5, #16
    8c24:	dc01      	bgt.n	8c2a <_vfprintf_r+0x912>
    8c26:	f000 fd19 	bl	965c <_vfprintf_r+0x1344>
    8c2a:	2210      	movs	r2, #16
    8c2c:	4849      	ldr	r0, [pc, #292]	; (8d54 <_vfprintf_r+0xa3c>)
    8c2e:	4692      	mov	sl, r2
    8c30:	0021      	movs	r1, r4
    8c32:	003a      	movs	r2, r7
    8c34:	0004      	movs	r4, r0
    8c36:	4647      	mov	r7, r8
    8c38:	900f      	str	r0, [sp, #60]	; 0x3c
    8c3a:	46b0      	mov	r8, r6
    8c3c:	465e      	mov	r6, fp
    8c3e:	e003      	b.n	8c48 <_vfprintf_r+0x930>
    8c40:	3d10      	subs	r5, #16
    8c42:	3208      	adds	r2, #8
    8c44:	2d10      	cmp	r5, #16
    8c46:	dd16      	ble.n	8c76 <_vfprintf_r+0x95e>
    8c48:	4650      	mov	r0, sl
    8c4a:	3110      	adds	r1, #16
    8c4c:	3301      	adds	r3, #1
    8c4e:	6014      	str	r4, [r2, #0]
    8c50:	6050      	str	r0, [r2, #4]
    8c52:	912a      	str	r1, [sp, #168]	; 0xa8
    8c54:	9329      	str	r3, [sp, #164]	; 0xa4
    8c56:	2b07      	cmp	r3, #7
    8c58:	ddf2      	ble.n	8c40 <_vfprintf_r+0x928>
    8c5a:	0039      	movs	r1, r7
    8c5c:	0030      	movs	r0, r6
    8c5e:	aa28      	add	r2, sp, #160	; 0xa0
    8c60:	f004 fb18 	bl	d294 <__sprint_r>
    8c64:	2800      	cmp	r0, #0
    8c66:	d000      	beq.n	8c6a <_vfprintf_r+0x952>
    8c68:	e0a8      	b.n	8dbc <_vfprintf_r+0xaa4>
    8c6a:	3d10      	subs	r5, #16
    8c6c:	992a      	ldr	r1, [sp, #168]	; 0xa8
    8c6e:	9b29      	ldr	r3, [sp, #164]	; 0xa4
    8c70:	aa2b      	add	r2, sp, #172	; 0xac
    8c72:	2d10      	cmp	r5, #16
    8c74:	dce8      	bgt.n	8c48 <_vfprintf_r+0x930>
    8c76:	46b3      	mov	fp, r6
    8c78:	000c      	movs	r4, r1
    8c7a:	4646      	mov	r6, r8
    8c7c:	46b8      	mov	r8, r7
    8c7e:	0017      	movs	r7, r2
    8c80:	9a0f      	ldr	r2, [sp, #60]	; 0x3c
    8c82:	1964      	adds	r4, r4, r5
    8c84:	3301      	adds	r3, #1
    8c86:	603a      	str	r2, [r7, #0]
    8c88:	607d      	str	r5, [r7, #4]
    8c8a:	942a      	str	r4, [sp, #168]	; 0xa8
    8c8c:	9329      	str	r3, [sp, #164]	; 0xa4
    8c8e:	2b07      	cmp	r3, #7
    8c90:	dd00      	ble.n	8c94 <_vfprintf_r+0x97c>
    8c92:	e1bb      	b.n	900c <_vfprintf_r+0xcf4>
    8c94:	3708      	adds	r7, #8
    8c96:	e478      	b.n	858a <_vfprintf_r+0x272>
    8c98:	464c      	mov	r4, r9
    8c9a:	2b01      	cmp	r3, #1
    8c9c:	d100      	bne.n	8ca0 <_vfprintf_r+0x988>
    8c9e:	e0cc      	b.n	8e3a <_vfprintf_r+0xb22>
    8ca0:	ae54      	add	r6, sp, #336	; 0x150
    8ca2:	2b02      	cmp	r3, #2
    8ca4:	d100      	bne.n	8ca8 <_vfprintf_r+0x990>
    8ca6:	e06d      	b.n	8d84 <_vfprintf_r+0xa6c>
    8ca8:	2507      	movs	r5, #7
    8caa:	46b9      	mov	r9, r7
    8cac:	9407      	str	r4, [sp, #28]
    8cae:	9a0a      	ldr	r2, [sp, #40]	; 0x28
    8cb0:	9b0b      	ldr	r3, [sp, #44]	; 0x2c
    8cb2:	075f      	lsls	r7, r3, #29
    8cb4:	08d4      	lsrs	r4, r2, #3
    8cb6:	0029      	movs	r1, r5
    8cb8:	08d8      	lsrs	r0, r3, #3
    8cba:	4327      	orrs	r7, r4
    8cbc:	0003      	movs	r3, r0
    8cbe:	0038      	movs	r0, r7
    8cc0:	4011      	ands	r1, r2
    8cc2:	46b4      	mov	ip, r6
    8cc4:	3130      	adds	r1, #48	; 0x30
    8cc6:	3e01      	subs	r6, #1
    8cc8:	003a      	movs	r2, r7
    8cca:	7031      	strb	r1, [r6, #0]
    8ccc:	4318      	orrs	r0, r3
    8cce:	d1f0      	bne.n	8cb2 <_vfprintf_r+0x99a>
    8cd0:	464f      	mov	r7, r9
    8cd2:	920a      	str	r2, [sp, #40]	; 0x28
    8cd4:	930b      	str	r3, [sp, #44]	; 0x2c
    8cd6:	9c07      	ldr	r4, [sp, #28]
    8cd8:	2930      	cmp	r1, #48	; 0x30
    8cda:	d002      	beq.n	8ce2 <_vfprintf_r+0x9ca>
    8cdc:	07e3      	lsls	r3, r4, #31
    8cde:	d500      	bpl.n	8ce2 <_vfprintf_r+0x9ca>
    8ce0:	e23d      	b.n	915e <_vfprintf_r+0xe46>
    8ce2:	ab54      	add	r3, sp, #336	; 0x150
    8ce4:	1b9b      	subs	r3, r3, r6
    8ce6:	46a1      	mov	r9, r4
    8ce8:	930c      	str	r3, [sp, #48]	; 0x30
    8cea:	e65c      	b.n	89a6 <_vfprintf_r+0x68e>
    8cec:	4641      	mov	r1, r8
    8cee:	4658      	mov	r0, fp
    8cf0:	aa28      	add	r2, sp, #160	; 0xa0
    8cf2:	f004 facf 	bl	d294 <__sprint_r>
    8cf6:	2800      	cmp	r0, #0
    8cf8:	d100      	bne.n	8cfc <_vfprintf_r+0x9e4>
    8cfa:	e46f      	b.n	85dc <_vfprintf_r+0x2c4>
    8cfc:	46d9      	mov	r9, fp
    8cfe:	46c3      	mov	fp, r8
    8d00:	990d      	ldr	r1, [sp, #52]	; 0x34
    8d02:	2900      	cmp	r1, #0
    8d04:	d002      	beq.n	8d0c <_vfprintf_r+0x9f4>
    8d06:	4648      	mov	r0, r9
    8d08:	f002 fe78 	bl	b9fc <_free_r>
    8d0c:	465b      	mov	r3, fp
    8d0e:	6e5b      	ldr	r3, [r3, #100]	; 0x64
    8d10:	07db      	lsls	r3, r3, #31
    8d12:	d415      	bmi.n	8d40 <_vfprintf_r+0xa28>
    8d14:	465b      	mov	r3, fp
    8d16:	899b      	ldrh	r3, [r3, #12]
    8d18:	059a      	lsls	r2, r3, #22
    8d1a:	d50d      	bpl.n	8d38 <_vfprintf_r+0xa20>
    8d1c:	065b      	lsls	r3, r3, #25
    8d1e:	d501      	bpl.n	8d24 <_vfprintf_r+0xa0c>
    8d20:	f000 ffce 	bl	9cc0 <_vfprintf_r+0x19a8>
    8d24:	9808      	ldr	r0, [sp, #32]
    8d26:	b055      	add	sp, #340	; 0x154
    8d28:	bcf0      	pop	{r4, r5, r6, r7}
    8d2a:	46bb      	mov	fp, r7
    8d2c:	46b2      	mov	sl, r6
    8d2e:	46a9      	mov	r9, r5
    8d30:	46a0      	mov	r8, r4
    8d32:	bcf0      	pop	{r4, r5, r6, r7}
    8d34:	bc02      	pop	{r1}
    8d36:	4708      	bx	r1
    8d38:	465b      	mov	r3, fp
    8d3a:	6d98      	ldr	r0, [r3, #88]	; 0x58
    8d3c:	f002 ffaa 	bl	bc94 <__retarget_lock_release_recursive>
    8d40:	465b      	mov	r3, fp
    8d42:	899b      	ldrh	r3, [r3, #12]
    8d44:	e7ea      	b.n	8d1c <_vfprintf_r+0xa04>
    8d46:	46c0      	nop			; (mov r8, r8)
    8d48:	fffffbff 	.word	0xfffffbff
    8d4c:	00010ae4 	.word	0x00010ae4
    8d50:	00010b14 	.word	0x00010b14
    8d54:	00010c94 	.word	0x00010c94
    8d58:	4641      	mov	r1, r8
    8d5a:	4658      	mov	r0, fp
    8d5c:	aa28      	add	r2, sp, #160	; 0xa0
    8d5e:	f004 fa99 	bl	d294 <__sprint_r>
    8d62:	2800      	cmp	r0, #0
    8d64:	d1ca      	bne.n	8cfc <_vfprintf_r+0x9e4>
    8d66:	9c2a      	ldr	r4, [sp, #168]	; 0xa8
    8d68:	af2b      	add	r7, sp, #172	; 0xac
    8d6a:	f7ff fbf2 	bl	8552 <_vfprintf_r+0x23a>
    8d6e:	4641      	mov	r1, r8
    8d70:	4658      	mov	r0, fp
    8d72:	aa28      	add	r2, sp, #160	; 0xa0
    8d74:	f004 fa8e 	bl	d294 <__sprint_r>
    8d78:	2800      	cmp	r0, #0
    8d7a:	d1bf      	bne.n	8cfc <_vfprintf_r+0x9e4>
    8d7c:	9c2a      	ldr	r4, [sp, #168]	; 0xa8
    8d7e:	af2b      	add	r7, sp, #172	; 0xac
    8d80:	f7ff fbf9 	bl	8576 <_vfprintf_r+0x25e>
    8d84:	200f      	movs	r0, #15
    8d86:	46a4      	mov	ip, r4
    8d88:	9b1c      	ldr	r3, [sp, #112]	; 0x70
    8d8a:	4699      	mov	r9, r3
    8d8c:	9a0a      	ldr	r2, [sp, #40]	; 0x28
    8d8e:	9b0b      	ldr	r3, [sp, #44]	; 0x2c
    8d90:	0001      	movs	r1, r0
    8d92:	464c      	mov	r4, r9
    8d94:	4011      	ands	r1, r2
    8d96:	5c61      	ldrb	r1, [r4, r1]
    8d98:	0915      	lsrs	r5, r2, #4
    8d9a:	071c      	lsls	r4, r3, #28
    8d9c:	3e01      	subs	r6, #1
    8d9e:	432c      	orrs	r4, r5
    8da0:	7031      	strb	r1, [r6, #0]
    8da2:	0919      	lsrs	r1, r3, #4
    8da4:	000b      	movs	r3, r1
    8da6:	0021      	movs	r1, r4
    8da8:	0022      	movs	r2, r4
    8daa:	4319      	orrs	r1, r3
    8dac:	d1f0      	bne.n	8d90 <_vfprintf_r+0xa78>
    8dae:	920a      	str	r2, [sp, #40]	; 0x28
    8db0:	930b      	str	r3, [sp, #44]	; 0x2c
    8db2:	ab54      	add	r3, sp, #336	; 0x150
    8db4:	1b9b      	subs	r3, r3, r6
    8db6:	46e1      	mov	r9, ip
    8db8:	930c      	str	r3, [sp, #48]	; 0x30
    8dba:	e5f4      	b.n	89a6 <_vfprintf_r+0x68e>
    8dbc:	46b1      	mov	r9, r6
    8dbe:	46bb      	mov	fp, r7
    8dc0:	e79e      	b.n	8d00 <_vfprintf_r+0x9e8>
    8dc2:	9b29      	ldr	r3, [sp, #164]	; 0xa4
    8dc4:	4ddf      	ldr	r5, [pc, #892]	; (9144 <_vfprintf_r+0xe2c>)
    8dc6:	2e10      	cmp	r6, #16
    8dc8:	dd1d      	ble.n	8e06 <_vfprintf_r+0xaee>
    8dca:	2210      	movs	r2, #16
    8dcc:	4691      	mov	r9, r2
    8dce:	e003      	b.n	8dd8 <_vfprintf_r+0xac0>
    8dd0:	3e10      	subs	r6, #16
    8dd2:	3708      	adds	r7, #8
    8dd4:	2e10      	cmp	r6, #16
    8dd6:	dd16      	ble.n	8e06 <_vfprintf_r+0xaee>
    8dd8:	464a      	mov	r2, r9
    8dda:	3410      	adds	r4, #16
    8ddc:	3301      	adds	r3, #1
    8dde:	603d      	str	r5, [r7, #0]
    8de0:	607a      	str	r2, [r7, #4]
    8de2:	942a      	str	r4, [sp, #168]	; 0xa8
    8de4:	9329      	str	r3, [sp, #164]	; 0xa4
    8de6:	2b07      	cmp	r3, #7
    8de8:	ddf2      	ble.n	8dd0 <_vfprintf_r+0xab8>
    8dea:	4641      	mov	r1, r8
    8dec:	4658      	mov	r0, fp
    8dee:	aa28      	add	r2, sp, #160	; 0xa0
    8df0:	f004 fa50 	bl	d294 <__sprint_r>
    8df4:	2800      	cmp	r0, #0
    8df6:	d000      	beq.n	8dfa <_vfprintf_r+0xae2>
    8df8:	e780      	b.n	8cfc <_vfprintf_r+0x9e4>
    8dfa:	3e10      	subs	r6, #16
    8dfc:	9c2a      	ldr	r4, [sp, #168]	; 0xa8
    8dfe:	9b29      	ldr	r3, [sp, #164]	; 0xa4
    8e00:	af2b      	add	r7, sp, #172	; 0xac
    8e02:	2e10      	cmp	r6, #16
    8e04:	dce8      	bgt.n	8dd8 <_vfprintf_r+0xac0>
    8e06:	19a4      	adds	r4, r4, r6
    8e08:	3301      	adds	r3, #1
    8e0a:	c760      	stmia	r7!, {r5, r6}
    8e0c:	942a      	str	r4, [sp, #168]	; 0xa8
    8e0e:	9329      	str	r3, [sp, #164]	; 0xa4
    8e10:	2b07      	cmp	r3, #7
    8e12:	dc01      	bgt.n	8e18 <_vfprintf_r+0xb00>
    8e14:	f7ff fbd5 	bl	85c2 <_vfprintf_r+0x2aa>
    8e18:	4641      	mov	r1, r8
    8e1a:	4658      	mov	r0, fp
    8e1c:	aa28      	add	r2, sp, #160	; 0xa0
    8e1e:	f004 fa39 	bl	d294 <__sprint_r>
    8e22:	2800      	cmp	r0, #0
    8e24:	d000      	beq.n	8e28 <_vfprintf_r+0xb10>
    8e26:	e769      	b.n	8cfc <_vfprintf_r+0x9e4>
    8e28:	9c2a      	ldr	r4, [sp, #168]	; 0xa8
    8e2a:	f7ff fbca 	bl	85c2 <_vfprintf_r+0x2aa>
    8e2e:	2300      	movs	r3, #0
    8e30:	ae54      	add	r6, sp, #336	; 0x150
    8e32:	469a      	mov	sl, r3
    8e34:	930c      	str	r3, [sp, #48]	; 0x30
    8e36:	e5b6      	b.n	89a6 <_vfprintf_r+0x68e>
    8e38:	464c      	mov	r4, r9
    8e3a:	9a0a      	ldr	r2, [sp, #40]	; 0x28
    8e3c:	9b0b      	ldr	r3, [sp, #44]	; 0x2c
    8e3e:	2b00      	cmp	r3, #0
    8e40:	d000      	beq.n	8e44 <_vfprintf_r+0xb2c>
    8e42:	e2e2      	b.n	940a <_vfprintf_r+0x10f2>
    8e44:	2a09      	cmp	r2, #9
    8e46:	d900      	bls.n	8e4a <_vfprintf_r+0xb32>
    8e48:	e2df      	b.n	940a <_vfprintf_r+0x10f2>
    8e4a:	2263      	movs	r2, #99	; 0x63
    8e4c:	9b0a      	ldr	r3, [sp, #40]	; 0x28
    8e4e:	a93b      	add	r1, sp, #236	; 0xec
    8e50:	3330      	adds	r3, #48	; 0x30
    8e52:	548b      	strb	r3, [r1, r2]
    8e54:	2301      	movs	r3, #1
    8e56:	930c      	str	r3, [sp, #48]	; 0x30
    8e58:	ab1a      	add	r3, sp, #104	; 0x68
    8e5a:	26e7      	movs	r6, #231	; 0xe7
    8e5c:	469c      	mov	ip, r3
    8e5e:	46a1      	mov	r9, r4
    8e60:	4466      	add	r6, ip
    8e62:	e5a0      	b.n	89a6 <_vfprintf_r+0x68e>
    8e64:	9922      	ldr	r1, [sp, #136]	; 0x88
    8e66:	2900      	cmp	r1, #0
    8e68:	dc00      	bgt.n	8e6c <_vfprintf_r+0xb54>
    8e6a:	e11b      	b.n	90a4 <_vfprintf_r+0xd8c>
    8e6c:	9a12      	ldr	r2, [sp, #72]	; 0x48
    8e6e:	9b14      	ldr	r3, [sp, #80]	; 0x50
    8e70:	0015      	movs	r5, r2
    8e72:	429a      	cmp	r2, r3
    8e74:	dd00      	ble.n	8e78 <_vfprintf_r+0xb60>
    8e76:	001d      	movs	r5, r3
    8e78:	2d00      	cmp	r5, #0
    8e7a:	dd0c      	ble.n	8e96 <_vfprintf_r+0xb7e>
    8e7c:	9b29      	ldr	r3, [sp, #164]	; 0xa4
    8e7e:	1964      	adds	r4, r4, r5
    8e80:	930c      	str	r3, [sp, #48]	; 0x30
    8e82:	3301      	adds	r3, #1
    8e84:	603e      	str	r6, [r7, #0]
    8e86:	607d      	str	r5, [r7, #4]
    8e88:	942a      	str	r4, [sp, #168]	; 0xa8
    8e8a:	9329      	str	r3, [sp, #164]	; 0xa4
    8e8c:	2b07      	cmp	r3, #7
    8e8e:	dd01      	ble.n	8e94 <_vfprintf_r+0xb7c>
    8e90:	f000 fe6c 	bl	9b6c <_vfprintf_r+0x1854>
    8e94:	3708      	adds	r7, #8
    8e96:	43eb      	mvns	r3, r5
    8e98:	17db      	asrs	r3, r3, #31
    8e9a:	401d      	ands	r5, r3
    8e9c:	9b12      	ldr	r3, [sp, #72]	; 0x48
    8e9e:	1b5d      	subs	r5, r3, r5
    8ea0:	2d00      	cmp	r5, #0
    8ea2:	dd00      	ble.n	8ea6 <_vfprintf_r+0xb8e>
    8ea4:	e359      	b.n	955a <_vfprintf_r+0x1242>
    8ea6:	9b12      	ldr	r3, [sp, #72]	; 0x48
    8ea8:	469c      	mov	ip, r3
    8eaa:	464b      	mov	r3, r9
    8eac:	44b4      	add	ip, r6
    8eae:	4665      	mov	r5, ip
    8eb0:	055b      	lsls	r3, r3, #21
    8eb2:	d501      	bpl.n	8eb8 <_vfprintf_r+0xba0>
    8eb4:	f000 fd96 	bl	99e4 <_vfprintf_r+0x16cc>
    8eb8:	9b22      	ldr	r3, [sp, #136]	; 0x88
    8eba:	9a14      	ldr	r2, [sp, #80]	; 0x50
    8ebc:	4293      	cmp	r3, r2
    8ebe:	db04      	blt.n	8eca <_vfprintf_r+0xbb2>
    8ec0:	464a      	mov	r2, r9
    8ec2:	07d2      	lsls	r2, r2, #31
    8ec4:	d401      	bmi.n	8eca <_vfprintf_r+0xbb2>
    8ec6:	f000 fca8 	bl	981a <_vfprintf_r+0x1502>
    8eca:	9a1a      	ldr	r2, [sp, #104]	; 0x68
    8ecc:	603a      	str	r2, [r7, #0]
    8ece:	9a19      	ldr	r2, [sp, #100]	; 0x64
    8ed0:	4694      	mov	ip, r2
    8ed2:	607a      	str	r2, [r7, #4]
    8ed4:	9a29      	ldr	r2, [sp, #164]	; 0xa4
    8ed6:	4464      	add	r4, ip
    8ed8:	920c      	str	r2, [sp, #48]	; 0x30
    8eda:	3201      	adds	r2, #1
    8edc:	942a      	str	r4, [sp, #168]	; 0xa8
    8ede:	9229      	str	r2, [sp, #164]	; 0xa4
    8ee0:	2a07      	cmp	r2, #7
    8ee2:	dd01      	ble.n	8ee8 <_vfprintf_r+0xbd0>
    8ee4:	f000 fe76 	bl	9bd4 <_vfprintf_r+0x18bc>
    8ee8:	3708      	adds	r7, #8
    8eea:	9914      	ldr	r1, [sp, #80]	; 0x50
    8eec:	468c      	mov	ip, r1
    8eee:	1acb      	subs	r3, r1, r3
    8ef0:	4466      	add	r6, ip
    8ef2:	1b72      	subs	r2, r6, r5
    8ef4:	001e      	movs	r6, r3
    8ef6:	4293      	cmp	r3, r2
    8ef8:	dd00      	ble.n	8efc <_vfprintf_r+0xbe4>
    8efa:	0016      	movs	r6, r2
    8efc:	2e00      	cmp	r6, #0
    8efe:	dd0c      	ble.n	8f1a <_vfprintf_r+0xc02>
    8f00:	9a29      	ldr	r2, [sp, #164]	; 0xa4
    8f02:	19a4      	adds	r4, r4, r6
    8f04:	920c      	str	r2, [sp, #48]	; 0x30
    8f06:	3201      	adds	r2, #1
    8f08:	603d      	str	r5, [r7, #0]
    8f0a:	607e      	str	r6, [r7, #4]
    8f0c:	942a      	str	r4, [sp, #168]	; 0xa8
    8f0e:	9229      	str	r2, [sp, #164]	; 0xa4
    8f10:	2a07      	cmp	r2, #7
    8f12:	dd01      	ble.n	8f18 <_vfprintf_r+0xc00>
    8f14:	f000 fe73 	bl	9bfe <_vfprintf_r+0x18e6>
    8f18:	3708      	adds	r7, #8
    8f1a:	43f5      	mvns	r5, r6
    8f1c:	17ed      	asrs	r5, r5, #31
    8f1e:	4035      	ands	r5, r6
    8f20:	1b5d      	subs	r5, r3, r5
    8f22:	2d00      	cmp	r5, #0
    8f24:	dc01      	bgt.n	8f2a <_vfprintf_r+0xc12>
    8f26:	f7ff fb42 	bl	85ae <_vfprintf_r+0x296>
    8f2a:	9b29      	ldr	r3, [sp, #164]	; 0xa4
    8f2c:	2d10      	cmp	r5, #16
    8f2e:	dc01      	bgt.n	8f34 <_vfprintf_r+0xc1c>
    8f30:	f000 ffbd 	bl	9eae <_vfprintf_r+0x1b96>
    8f34:	4984      	ldr	r1, [pc, #528]	; (9148 <_vfprintf_r+0xe30>)
    8f36:	0022      	movs	r2, r4
    8f38:	2610      	movs	r6, #16
    8f3a:	000c      	movs	r4, r1
    8f3c:	910f      	str	r1, [sp, #60]	; 0x3c
    8f3e:	e004      	b.n	8f4a <_vfprintf_r+0xc32>
    8f40:	3708      	adds	r7, #8
    8f42:	3d10      	subs	r5, #16
    8f44:	2d10      	cmp	r5, #16
    8f46:	dc00      	bgt.n	8f4a <_vfprintf_r+0xc32>
    8f48:	e2e7      	b.n	951a <_vfprintf_r+0x1202>
    8f4a:	3210      	adds	r2, #16
    8f4c:	3301      	adds	r3, #1
    8f4e:	603c      	str	r4, [r7, #0]
    8f50:	607e      	str	r6, [r7, #4]
    8f52:	922a      	str	r2, [sp, #168]	; 0xa8
    8f54:	9329      	str	r3, [sp, #164]	; 0xa4
    8f56:	2b07      	cmp	r3, #7
    8f58:	ddf2      	ble.n	8f40 <_vfprintf_r+0xc28>
    8f5a:	4641      	mov	r1, r8
    8f5c:	4658      	mov	r0, fp
    8f5e:	aa28      	add	r2, sp, #160	; 0xa0
    8f60:	f004 f998 	bl	d294 <__sprint_r>
    8f64:	2800      	cmp	r0, #0
    8f66:	d000      	beq.n	8f6a <_vfprintf_r+0xc52>
    8f68:	e6c8      	b.n	8cfc <_vfprintf_r+0x9e4>
    8f6a:	9a2a      	ldr	r2, [sp, #168]	; 0xa8
    8f6c:	9b29      	ldr	r3, [sp, #164]	; 0xa4
    8f6e:	af2b      	add	r7, sp, #172	; 0xac
    8f70:	e7e7      	b.n	8f42 <_vfprintf_r+0xc2a>
    8f72:	2300      	movs	r3, #0
    8f74:	ae54      	add	r6, sp, #336	; 0x150
    8f76:	469a      	mov	sl, r3
    8f78:	e515      	b.n	89a6 <_vfprintf_r+0x68e>
    8f7a:	2301      	movs	r3, #1
    8f7c:	464a      	mov	r2, r9
    8f7e:	4213      	tst	r3, r2
    8f80:	d001      	beq.n	8f86 <_vfprintf_r+0xc6e>
    8f82:	f7ff fbe0 	bl	8746 <_vfprintf_r+0x42e>
    8f86:	607b      	str	r3, [r7, #4]
    8f88:	9b29      	ldr	r3, [sp, #164]	; 0xa4
    8f8a:	3401      	adds	r4, #1
    8f8c:	1c5d      	adds	r5, r3, #1
    8f8e:	942a      	str	r4, [sp, #168]	; 0xa8
    8f90:	930c      	str	r3, [sp, #48]	; 0x30
    8f92:	9529      	str	r5, [sp, #164]	; 0xa4
    8f94:	2d07      	cmp	r5, #7
    8f96:	dc01      	bgt.n	8f9c <_vfprintf_r+0xc84>
    8f98:	f7ff fc07 	bl	87aa <_vfprintf_r+0x492>
    8f9c:	4641      	mov	r1, r8
    8f9e:	4658      	mov	r0, fp
    8fa0:	aa28      	add	r2, sp, #160	; 0xa0
    8fa2:	f004 f977 	bl	d294 <__sprint_r>
    8fa6:	2800      	cmp	r0, #0
    8fa8:	d000      	beq.n	8fac <_vfprintf_r+0xc94>
    8faa:	e6a7      	b.n	8cfc <_vfprintf_r+0x9e4>
    8fac:	9c2a      	ldr	r4, [sp, #168]	; 0xa8
    8fae:	9d29      	ldr	r5, [sp, #164]	; 0xa4
    8fb0:	af2b      	add	r7, sp, #172	; 0xac
    8fb2:	f7ff fbfb 	bl	87ac <_vfprintf_r+0x494>
    8fb6:	9b14      	ldr	r3, [sp, #80]	; 0x50
    8fb8:	1e5e      	subs	r6, r3, #1
    8fba:	2e00      	cmp	r6, #0
    8fbc:	dc01      	bgt.n	8fc2 <_vfprintf_r+0xcaa>
    8fbe:	f7ff fbf5 	bl	87ac <_vfprintf_r+0x494>
    8fc2:	2e10      	cmp	r6, #16
    8fc4:	dc01      	bgt.n	8fca <_vfprintf_r+0xcb2>
    8fc6:	f000 ff92 	bl	9eee <_vfprintf_r+0x1bd6>
    8fca:	2310      	movs	r3, #16
    8fcc:	4a5e      	ldr	r2, [pc, #376]	; (9148 <_vfprintf_r+0xe30>)
    8fce:	469a      	mov	sl, r3
    8fd0:	920f      	str	r2, [sp, #60]	; 0x3c
    8fd2:	0023      	movs	r3, r4
    8fd4:	0014      	movs	r4, r2
    8fd6:	e004      	b.n	8fe2 <_vfprintf_r+0xcca>
    8fd8:	3708      	adds	r7, #8
    8fda:	3e10      	subs	r6, #16
    8fdc:	2e10      	cmp	r6, #16
    8fde:	dc00      	bgt.n	8fe2 <_vfprintf_r+0xcca>
    8fe0:	e2fb      	b.n	95da <_vfprintf_r+0x12c2>
    8fe2:	4652      	mov	r2, sl
    8fe4:	3310      	adds	r3, #16
    8fe6:	3501      	adds	r5, #1
    8fe8:	603c      	str	r4, [r7, #0]
    8fea:	607a      	str	r2, [r7, #4]
    8fec:	932a      	str	r3, [sp, #168]	; 0xa8
    8fee:	9529      	str	r5, [sp, #164]	; 0xa4
    8ff0:	2d07      	cmp	r5, #7
    8ff2:	ddf1      	ble.n	8fd8 <_vfprintf_r+0xcc0>
    8ff4:	4641      	mov	r1, r8
    8ff6:	4658      	mov	r0, fp
    8ff8:	aa28      	add	r2, sp, #160	; 0xa0
    8ffa:	f004 f94b 	bl	d294 <__sprint_r>
    8ffe:	2800      	cmp	r0, #0
    9000:	d000      	beq.n	9004 <_vfprintf_r+0xcec>
    9002:	e67b      	b.n	8cfc <_vfprintf_r+0x9e4>
    9004:	9b2a      	ldr	r3, [sp, #168]	; 0xa8
    9006:	9d29      	ldr	r5, [sp, #164]	; 0xa4
    9008:	af2b      	add	r7, sp, #172	; 0xac
    900a:	e7e6      	b.n	8fda <_vfprintf_r+0xcc2>
    900c:	4641      	mov	r1, r8
    900e:	4658      	mov	r0, fp
    9010:	aa28      	add	r2, sp, #160	; 0xa0
    9012:	f004 f93f 	bl	d294 <__sprint_r>
    9016:	2800      	cmp	r0, #0
    9018:	d000      	beq.n	901c <_vfprintf_r+0xd04>
    901a:	e66f      	b.n	8cfc <_vfprintf_r+0x9e4>
    901c:	9c2a      	ldr	r4, [sp, #168]	; 0xa8
    901e:	af2b      	add	r7, sp, #172	; 0xac
    9020:	f7ff fab3 	bl	858a <_vfprintf_r+0x272>
    9024:	464b      	mov	r3, r9
    9026:	06db      	lsls	r3, r3, #27
    9028:	d400      	bmi.n	902c <_vfprintf_r+0xd14>
    902a:	e07d      	b.n	9128 <_vfprintf_r+0xe10>
    902c:	9c0e      	ldr	r4, [sp, #56]	; 0x38
    902e:	cc08      	ldmia	r4!, {r3}
    9030:	930a      	str	r3, [sp, #40]	; 0x28
    9032:	2300      	movs	r3, #0
    9034:	940e      	str	r4, [sp, #56]	; 0x38
    9036:	930b      	str	r3, [sp, #44]	; 0x2c
    9038:	e4dd      	b.n	89f6 <_vfprintf_r+0x6de>
    903a:	06e3      	lsls	r3, r4, #27
    903c:	d400      	bmi.n	9040 <_vfprintf_r+0xd28>
    903e:	e16b      	b.n	9318 <_vfprintf_r+0x1000>
    9040:	9b0e      	ldr	r3, [sp, #56]	; 0x38
    9042:	cb04      	ldmia	r3!, {r2}
    9044:	920a      	str	r2, [sp, #40]	; 0x28
    9046:	2200      	movs	r2, #0
    9048:	930e      	str	r3, [sp, #56]	; 0x38
    904a:	920b      	str	r2, [sp, #44]	; 0x2c
    904c:	2301      	movs	r3, #1
    904e:	e481      	b.n	8954 <_vfprintf_r+0x63c>
    9050:	464b      	mov	r3, r9
    9052:	06db      	lsls	r3, r3, #27
    9054:	d400      	bmi.n	9058 <_vfprintf_r+0xd40>
    9056:	e151      	b.n	92fc <_vfprintf_r+0xfe4>
    9058:	9c0e      	ldr	r4, [sp, #56]	; 0x38
    905a:	cc08      	ldmia	r4!, {r3}
    905c:	930a      	str	r3, [sp, #40]	; 0x28
    905e:	17db      	asrs	r3, r3, #31
    9060:	930b      	str	r3, [sp, #44]	; 0x2c
    9062:	940e      	str	r4, [sp, #56]	; 0x38
    9064:	d400      	bmi.n	9068 <_vfprintf_r+0xd50>
    9066:	e44a      	b.n	88fe <_vfprintf_r+0x5e6>
    9068:	990a      	ldr	r1, [sp, #40]	; 0x28
    906a:	9a0b      	ldr	r2, [sp, #44]	; 0x2c
    906c:	2400      	movs	r4, #0
    906e:	424b      	negs	r3, r1
    9070:	4194      	sbcs	r4, r2
    9072:	930a      	str	r3, [sp, #40]	; 0x28
    9074:	940b      	str	r4, [sp, #44]	; 0x2c
    9076:	232d      	movs	r3, #45	; 0x2d
    9078:	aa1a      	add	r2, sp, #104	; 0x68
    907a:	76d3      	strb	r3, [r2, #27]
    907c:	464c      	mov	r4, r9
    907e:	3b2c      	subs	r3, #44	; 0x2c
    9080:	e46b      	b.n	895a <_vfprintf_r+0x642>
    9082:	464b      	mov	r3, r9
    9084:	07db      	lsls	r3, r3, #31
    9086:	d401      	bmi.n	908c <_vfprintf_r+0xd74>
    9088:	f7ff fa91 	bl	85ae <_vfprintf_r+0x296>
    908c:	e549      	b.n	8b22 <_vfprintf_r+0x80a>
    908e:	46a1      	mov	r9, r4
    9090:	46aa      	mov	sl, r5
    9092:	46b3      	mov	fp, r6
    9094:	9311      	str	r3, [sp, #68]	; 0x44
    9096:	f7ff fc1e 	bl	88d6 <_vfprintf_r+0x5be>
    909a:	9b06      	ldr	r3, [sp, #24]
    909c:	920e      	str	r2, [sp, #56]	; 0x38
    909e:	781b      	ldrb	r3, [r3, #0]
    90a0:	f7ff f9c6 	bl	8430 <_vfprintf_r+0x118>
    90a4:	4b29      	ldr	r3, [pc, #164]	; (914c <_vfprintf_r+0xe34>)
    90a6:	603b      	str	r3, [r7, #0]
    90a8:	2301      	movs	r3, #1
    90aa:	607b      	str	r3, [r7, #4]
    90ac:	9b29      	ldr	r3, [sp, #164]	; 0xa4
    90ae:	3401      	adds	r4, #1
    90b0:	930c      	str	r3, [sp, #48]	; 0x30
    90b2:	3301      	adds	r3, #1
    90b4:	942a      	str	r4, [sp, #168]	; 0xa8
    90b6:	9329      	str	r3, [sp, #164]	; 0xa4
    90b8:	2b07      	cmp	r3, #7
    90ba:	dd01      	ble.n	90c0 <_vfprintf_r+0xda8>
    90bc:	f000 fd39 	bl	9b32 <_vfprintf_r+0x181a>
    90c0:	3708      	adds	r7, #8
    90c2:	9b14      	ldr	r3, [sp, #80]	; 0x50
    90c4:	430b      	orrs	r3, r1
    90c6:	d101      	bne.n	90cc <_vfprintf_r+0xdb4>
    90c8:	f000 fd5d 	bl	9b86 <_vfprintf_r+0x186e>
    90cc:	9b1a      	ldr	r3, [sp, #104]	; 0x68
    90ce:	603b      	str	r3, [r7, #0]
    90d0:	9b19      	ldr	r3, [sp, #100]	; 0x64
    90d2:	469c      	mov	ip, r3
    90d4:	607b      	str	r3, [r7, #4]
    90d6:	9b29      	ldr	r3, [sp, #164]	; 0xa4
    90d8:	4464      	add	r4, ip
    90da:	930c      	str	r3, [sp, #48]	; 0x30
    90dc:	3301      	adds	r3, #1
    90de:	942a      	str	r4, [sp, #168]	; 0xa8
    90e0:	9329      	str	r3, [sp, #164]	; 0xa4
    90e2:	2b07      	cmp	r3, #7
    90e4:	dd01      	ble.n	90ea <_vfprintf_r+0xdd2>
    90e6:	f000 fd32 	bl	9b4e <_vfprintf_r+0x1836>
    90ea:	003a      	movs	r2, r7
    90ec:	3208      	adds	r2, #8
    90ee:	2900      	cmp	r1, #0
    90f0:	da01      	bge.n	90f6 <_vfprintf_r+0xdde>
    90f2:	f000 fdac 	bl	9c4e <_vfprintf_r+0x1936>
    90f6:	9914      	ldr	r1, [sp, #80]	; 0x50
    90f8:	468c      	mov	ip, r1
    90fa:	3301      	adds	r3, #1
    90fc:	4464      	add	r4, ip
    90fe:	6016      	str	r6, [r2, #0]
    9100:	6051      	str	r1, [r2, #4]
    9102:	942a      	str	r4, [sp, #168]	; 0xa8
    9104:	9329      	str	r3, [sp, #164]	; 0xa4
    9106:	2b07      	cmp	r3, #7
    9108:	dd01      	ble.n	910e <_vfprintf_r+0xdf6>
    910a:	f7ff fb5b 	bl	87c4 <_vfprintf_r+0x4ac>
    910e:	3208      	adds	r2, #8
    9110:	0017      	movs	r7, r2
    9112:	f7ff fa4c 	bl	85ae <_vfprintf_r+0x296>
    9116:	9c0e      	ldr	r4, [sp, #56]	; 0x38
    9118:	9a08      	ldr	r2, [sp, #32]
    911a:	cc08      	ldmia	r4!, {r3}
    911c:	601a      	str	r2, [r3, #0]
    911e:	17d2      	asrs	r2, r2, #31
    9120:	605a      	str	r2, [r3, #4]
    9122:	940e      	str	r4, [sp, #56]	; 0x38
    9124:	f7ff f94d 	bl	83c2 <_vfprintf_r+0xaa>
    9128:	464b      	mov	r3, r9
    912a:	065b      	lsls	r3, r3, #25
    912c:	d400      	bmi.n	9130 <_vfprintf_r+0xe18>
    912e:	e269      	b.n	9604 <_vfprintf_r+0x12ec>
    9130:	9c0e      	ldr	r4, [sp, #56]	; 0x38
    9132:	cc08      	ldmia	r4!, {r3}
    9134:	041b      	lsls	r3, r3, #16
    9136:	0c1b      	lsrs	r3, r3, #16
    9138:	930a      	str	r3, [sp, #40]	; 0x28
    913a:	2300      	movs	r3, #0
    913c:	940e      	str	r4, [sp, #56]	; 0x38
    913e:	930b      	str	r3, [sp, #44]	; 0x2c
    9140:	e459      	b.n	89f6 <_vfprintf_r+0x6de>
    9142:	46c0      	nop			; (mov r8, r8)
    9144:	00010c84 	.word	0x00010c84
    9148:	00010c94 	.word	0x00010c94
    914c:	00010b14 	.word	0x00010b14
    9150:	2320      	movs	r3, #32
    9152:	aa1a      	add	r2, sp, #104	; 0x68
    9154:	76d3      	strb	r3, [r2, #27]
    9156:	9b06      	ldr	r3, [sp, #24]
    9158:	781b      	ldrb	r3, [r3, #0]
    915a:	f7ff f969 	bl	8430 <_vfprintf_r+0x118>
    915e:	2230      	movs	r2, #48	; 0x30
    9160:	4663      	mov	r3, ip
    9162:	3e01      	subs	r6, #1
    9164:	7032      	strb	r2, [r6, #0]
    9166:	3b02      	subs	r3, #2
    9168:	aa54      	add	r2, sp, #336	; 0x150
    916a:	1ad2      	subs	r2, r2, r3
    916c:	46a1      	mov	r9, r4
    916e:	001e      	movs	r6, r3
    9170:	920c      	str	r2, [sp, #48]	; 0x30
    9172:	f7ff fc18 	bl	89a6 <_vfprintf_r+0x68e>
    9176:	9816      	ldr	r0, [sp, #88]	; 0x58
    9178:	9917      	ldr	r1, [sp, #92]	; 0x5c
    917a:	0002      	movs	r2, r0
    917c:	000b      	movs	r3, r1
    917e:	f007 fc57 	bl	10a30 <____aeabi_dcmpun_from_thumb>
    9182:	2800      	cmp	r0, #0
    9184:	d001      	beq.n	918a <_vfprintf_r+0xe72>
    9186:	f000 fe41 	bl	9e0c <_vfprintf_r+0x1af4>
    918a:	9811      	ldr	r0, [sp, #68]	; 0x44
    918c:	2320      	movs	r3, #32
    918e:	0005      	movs	r5, r0
    9190:	439d      	bics	r5, r3
    9192:	2d41      	cmp	r5, #65	; 0x41
    9194:	d000      	beq.n	9198 <_vfprintf_r+0xe80>
    9196:	e265      	b.n	9664 <_vfprintf_r+0x134c>
    9198:	2230      	movs	r2, #48	; 0x30
    919a:	a921      	add	r1, sp, #132	; 0x84
    919c:	700a      	strb	r2, [r1, #0]
    919e:	0002      	movs	r2, r0
    91a0:	3a61      	subs	r2, #97	; 0x61
    91a2:	4250      	negs	r0, r2
    91a4:	4142      	adcs	r2, r0
    91a6:	4252      	negs	r2, r2
    91a8:	4013      	ands	r3, r2
    91aa:	3358      	adds	r3, #88	; 0x58
    91ac:	704b      	strb	r3, [r1, #1]
    91ae:	4653      	mov	r3, sl
    91b0:	2b63      	cmp	r3, #99	; 0x63
    91b2:	dd00      	ble.n	91b6 <_vfprintf_r+0xe9e>
    91b4:	e34b      	b.n	984e <_vfprintf_r+0x1536>
    91b6:	2300      	movs	r3, #0
    91b8:	930d      	str	r3, [sp, #52]	; 0x34
    91ba:	ae3b      	add	r6, sp, #236	; 0xec
    91bc:	9916      	ldr	r1, [sp, #88]	; 0x58
    91be:	9a17      	ldr	r2, [sp, #92]	; 0x5c
    91c0:	1e13      	subs	r3, r2, #0
    91c2:	db01      	blt.n	91c8 <_vfprintf_r+0xeb0>
    91c4:	f000 fd96 	bl	9cf4 <_vfprintf_r+0x19dc>
    91c8:	9a16      	ldr	r2, [sp, #88]	; 0x58
    91ca:	9b17      	ldr	r3, [sp, #92]	; 0x5c
    91cc:	0014      	movs	r4, r2
    91ce:	2280      	movs	r2, #128	; 0x80
    91d0:	0612      	lsls	r2, r2, #24
    91d2:	4694      	mov	ip, r2
    91d4:	222d      	movs	r2, #45	; 0x2d
    91d6:	9210      	str	r2, [sp, #64]	; 0x40
    91d8:	4463      	add	r3, ip
    91da:	0020      	movs	r0, r4
    91dc:	0019      	movs	r1, r3
    91de:	aa22      	add	r2, sp, #136	; 0x88
    91e0:	f003 ff06 	bl	cff0 <frexp>
    91e4:	23ff      	movs	r3, #255	; 0xff
    91e6:	2200      	movs	r2, #0
    91e8:	059b      	lsls	r3, r3, #22
    91ea:	f007 fbfd 	bl	109e8 <____aeabi_dmul_from_thumb>
    91ee:	2200      	movs	r2, #0
    91f0:	2300      	movs	r3, #0
    91f2:	0004      	movs	r4, r0
    91f4:	000d      	movs	r5, r1
    91f6:	f007 fbf3 	bl	109e0 <____aeabi_dcmpeq_from_thumb>
    91fa:	2800      	cmp	r0, #0
    91fc:	d001      	beq.n	9202 <_vfprintf_r+0xeea>
    91fe:	2301      	movs	r3, #1
    9200:	9322      	str	r3, [sp, #136]	; 0x88
    9202:	9b11      	ldr	r3, [sp, #68]	; 0x44
    9204:	2b61      	cmp	r3, #97	; 0x61
    9206:	d101      	bne.n	920c <_vfprintf_r+0xef4>
    9208:	f000 fe55 	bl	9eb6 <_vfprintf_r+0x1b9e>
    920c:	4bdb      	ldr	r3, [pc, #876]	; (957c <_vfprintf_r+0x1264>)
    920e:	9307      	str	r3, [sp, #28]
    9210:	0033      	movs	r3, r6
    9212:	4453      	add	r3, sl
    9214:	9312      	str	r3, [sp, #72]	; 0x48
    9216:	4653      	mov	r3, sl
    9218:	3b01      	subs	r3, #1
    921a:	18f3      	adds	r3, r6, r3
    921c:	9313      	str	r3, [sp, #76]	; 0x4c
    921e:	464b      	mov	r3, r9
    9220:	46ba      	mov	sl, r7
    9222:	9614      	str	r6, [sp, #80]	; 0x50
    9224:	0037      	movs	r7, r6
    9226:	9315      	str	r3, [sp, #84]	; 0x54
    9228:	e007      	b.n	923a <_vfprintf_r+0xf22>
    922a:	2200      	movs	r2, #0
    922c:	2300      	movs	r3, #0
    922e:	f007 fbd7 	bl	109e0 <____aeabi_dcmpeq_from_thumb>
    9232:	2800      	cmp	r0, #0
    9234:	d001      	beq.n	923a <_vfprintf_r+0xf22>
    9236:	f000 fe2b 	bl	9e90 <_vfprintf_r+0x1b78>
    923a:	2200      	movs	r2, #0
    923c:	4bd0      	ldr	r3, [pc, #832]	; (9580 <_vfprintf_r+0x1268>)
    923e:	0020      	movs	r0, r4
    9240:	0029      	movs	r1, r5
    9242:	f007 fbd1 	bl	109e8 <____aeabi_dmul_from_thumb>
    9246:	000d      	movs	r5, r1
    9248:	0004      	movs	r4, r0
    924a:	f007 fc13 	bl	10a74 <____aeabi_d2iz_from_thumb>
    924e:	0006      	movs	r6, r0
    9250:	f007 fbe0 	bl	10a14 <____aeabi_i2d_from_thumb>
    9254:	46b9      	mov	r9, r7
    9256:	0002      	movs	r2, r0
    9258:	000b      	movs	r3, r1
    925a:	0020      	movs	r0, r4
    925c:	0029      	movs	r1, r5
    925e:	f007 fbb7 	bl	109d0 <____aeabi_dsub_from_thumb>
    9262:	464a      	mov	r2, r9
    9264:	9b07      	ldr	r3, [sp, #28]
    9266:	5d9b      	ldrb	r3, [r3, r6]
    9268:	7013      	strb	r3, [r2, #0]
    926a:	9b13      	ldr	r3, [sp, #76]	; 0x4c
    926c:	1a9b      	subs	r3, r3, r2
    926e:	930c      	str	r3, [sp, #48]	; 0x30
    9270:	9b12      	ldr	r3, [sp, #72]	; 0x48
    9272:	3701      	adds	r7, #1
    9274:	0004      	movs	r4, r0
    9276:	000d      	movs	r5, r1
    9278:	970f      	str	r7, [sp, #60]	; 0x3c
    927a:	454b      	cmp	r3, r9
    927c:	d1d5      	bne.n	922a <_vfprintf_r+0xf12>
    927e:	9b15      	ldr	r3, [sp, #84]	; 0x54
    9280:	4699      	mov	r9, r3
    9282:	2301      	movs	r3, #1
    9284:	425b      	negs	r3, r3
    9286:	9712      	str	r7, [sp, #72]	; 0x48
    9288:	9213      	str	r2, [sp, #76]	; 0x4c
    928a:	4657      	mov	r7, sl
    928c:	930c      	str	r3, [sp, #48]	; 0x30
    928e:	46b2      	mov	sl, r6
    9290:	9e14      	ldr	r6, [sp, #80]	; 0x50
    9292:	2200      	movs	r2, #0
    9294:	0020      	movs	r0, r4
    9296:	0029      	movs	r1, r5
    9298:	4bba      	ldr	r3, [pc, #744]	; (9584 <_vfprintf_r+0x126c>)
    929a:	f007 fbef 	bl	10a7c <____aeabi_dcmpgt_from_thumb>
    929e:	2800      	cmp	r0, #0
    92a0:	d001      	beq.n	92a6 <_vfprintf_r+0xf8e>
    92a2:	f000 fdcd 	bl	9e40 <_vfprintf_r+0x1b28>
    92a6:	2200      	movs	r2, #0
    92a8:	0020      	movs	r0, r4
    92aa:	0029      	movs	r1, r5
    92ac:	4bb5      	ldr	r3, [pc, #724]	; (9584 <_vfprintf_r+0x126c>)
    92ae:	f007 fb97 	bl	109e0 <____aeabi_dcmpeq_from_thumb>
    92b2:	2800      	cmp	r0, #0
    92b4:	d004      	beq.n	92c0 <_vfprintf_r+0xfa8>
    92b6:	4653      	mov	r3, sl
    92b8:	07db      	lsls	r3, r3, #31
    92ba:	d501      	bpl.n	92c0 <_vfprintf_r+0xfa8>
    92bc:	f000 fdc0 	bl	9e40 <_vfprintf_r+0x1b28>
    92c0:	9b0c      	ldr	r3, [sp, #48]	; 0x30
    92c2:	469c      	mov	ip, r3
    92c4:	9912      	ldr	r1, [sp, #72]	; 0x48
    92c6:	2230      	movs	r2, #48	; 0x30
    92c8:	4461      	add	r1, ip
    92ca:	2b00      	cmp	r3, #0
    92cc:	db0c      	blt.n	92e8 <_vfprintf_r+0xfd0>
    92ce:	9b12      	ldr	r3, [sp, #72]	; 0x48
    92d0:	0018      	movs	r0, r3
    92d2:	701a      	strb	r2, [r3, #0]
    92d4:	3301      	adds	r3, #1
    92d6:	4281      	cmp	r1, r0
    92d8:	d1fa      	bne.n	92d0 <_vfprintf_r+0xfb8>
    92da:	9a0f      	ldr	r2, [sp, #60]	; 0x3c
    92dc:	4694      	mov	ip, r2
    92de:	9b0c      	ldr	r3, [sp, #48]	; 0x30
    92e0:	3301      	adds	r3, #1
    92e2:	449c      	add	ip, r3
    92e4:	4663      	mov	r3, ip
    92e6:	930f      	str	r3, [sp, #60]	; 0x3c
    92e8:	2302      	movs	r3, #2
    92ea:	464a      	mov	r2, r9
    92ec:	431a      	orrs	r2, r3
    92ee:	4691      	mov	r9, r2
    92f0:	9b0f      	ldr	r3, [sp, #60]	; 0x3c
    92f2:	1b9b      	subs	r3, r3, r6
    92f4:	9314      	str	r3, [sp, #80]	; 0x50
    92f6:	9b22      	ldr	r3, [sp, #136]	; 0x88
    92f8:	9312      	str	r3, [sp, #72]	; 0x48
    92fa:	e201      	b.n	9700 <_vfprintf_r+0x13e8>
    92fc:	464b      	mov	r3, r9
    92fe:	065b      	lsls	r3, r3, #25
    9300:	d400      	bmi.n	9304 <_vfprintf_r+0xfec>
    9302:	e18d      	b.n	9620 <_vfprintf_r+0x1308>
    9304:	9c0e      	ldr	r4, [sp, #56]	; 0x38
    9306:	cc08      	ldmia	r4!, {r3}
    9308:	041b      	lsls	r3, r3, #16
    930a:	141b      	asrs	r3, r3, #16
    930c:	930a      	str	r3, [sp, #40]	; 0x28
    930e:	17db      	asrs	r3, r3, #31
    9310:	930b      	str	r3, [sp, #44]	; 0x2c
    9312:	940e      	str	r4, [sp, #56]	; 0x38
    9314:	f7ff faf0 	bl	88f8 <_vfprintf_r+0x5e0>
    9318:	0663      	lsls	r3, r4, #25
    931a:	d400      	bmi.n	931e <_vfprintf_r+0x1006>
    931c:	e16a      	b.n	95f4 <_vfprintf_r+0x12dc>
    931e:	9b0e      	ldr	r3, [sp, #56]	; 0x38
    9320:	cb04      	ldmia	r3!, {r2}
    9322:	0412      	lsls	r2, r2, #16
    9324:	0c12      	lsrs	r2, r2, #16
    9326:	e68d      	b.n	9044 <_vfprintf_r+0xd2c>
    9328:	4641      	mov	r1, r8
    932a:	4658      	mov	r0, fp
    932c:	aa28      	add	r2, sp, #160	; 0xa0
    932e:	f003 ffb1 	bl	d294 <__sprint_r>
    9332:	2800      	cmp	r0, #0
    9334:	d000      	beq.n	9338 <_vfprintf_r+0x1020>
    9336:	e4e1      	b.n	8cfc <_vfprintf_r+0x9e4>
    9338:	9c2a      	ldr	r4, [sp, #168]	; 0xa8
    933a:	af2b      	add	r7, sp, #172	; 0xac
    933c:	f7ff f91f 	bl	857e <_vfprintf_r+0x266>
    9340:	3b4c      	subs	r3, #76	; 0x4c
    9342:	9a06      	ldr	r2, [sp, #24]
    9344:	431c      	orrs	r4, r3
    9346:	3201      	adds	r2, #1
    9348:	7813      	ldrb	r3, [r2, #0]
    934a:	9206      	str	r2, [sp, #24]
    934c:	f7ff f870 	bl	8430 <_vfprintf_r+0x118>
    9350:	3399      	adds	r3, #153	; 0x99
    9352:	33ff      	adds	r3, #255	; 0xff
    9354:	e7f5      	b.n	9342 <_vfprintf_r+0x102a>
    9356:	4641      	mov	r1, r8
    9358:	4658      	mov	r0, fp
    935a:	aa28      	add	r2, sp, #160	; 0xa0
    935c:	f003 ff9a 	bl	d294 <__sprint_r>
    9360:	2800      	cmp	r0, #0
    9362:	d000      	beq.n	9366 <_vfprintf_r+0x104e>
    9364:	e4ca      	b.n	8cfc <_vfprintf_r+0x9e4>
    9366:	9c2a      	ldr	r4, [sp, #168]	; 0xa8
    9368:	af2b      	add	r7, sp, #172	; 0xac
    936a:	f7ff fbea 	bl	8b42 <_vfprintf_r+0x82a>
    936e:	46aa      	mov	sl, r5
    9370:	46b3      	mov	fp, r6
    9372:	9311      	str	r3, [sp, #68]	; 0x44
    9374:	f7ff fae1 	bl	893a <_vfprintf_r+0x622>
    9378:	46a1      	mov	r9, r4
    937a:	46aa      	mov	sl, r5
    937c:	46b3      	mov	fp, r6
    937e:	9311      	str	r3, [sp, #68]	; 0x44
    9380:	4b81      	ldr	r3, [pc, #516]	; (9588 <_vfprintf_r+0x1270>)
    9382:	931c      	str	r3, [sp, #112]	; 0x70
    9384:	464b      	mov	r3, r9
    9386:	069b      	lsls	r3, r3, #26
    9388:	d579      	bpl.n	947e <_vfprintf_r+0x1166>
    938a:	2307      	movs	r3, #7
    938c:	9c0e      	ldr	r4, [sp, #56]	; 0x38
    938e:	3407      	adds	r4, #7
    9390:	439c      	bics	r4, r3
    9392:	0022      	movs	r2, r4
    9394:	ca18      	ldmia	r2!, {r3, r4}
    9396:	930a      	str	r3, [sp, #40]	; 0x28
    9398:	940b      	str	r4, [sp, #44]	; 0x2c
    939a:	920e      	str	r2, [sp, #56]	; 0x38
    939c:	9a0a      	ldr	r2, [sp, #40]	; 0x28
    939e:	9b0b      	ldr	r3, [sp, #44]	; 0x2c
    93a0:	0011      	movs	r1, r2
    93a2:	4319      	orrs	r1, r3
    93a4:	d00b      	beq.n	93be <_vfprintf_r+0x10a6>
    93a6:	464b      	mov	r3, r9
    93a8:	07db      	lsls	r3, r3, #31
    93aa:	d508      	bpl.n	93be <_vfprintf_r+0x10a6>
    93ac:	2230      	movs	r2, #48	; 0x30
    93ae:	ab21      	add	r3, sp, #132	; 0x84
    93b0:	701a      	strb	r2, [r3, #0]
    93b2:	9a11      	ldr	r2, [sp, #68]	; 0x44
    93b4:	705a      	strb	r2, [r3, #1]
    93b6:	464a      	mov	r2, r9
    93b8:	2302      	movs	r3, #2
    93ba:	431a      	orrs	r2, r3
    93bc:	4691      	mov	r9, r2
    93be:	464b      	mov	r3, r9
    93c0:	4c72      	ldr	r4, [pc, #456]	; (958c <_vfprintf_r+0x1274>)
    93c2:	4023      	ands	r3, r4
    93c4:	001c      	movs	r4, r3
    93c6:	2302      	movs	r3, #2
    93c8:	f7ff fac4 	bl	8954 <_vfprintf_r+0x63c>
    93cc:	9311      	str	r3, [sp, #68]	; 0x44
    93ce:	4b6b      	ldr	r3, [pc, #428]	; (957c <_vfprintf_r+0x1264>)
    93d0:	46a1      	mov	r9, r4
    93d2:	46aa      	mov	sl, r5
    93d4:	46b3      	mov	fp, r6
    93d6:	931c      	str	r3, [sp, #112]	; 0x70
    93d8:	e7d4      	b.n	9384 <_vfprintf_r+0x106c>
    93da:	46a1      	mov	r9, r4
    93dc:	46aa      	mov	sl, r5
    93de:	46b3      	mov	fp, r6
    93e0:	9311      	str	r3, [sp, #68]	; 0x44
    93e2:	f7ff fafb 	bl	89dc <_vfprintf_r+0x6c4>
    93e6:	9507      	str	r5, [sp, #28]
    93e8:	2d06      	cmp	r5, #6
    93ea:	d900      	bls.n	93ee <_vfprintf_r+0x10d6>
    93ec:	e212      	b.n	9814 <_vfprintf_r+0x14fc>
    93ee:	2300      	movs	r3, #0
    93f0:	2200      	movs	r2, #0
    93f2:	930d      	str	r3, [sp, #52]	; 0x34
    93f4:	9b07      	ldr	r3, [sp, #28]
    93f6:	4692      	mov	sl, r2
    93f8:	930c      	str	r3, [sp, #48]	; 0x30
    93fa:	940e      	str	r4, [sp, #56]	; 0x38
    93fc:	2300      	movs	r3, #0
    93fe:	9215      	str	r2, [sp, #84]	; 0x54
    9400:	9213      	str	r2, [sp, #76]	; 0x4c
    9402:	9212      	str	r2, [sp, #72]	; 0x48
    9404:	4e62      	ldr	r6, [pc, #392]	; (9590 <_vfprintf_r+0x1278>)
    9406:	f7ff f878 	bl	84fa <_vfprintf_r+0x1e2>
    940a:	2580      	movs	r5, #128	; 0x80
    940c:	4652      	mov	r2, sl
    940e:	2300      	movs	r3, #0
    9410:	00ed      	lsls	r5, r5, #3
    9412:	4025      	ands	r5, r4
    9414:	46ba      	mov	sl, r7
    9416:	46a9      	mov	r9, r5
    9418:	9407      	str	r4, [sp, #28]
    941a:	001f      	movs	r7, r3
    941c:	920c      	str	r2, [sp, #48]	; 0x30
    941e:	9c0a      	ldr	r4, [sp, #40]	; 0x28
    9420:	9d0b      	ldr	r5, [sp, #44]	; 0x2c
    9422:	ae54      	add	r6, sp, #336	; 0x150
    9424:	e00a      	b.n	943c <_vfprintf_r+0x1124>
    9426:	220a      	movs	r2, #10
    9428:	2300      	movs	r3, #0
    942a:	0020      	movs	r0, r4
    942c:	0029      	movs	r1, r5
    942e:	f007 fb03 	bl	10a38 <____aeabi_uldivmod_from_thumb>
    9432:	2d00      	cmp	r5, #0
    9434:	d100      	bne.n	9438 <_vfprintf_r+0x1120>
    9436:	e3f2      	b.n	9c1e <_vfprintf_r+0x1906>
    9438:	0004      	movs	r4, r0
    943a:	000d      	movs	r5, r1
    943c:	220a      	movs	r2, #10
    943e:	2300      	movs	r3, #0
    9440:	0020      	movs	r0, r4
    9442:	0029      	movs	r1, r5
    9444:	f007 faf8 	bl	10a38 <____aeabi_uldivmod_from_thumb>
    9448:	464b      	mov	r3, r9
    944a:	3e01      	subs	r6, #1
    944c:	3230      	adds	r2, #48	; 0x30
    944e:	7032      	strb	r2, [r6, #0]
    9450:	3701      	adds	r7, #1
    9452:	2b00      	cmp	r3, #0
    9454:	d0e7      	beq.n	9426 <_vfprintf_r+0x110e>
    9456:	9b1b      	ldr	r3, [sp, #108]	; 0x6c
    9458:	781b      	ldrb	r3, [r3, #0]
    945a:	2bff      	cmp	r3, #255	; 0xff
    945c:	d0e3      	beq.n	9426 <_vfprintf_r+0x110e>
    945e:	42bb      	cmp	r3, r7
    9460:	d1e1      	bne.n	9426 <_vfprintf_r+0x110e>
    9462:	2d00      	cmp	r5, #0
    9464:	d000      	beq.n	9468 <_vfprintf_r+0x1150>
    9466:	e243      	b.n	98f0 <_vfprintf_r+0x15d8>
    9468:	2c09      	cmp	r4, #9
    946a:	d900      	bls.n	946e <_vfprintf_r+0x1156>
    946c:	e240      	b.n	98f0 <_vfprintf_r+0x15d8>
    946e:	9b0c      	ldr	r3, [sp, #48]	; 0x30
    9470:	940a      	str	r4, [sp, #40]	; 0x28
    9472:	950b      	str	r5, [sp, #44]	; 0x2c
    9474:	9714      	str	r7, [sp, #80]	; 0x50
    9476:	9c07      	ldr	r4, [sp, #28]
    9478:	4657      	mov	r7, sl
    947a:	469a      	mov	sl, r3
    947c:	e431      	b.n	8ce2 <_vfprintf_r+0x9ca>
    947e:	464b      	mov	r3, r9
    9480:	06db      	lsls	r3, r3, #27
    9482:	d530      	bpl.n	94e6 <_vfprintf_r+0x11ce>
    9484:	9c0e      	ldr	r4, [sp, #56]	; 0x38
    9486:	cc08      	ldmia	r4!, {r3}
    9488:	930a      	str	r3, [sp, #40]	; 0x28
    948a:	2300      	movs	r3, #0
    948c:	940e      	str	r4, [sp, #56]	; 0x38
    948e:	930b      	str	r3, [sp, #44]	; 0x2c
    9490:	e784      	b.n	939c <_vfprintf_r+0x1084>
    9492:	4641      	mov	r1, r8
    9494:	4658      	mov	r0, fp
    9496:	aa28      	add	r2, sp, #160	; 0xa0
    9498:	f003 fefc 	bl	d294 <__sprint_r>
    949c:	2800      	cmp	r0, #0
    949e:	d000      	beq.n	94a2 <_vfprintf_r+0x118a>
    94a0:	e42c      	b.n	8cfc <_vfprintf_r+0x9e4>
    94a2:	9c2a      	ldr	r4, [sp, #168]	; 0xa8
    94a4:	9d29      	ldr	r5, [sp, #164]	; 0xa4
    94a6:	af2b      	add	r7, sp, #172	; 0xac
    94a8:	f7ff f95a 	bl	8760 <_vfprintf_r+0x448>
    94ac:	4641      	mov	r1, r8
    94ae:	4658      	mov	r0, fp
    94b0:	aa28      	add	r2, sp, #160	; 0xa0
    94b2:	f003 feef 	bl	d294 <__sprint_r>
    94b6:	2800      	cmp	r0, #0
    94b8:	d001      	beq.n	94be <_vfprintf_r+0x11a6>
    94ba:	f7ff fc1f 	bl	8cfc <_vfprintf_r+0x9e4>
    94be:	9c2a      	ldr	r4, [sp, #168]	; 0xa8
    94c0:	9d29      	ldr	r5, [sp, #164]	; 0xa4
    94c2:	af2b      	add	r7, sp, #172	; 0xac
    94c4:	f7ff f95a 	bl	877c <_vfprintf_r+0x464>
    94c8:	4641      	mov	r1, r8
    94ca:	4658      	mov	r0, fp
    94cc:	aa28      	add	r2, sp, #160	; 0xa0
    94ce:	f003 fee1 	bl	d294 <__sprint_r>
    94d2:	2800      	cmp	r0, #0
    94d4:	d001      	beq.n	94da <_vfprintf_r+0x11c2>
    94d6:	f7ff fc11 	bl	8cfc <_vfprintf_r+0x9e4>
    94da:	ab1a      	add	r3, sp, #104	; 0x68
    94dc:	7edb      	ldrb	r3, [r3, #27]
    94de:	9c2a      	ldr	r4, [sp, #168]	; 0xa8
    94e0:	af2b      	add	r7, sp, #172	; 0xac
    94e2:	f7ff f822 	bl	852a <_vfprintf_r+0x212>
    94e6:	464b      	mov	r3, r9
    94e8:	065b      	lsls	r3, r3, #25
    94ea:	d400      	bmi.n	94ee <_vfprintf_r+0x11d6>
    94ec:	e0a6      	b.n	963c <_vfprintf_r+0x1324>
    94ee:	9c0e      	ldr	r4, [sp, #56]	; 0x38
    94f0:	cc08      	ldmia	r4!, {r3}
    94f2:	041b      	lsls	r3, r3, #16
    94f4:	0c1b      	lsrs	r3, r3, #16
    94f6:	930a      	str	r3, [sp, #40]	; 0x28
    94f8:	2300      	movs	r3, #0
    94fa:	940e      	str	r4, [sp, #56]	; 0x38
    94fc:	930b      	str	r3, [sp, #44]	; 0x2c
    94fe:	e74d      	b.n	939c <_vfprintf_r+0x1084>
    9500:	4641      	mov	r1, r8
    9502:	4658      	mov	r0, fp
    9504:	aa28      	add	r2, sp, #160	; 0xa0
    9506:	f003 fec5 	bl	d294 <__sprint_r>
    950a:	2800      	cmp	r0, #0
    950c:	d001      	beq.n	9512 <_vfprintf_r+0x11fa>
    950e:	f7ff fbf5 	bl	8cfc <_vfprintf_r+0x9e4>
    9512:	9c2a      	ldr	r4, [sp, #168]	; 0xa8
    9514:	af2b      	add	r7, sp, #172	; 0xac
    9516:	f7ff faff 	bl	8b18 <_vfprintf_r+0x800>
    951a:	0014      	movs	r4, r2
    951c:	9a0f      	ldr	r2, [sp, #60]	; 0x3c
    951e:	1964      	adds	r4, r4, r5
    9520:	3301      	adds	r3, #1
    9522:	603a      	str	r2, [r7, #0]
    9524:	607d      	str	r5, [r7, #4]
    9526:	942a      	str	r4, [sp, #168]	; 0xa8
    9528:	9329      	str	r3, [sp, #164]	; 0xa4
    952a:	2b07      	cmp	r3, #7
    952c:	dc01      	bgt.n	9532 <_vfprintf_r+0x121a>
    952e:	f7ff f83d 	bl	85ac <_vfprintf_r+0x294>
    9532:	f7ff f947 	bl	87c4 <_vfprintf_r+0x4ac>
    9536:	9c0e      	ldr	r4, [sp, #56]	; 0x38
    9538:	9a08      	ldr	r2, [sp, #32]
    953a:	cc08      	ldmia	r4!, {r3}
    953c:	601a      	str	r2, [r3, #0]
    953e:	940e      	str	r4, [sp, #56]	; 0x38
    9540:	f7fe ff3f 	bl	83c2 <_vfprintf_r+0xaa>
    9544:	9b2a      	ldr	r3, [sp, #168]	; 0xa8
    9546:	46d9      	mov	r9, fp
    9548:	9306      	str	r3, [sp, #24]
    954a:	46c3      	mov	fp, r8
    954c:	2b00      	cmp	r3, #0
    954e:	d000      	beq.n	9552 <_vfprintf_r+0x123a>
    9550:	e3a1      	b.n	9c96 <_vfprintf_r+0x197e>
    9552:	2300      	movs	r3, #0
    9554:	9329      	str	r3, [sp, #164]	; 0xa4
    9556:	f7ff fbd9 	bl	8d0c <_vfprintf_r+0x9f4>
    955a:	9b29      	ldr	r3, [sp, #164]	; 0xa4
    955c:	2d10      	cmp	r5, #16
    955e:	dc01      	bgt.n	9564 <_vfprintf_r+0x124c>
    9560:	f000 fce0 	bl	9f24 <_vfprintf_r+0x1c0c>
    9564:	2210      	movs	r2, #16
    9566:	480b      	ldr	r0, [pc, #44]	; (9594 <_vfprintf_r+0x127c>)
    9568:	4692      	mov	sl, r2
    956a:	0021      	movs	r1, r4
    956c:	003a      	movs	r2, r7
    956e:	0004      	movs	r4, r0
    9570:	4647      	mov	r7, r8
    9572:	900f      	str	r0, [sp, #60]	; 0x3c
    9574:	46b0      	mov	r8, r6
    9576:	465e      	mov	r6, fp
    9578:	e013      	b.n	95a2 <_vfprintf_r+0x128a>
    957a:	46c0      	nop			; (mov r8, r8)
    957c:	00010af8 	.word	0x00010af8
    9580:	40300000 	.word	0x40300000
    9584:	3fe00000 	.word	0x3fe00000
    9588:	00010ae4 	.word	0x00010ae4
    958c:	fffffbff 	.word	0xfffffbff
    9590:	00010b0c 	.word	0x00010b0c
    9594:	00010c94 	.word	0x00010c94
    9598:	3208      	adds	r2, #8
    959a:	3d10      	subs	r5, #16
    959c:	2d10      	cmp	r5, #16
    959e:	dc00      	bgt.n	95a2 <_vfprintf_r+0x128a>
    95a0:	e20e      	b.n	99c0 <_vfprintf_r+0x16a8>
    95a2:	4650      	mov	r0, sl
    95a4:	3110      	adds	r1, #16
    95a6:	3301      	adds	r3, #1
    95a8:	6014      	str	r4, [r2, #0]
    95aa:	6050      	str	r0, [r2, #4]
    95ac:	912a      	str	r1, [sp, #168]	; 0xa8
    95ae:	9329      	str	r3, [sp, #164]	; 0xa4
    95b0:	2b07      	cmp	r3, #7
    95b2:	ddf1      	ble.n	9598 <_vfprintf_r+0x1280>
    95b4:	0039      	movs	r1, r7
    95b6:	0030      	movs	r0, r6
    95b8:	aa28      	add	r2, sp, #160	; 0xa0
    95ba:	f003 fe6b 	bl	d294 <__sprint_r>
    95be:	2800      	cmp	r0, #0
    95c0:	d001      	beq.n	95c6 <_vfprintf_r+0x12ae>
    95c2:	f7ff fbfb 	bl	8dbc <_vfprintf_r+0xaa4>
    95c6:	992a      	ldr	r1, [sp, #168]	; 0xa8
    95c8:	9b29      	ldr	r3, [sp, #164]	; 0xa4
    95ca:	aa2b      	add	r2, sp, #172	; 0xac
    95cc:	e7e5      	b.n	959a <_vfprintf_r+0x1282>
    95ce:	0030      	movs	r0, r6
    95d0:	f003 fdb0 	bl	d134 <strlen>
    95d4:	0001      	movs	r1, r0
    95d6:	f7ff f932 	bl	883e <_vfprintf_r+0x526>
    95da:	001c      	movs	r4, r3
    95dc:	9b0f      	ldr	r3, [sp, #60]	; 0x3c
    95de:	19a4      	adds	r4, r4, r6
    95e0:	3501      	adds	r5, #1
    95e2:	603b      	str	r3, [r7, #0]
    95e4:	607e      	str	r6, [r7, #4]
    95e6:	942a      	str	r4, [sp, #168]	; 0xa8
    95e8:	9529      	str	r5, [sp, #164]	; 0xa4
    95ea:	2d07      	cmp	r5, #7
    95ec:	dc01      	bgt.n	95f2 <_vfprintf_r+0x12da>
    95ee:	f7ff f8dc 	bl	87aa <_vfprintf_r+0x492>
    95f2:	e4d3      	b.n	8f9c <_vfprintf_r+0xc84>
    95f4:	05a3      	lsls	r3, r4, #22
    95f6:	d400      	bmi.n	95fa <_vfprintf_r+0x12e2>
    95f8:	e522      	b.n	9040 <_vfprintf_r+0xd28>
    95fa:	9b0e      	ldr	r3, [sp, #56]	; 0x38
    95fc:	cb04      	ldmia	r3!, {r2}
    95fe:	0612      	lsls	r2, r2, #24
    9600:	0e12      	lsrs	r2, r2, #24
    9602:	e51f      	b.n	9044 <_vfprintf_r+0xd2c>
    9604:	464b      	mov	r3, r9
    9606:	9c0e      	ldr	r4, [sp, #56]	; 0x38
    9608:	059b      	lsls	r3, r3, #22
    960a:	d400      	bmi.n	960e <_vfprintf_r+0x12f6>
    960c:	e50f      	b.n	902e <_vfprintf_r+0xd16>
    960e:	cc08      	ldmia	r4!, {r3}
    9610:	061b      	lsls	r3, r3, #24
    9612:	0e1b      	lsrs	r3, r3, #24
    9614:	930a      	str	r3, [sp, #40]	; 0x28
    9616:	2300      	movs	r3, #0
    9618:	940e      	str	r4, [sp, #56]	; 0x38
    961a:	930b      	str	r3, [sp, #44]	; 0x2c
    961c:	f7ff f9eb 	bl	89f6 <_vfprintf_r+0x6de>
    9620:	464b      	mov	r3, r9
    9622:	9c0e      	ldr	r4, [sp, #56]	; 0x38
    9624:	059b      	lsls	r3, r3, #22
    9626:	d400      	bmi.n	962a <_vfprintf_r+0x1312>
    9628:	e517      	b.n	905a <_vfprintf_r+0xd42>
    962a:	cc08      	ldmia	r4!, {r3}
    962c:	061b      	lsls	r3, r3, #24
    962e:	161a      	asrs	r2, r3, #24
    9630:	17db      	asrs	r3, r3, #31
    9632:	920a      	str	r2, [sp, #40]	; 0x28
    9634:	930b      	str	r3, [sp, #44]	; 0x2c
    9636:	940e      	str	r4, [sp, #56]	; 0x38
    9638:	f7ff f95e 	bl	88f8 <_vfprintf_r+0x5e0>
    963c:	464b      	mov	r3, r9
    963e:	9c0e      	ldr	r4, [sp, #56]	; 0x38
    9640:	059b      	lsls	r3, r3, #22
    9642:	d400      	bmi.n	9646 <_vfprintf_r+0x132e>
    9644:	e71f      	b.n	9486 <_vfprintf_r+0x116e>
    9646:	cc08      	ldmia	r4!, {r3}
    9648:	061b      	lsls	r3, r3, #24
    964a:	0e1b      	lsrs	r3, r3, #24
    964c:	930a      	str	r3, [sp, #40]	; 0x28
    964e:	2300      	movs	r3, #0
    9650:	940e      	str	r4, [sp, #56]	; 0x38
    9652:	930b      	str	r3, [sp, #44]	; 0x2c
    9654:	e6a2      	b.n	939c <_vfprintf_r+0x1084>
    9656:	4ed7      	ldr	r6, [pc, #860]	; (99b4 <_vfprintf_r+0x169c>)
    9658:	f7ff f81d 	bl	8696 <_vfprintf_r+0x37e>
    965c:	4ad6      	ldr	r2, [pc, #856]	; (99b8 <_vfprintf_r+0x16a0>)
    965e:	920f      	str	r2, [sp, #60]	; 0x3c
    9660:	f7ff fb0e 	bl	8c80 <_vfprintf_r+0x968>
    9664:	4653      	mov	r3, sl
    9666:	3301      	adds	r3, #1
    9668:	d100      	bne.n	966c <_vfprintf_r+0x1354>
    966a:	e0f9      	b.n	9860 <_vfprintf_r+0x1548>
    966c:	2d47      	cmp	r5, #71	; 0x47
    966e:	d000      	beq.n	9672 <_vfprintf_r+0x135a>
    9670:	e0f8      	b.n	9864 <_vfprintf_r+0x154c>
    9672:	4653      	mov	r3, sl
    9674:	2b00      	cmp	r3, #0
    9676:	d000      	beq.n	967a <_vfprintf_r+0x1362>
    9678:	e0f4      	b.n	9864 <_vfprintf_r+0x154c>
    967a:	2380      	movs	r3, #128	; 0x80
    967c:	464a      	mov	r2, r9
    967e:	005b      	lsls	r3, r3, #1
    9680:	431a      	orrs	r2, r3
    9682:	920d      	str	r2, [sp, #52]	; 0x34
    9684:	9916      	ldr	r1, [sp, #88]	; 0x58
    9686:	9a17      	ldr	r2, [sp, #92]	; 0x5c
    9688:	2a00      	cmp	r2, #0
    968a:	da00      	bge.n	968e <_vfprintf_r+0x1376>
    968c:	e3ca      	b.n	9e24 <_vfprintf_r+0x1b0c>
    968e:	2300      	movs	r3, #0
    9690:	9310      	str	r3, [sp, #64]	; 0x40
    9692:	3301      	adds	r3, #1
    9694:	469a      	mov	sl, r3
    9696:	2401      	movs	r4, #1
    9698:	9107      	str	r1, [sp, #28]
    969a:	920c      	str	r2, [sp, #48]	; 0x30
    969c:	ab26      	add	r3, sp, #152	; 0x98
    969e:	9304      	str	r3, [sp, #16]
    96a0:	ab23      	add	r3, sp, #140	; 0x8c
    96a2:	9303      	str	r3, [sp, #12]
    96a4:	ab22      	add	r3, sp, #136	; 0x88
    96a6:	9302      	str	r3, [sp, #8]
    96a8:	2302      	movs	r3, #2
    96aa:	4658      	mov	r0, fp
    96ac:	9300      	str	r3, [sp, #0]
    96ae:	9401      	str	r4, [sp, #4]
    96b0:	9a07      	ldr	r2, [sp, #28]
    96b2:	9b0c      	ldr	r3, [sp, #48]	; 0x30
    96b4:	f000 fe62 	bl	a37c <_dtoa_r>
    96b8:	0006      	movs	r6, r0
    96ba:	2d47      	cmp	r5, #71	; 0x47
    96bc:	d000      	beq.n	96c0 <_vfprintf_r+0x13a8>
    96be:	e100      	b.n	98c2 <_vfprintf_r+0x15aa>
    96c0:	464b      	mov	r3, r9
    96c2:	07db      	lsls	r3, r3, #31
    96c4:	d500      	bpl.n	96c8 <_vfprintf_r+0x13b0>
    96c6:	e0fc      	b.n	98c2 <_vfprintf_r+0x15aa>
    96c8:	9b26      	ldr	r3, [sp, #152]	; 0x98
    96ca:	1b9b      	subs	r3, r3, r6
    96cc:	9314      	str	r3, [sp, #80]	; 0x50
    96ce:	2d47      	cmp	r5, #71	; 0x47
    96d0:	d000      	beq.n	96d4 <_vfprintf_r+0x13bc>
    96d2:	e129      	b.n	9928 <_vfprintf_r+0x1610>
    96d4:	9b22      	ldr	r3, [sp, #136]	; 0x88
    96d6:	001a      	movs	r2, r3
    96d8:	9312      	str	r3, [sp, #72]	; 0x48
    96da:	2301      	movs	r3, #1
    96dc:	4552      	cmp	r2, sl
    96de:	dc00      	bgt.n	96e2 <_vfprintf_r+0x13ca>
    96e0:	2300      	movs	r3, #0
    96e2:	061b      	lsls	r3, r3, #24
    96e4:	d107      	bne.n	96f6 <_vfprintf_r+0x13de>
    96e6:	9a12      	ldr	r2, [sp, #72]	; 0x48
    96e8:	2301      	movs	r3, #1
    96ea:	3203      	adds	r2, #3
    96ec:	db00      	blt.n	96f0 <_vfprintf_r+0x13d8>
    96ee:	2300      	movs	r3, #0
    96f0:	061b      	lsls	r3, r3, #24
    96f2:	d100      	bne.n	96f6 <_vfprintf_r+0x13de>
    96f4:	e13b      	b.n	996e <_vfprintf_r+0x1656>
    96f6:	9b11      	ldr	r3, [sp, #68]	; 0x44
    96f8:	3b02      	subs	r3, #2
    96fa:	9311      	str	r3, [sp, #68]	; 0x44
    96fc:	2300      	movs	r3, #0
    96fe:	930d      	str	r3, [sp, #52]	; 0x34
    9700:	9b12      	ldr	r3, [sp, #72]	; 0x48
    9702:	9911      	ldr	r1, [sp, #68]	; 0x44
    9704:	1e5c      	subs	r4, r3, #1
    9706:	000a      	movs	r2, r1
    9708:	2320      	movs	r3, #32
    970a:	9422      	str	r4, [sp, #136]	; 0x88
    970c:	439a      	bics	r2, r3
    970e:	2a41      	cmp	r2, #65	; 0x41
    9710:	d000      	beq.n	9714 <_vfprintf_r+0x13fc>
    9712:	e360      	b.n	9dd6 <_vfprintf_r+0x1abe>
    9714:	000b      	movs	r3, r1
    9716:	330f      	adds	r3, #15
    9718:	061b      	lsls	r3, r3, #24
    971a:	0e1b      	lsrs	r3, r3, #24
    971c:	2028      	movs	r0, #40	; 0x28
    971e:	a91a      	add	r1, sp, #104	; 0x68
    9720:	1809      	adds	r1, r1, r0
    9722:	700b      	strb	r3, [r1, #0]
    9724:	232b      	movs	r3, #43	; 0x2b
    9726:	2c00      	cmp	r4, #0
    9728:	da03      	bge.n	9732 <_vfprintf_r+0x141a>
    972a:	2401      	movs	r4, #1
    972c:	9b12      	ldr	r3, [sp, #72]	; 0x48
    972e:	1ae4      	subs	r4, r4, r3
    9730:	232d      	movs	r3, #45	; 0x2d
    9732:	2029      	movs	r0, #41	; 0x29
    9734:	a91a      	add	r1, sp, #104	; 0x68
    9736:	1809      	adds	r1, r1, r0
    9738:	700b      	strb	r3, [r1, #0]
    973a:	2c09      	cmp	r4, #9
    973c:	dc00      	bgt.n	9740 <_vfprintf_r+0x1428>
    973e:	e335      	b.n	9dac <_vfprintf_r+0x1a94>
    9740:	aa1a      	add	r2, sp, #104	; 0x68
    9742:	2337      	movs	r3, #55	; 0x37
    9744:	4694      	mov	ip, r2
    9746:	4463      	add	r3, ip
    9748:	001d      	movs	r5, r3
    974a:	46b2      	mov	sl, r6
    974c:	0020      	movs	r0, r4
    974e:	210a      	movs	r1, #10
    9750:	9507      	str	r5, [sp, #28]
    9752:	f007 f953 	bl	109fc <____aeabi_idivmod_from_thumb>
    9756:	3d01      	subs	r5, #1
    9758:	3130      	adds	r1, #48	; 0x30
    975a:	0020      	movs	r0, r4
    975c:	7029      	strb	r1, [r5, #0]
    975e:	210a      	movs	r1, #10
    9760:	f007 f95c 	bl	10a1c <____aeabi_idiv_from_thumb>
    9764:	0026      	movs	r6, r4
    9766:	0004      	movs	r4, r0
    9768:	2e63      	cmp	r6, #99	; 0x63
    976a:	dcef      	bgt.n	974c <_vfprintf_r+0x1434>
    976c:	0002      	movs	r2, r0
    976e:	a81a      	add	r0, sp, #104	; 0x68
    9770:	2137      	movs	r1, #55	; 0x37
    9772:	4684      	mov	ip, r0
    9774:	9b07      	ldr	r3, [sp, #28]
    9776:	3230      	adds	r2, #48	; 0x30
    9778:	0612      	lsls	r2, r2, #24
    977a:	3b02      	subs	r3, #2
    977c:	0e12      	lsrs	r2, r2, #24
    977e:	4461      	add	r1, ip
    9780:	4656      	mov	r6, sl
    9782:	701a      	strb	r2, [r3, #0]
    9784:	428b      	cmp	r3, r1
    9786:	d300      	bcc.n	978a <_vfprintf_r+0x1472>
    9788:	e3e6      	b.n	9f58 <_vfprintf_r+0x1c40>
    978a:	212a      	movs	r1, #42	; 0x2a
    978c:	4461      	add	r1, ip
    978e:	e000      	b.n	9792 <_vfprintf_r+0x147a>
    9790:	781a      	ldrb	r2, [r3, #0]
    9792:	a81a      	add	r0, sp, #104	; 0x68
    9794:	700a      	strb	r2, [r1, #0]
    9796:	4684      	mov	ip, r0
    9798:	2237      	movs	r2, #55	; 0x37
    979a:	3301      	adds	r3, #1
    979c:	4462      	add	r2, ip
    979e:	3101      	adds	r1, #1
    97a0:	4293      	cmp	r3, r2
    97a2:	d1f5      	bne.n	9790 <_vfprintf_r+0x1478>
    97a4:	2339      	movs	r3, #57	; 0x39
    97a6:	9a07      	ldr	r2, [sp, #28]
    97a8:	4463      	add	r3, ip
    97aa:	1a9b      	subs	r3, r3, r2
    97ac:	222a      	movs	r2, #42	; 0x2a
    97ae:	4462      	add	r2, ip
    97b0:	4694      	mov	ip, r2
    97b2:	aa24      	add	r2, sp, #144	; 0x90
    97b4:	4463      	add	r3, ip
    97b6:	1a9b      	subs	r3, r3, r2
    97b8:	931d      	str	r3, [sp, #116]	; 0x74
    97ba:	9a14      	ldr	r2, [sp, #80]	; 0x50
    97bc:	4694      	mov	ip, r2
    97be:	9b1d      	ldr	r3, [sp, #116]	; 0x74
    97c0:	4463      	add	r3, ip
    97c2:	930c      	str	r3, [sp, #48]	; 0x30
    97c4:	2a01      	cmp	r2, #1
    97c6:	dc00      	bgt.n	97ca <_vfprintf_r+0x14b2>
    97c8:	e36c      	b.n	9ea4 <_vfprintf_r+0x1b8c>
    97ca:	9a19      	ldr	r2, [sp, #100]	; 0x64
    97cc:	4694      	mov	ip, r2
    97ce:	9b0c      	ldr	r3, [sp, #48]	; 0x30
    97d0:	4463      	add	r3, ip
    97d2:	930c      	str	r3, [sp, #48]	; 0x30
    97d4:	464a      	mov	r2, r9
    97d6:	4b79      	ldr	r3, [pc, #484]	; (99bc <_vfprintf_r+0x16a4>)
    97d8:	401a      	ands	r2, r3
    97da:	0013      	movs	r3, r2
    97dc:	2280      	movs	r2, #128	; 0x80
    97de:	0052      	lsls	r2, r2, #1
    97e0:	431a      	orrs	r2, r3
    97e2:	4691      	mov	r9, r2
    97e4:	9a0c      	ldr	r2, [sp, #48]	; 0x30
    97e6:	43d3      	mvns	r3, r2
    97e8:	17db      	asrs	r3, r3, #31
    97ea:	401a      	ands	r2, r3
    97ec:	2300      	movs	r3, #0
    97ee:	9207      	str	r2, [sp, #28]
    97f0:	9315      	str	r3, [sp, #84]	; 0x54
    97f2:	9313      	str	r3, [sp, #76]	; 0x4c
    97f4:	9312      	str	r3, [sp, #72]	; 0x48
    97f6:	9b10      	ldr	r3, [sp, #64]	; 0x40
    97f8:	2b00      	cmp	r3, #0
    97fa:	d000      	beq.n	97fe <_vfprintf_r+0x14e6>
    97fc:	e0d3      	b.n	99a6 <_vfprintf_r+0x168e>
    97fe:	2200      	movs	r2, #0
    9800:	ab1a      	add	r3, sp, #104	; 0x68
    9802:	4692      	mov	sl, r2
    9804:	7edb      	ldrb	r3, [r3, #27]
    9806:	f7ff f8db 	bl	89c0 <_vfprintf_r+0x6a8>
    980a:	232d      	movs	r3, #45	; 0x2d
    980c:	aa1a      	add	r2, sp, #104	; 0x68
    980e:	76d3      	strb	r3, [r2, #27]
    9810:	f7fe ff3b 	bl	868a <_vfprintf_r+0x372>
    9814:	2306      	movs	r3, #6
    9816:	9307      	str	r3, [sp, #28]
    9818:	e5e9      	b.n	93ee <_vfprintf_r+0x10d6>
    981a:	9914      	ldr	r1, [sp, #80]	; 0x50
    981c:	468c      	mov	ip, r1
    981e:	1acb      	subs	r3, r1, r3
    9820:	4466      	add	r6, ip
    9822:	1b72      	subs	r2, r6, r5
    9824:	001e      	movs	r6, r3
    9826:	4293      	cmp	r3, r2
    9828:	dc01      	bgt.n	982e <_vfprintf_r+0x1516>
    982a:	f7ff fb76 	bl	8f1a <_vfprintf_r+0xc02>
    982e:	0016      	movs	r6, r2
    9830:	f7ff fb73 	bl	8f1a <_vfprintf_r+0xc02>
    9834:	9c0e      	ldr	r4, [sp, #56]	; 0x38
    9836:	9a08      	ldr	r2, [sp, #32]
    9838:	cc08      	ldmia	r4!, {r3}
    983a:	801a      	strh	r2, [r3, #0]
    983c:	940e      	str	r4, [sp, #56]	; 0x38
    983e:	f7fe fdc0 	bl	83c2 <_vfprintf_r+0xaa>
    9842:	465b      	mov	r3, fp
    9844:	6d98      	ldr	r0, [r3, #88]	; 0x58
    9846:	f002 fa25 	bl	bc94 <__retarget_lock_release_recursive>
    984a:	f7fe fe17 	bl	847c <_vfprintf_r+0x164>
    984e:	4658      	mov	r0, fp
    9850:	1c59      	adds	r1, r3, #1
    9852:	f002 fac9 	bl	bde8 <_malloc_r>
    9856:	1e06      	subs	r6, r0, #0
    9858:	d100      	bne.n	985c <_vfprintf_r+0x1544>
    985a:	e374      	b.n	9f46 <_vfprintf_r+0x1c2e>
    985c:	900d      	str	r0, [sp, #52]	; 0x34
    985e:	e4ad      	b.n	91bc <_vfprintf_r+0xea4>
    9860:	2306      	movs	r3, #6
    9862:	469a      	mov	sl, r3
    9864:	2380      	movs	r3, #128	; 0x80
    9866:	464a      	mov	r2, r9
    9868:	005b      	lsls	r3, r3, #1
    986a:	431a      	orrs	r2, r3
    986c:	920d      	str	r2, [sp, #52]	; 0x34
    986e:	9916      	ldr	r1, [sp, #88]	; 0x58
    9870:	9a17      	ldr	r2, [sp, #92]	; 0x5c
    9872:	2a00      	cmp	r2, #0
    9874:	da00      	bge.n	9878 <_vfprintf_r+0x1560>
    9876:	e2d7      	b.n	9e28 <_vfprintf_r+0x1b10>
    9878:	2300      	movs	r3, #0
    987a:	9107      	str	r1, [sp, #28]
    987c:	920c      	str	r2, [sp, #48]	; 0x30
    987e:	9310      	str	r3, [sp, #64]	; 0x40
    9880:	2d46      	cmp	r5, #70	; 0x46
    9882:	d000      	beq.n	9886 <_vfprintf_r+0x156e>
    9884:	e221      	b.n	9cca <_vfprintf_r+0x19b2>
    9886:	ab26      	add	r3, sp, #152	; 0x98
    9888:	9304      	str	r3, [sp, #16]
    988a:	ab23      	add	r3, sp, #140	; 0x8c
    988c:	9303      	str	r3, [sp, #12]
    988e:	ab22      	add	r3, sp, #136	; 0x88
    9890:	9302      	str	r3, [sp, #8]
    9892:	4653      	mov	r3, sl
    9894:	9301      	str	r3, [sp, #4]
    9896:	2303      	movs	r3, #3
    9898:	9c0c      	ldr	r4, [sp, #48]	; 0x30
    989a:	9300      	str	r3, [sp, #0]
    989c:	4658      	mov	r0, fp
    989e:	0023      	movs	r3, r4
    98a0:	9a07      	ldr	r2, [sp, #28]
    98a2:	f000 fd6b 	bl	a37c <_dtoa_r>
    98a6:	7803      	ldrb	r3, [r0, #0]
    98a8:	0006      	movs	r6, r0
    98aa:	2b30      	cmp	r3, #48	; 0x30
    98ac:	d107      	bne.n	98be <_vfprintf_r+0x15a6>
    98ae:	2200      	movs	r2, #0
    98b0:	2300      	movs	r3, #0
    98b2:	0021      	movs	r1, r4
    98b4:	9807      	ldr	r0, [sp, #28]
    98b6:	f007 f893 	bl	109e0 <____aeabi_dcmpeq_from_thumb>
    98ba:	2800      	cmp	r0, #0
    98bc:	d02f      	beq.n	991e <_vfprintf_r+0x1606>
    98be:	9c22      	ldr	r4, [sp, #136]	; 0x88
    98c0:	4454      	add	r4, sl
    98c2:	2300      	movs	r3, #0
    98c4:	2200      	movs	r2, #0
    98c6:	9807      	ldr	r0, [sp, #28]
    98c8:	990c      	ldr	r1, [sp, #48]	; 0x30
    98ca:	f007 f889 	bl	109e0 <____aeabi_dcmpeq_from_thumb>
    98ce:	1934      	adds	r4, r6, r4
    98d0:	0023      	movs	r3, r4
    98d2:	2800      	cmp	r0, #0
    98d4:	d000      	beq.n	98d8 <_vfprintf_r+0x15c0>
    98d6:	e6f8      	b.n	96ca <_vfprintf_r+0x13b2>
    98d8:	9b26      	ldr	r3, [sp, #152]	; 0x98
    98da:	42a3      	cmp	r3, r4
    98dc:	d300      	bcc.n	98e0 <_vfprintf_r+0x15c8>
    98de:	e6f4      	b.n	96ca <_vfprintf_r+0x13b2>
    98e0:	2130      	movs	r1, #48	; 0x30
    98e2:	1c5a      	adds	r2, r3, #1
    98e4:	9226      	str	r2, [sp, #152]	; 0x98
    98e6:	7019      	strb	r1, [r3, #0]
    98e8:	9b26      	ldr	r3, [sp, #152]	; 0x98
    98ea:	429c      	cmp	r4, r3
    98ec:	d8f9      	bhi.n	98e2 <_vfprintf_r+0x15ca>
    98ee:	e6ec      	b.n	96ca <_vfprintf_r+0x13b2>
    98f0:	9b1e      	ldr	r3, [sp, #120]	; 0x78
    98f2:	1af6      	subs	r6, r6, r3
    98f4:	001a      	movs	r2, r3
    98f6:	991f      	ldr	r1, [sp, #124]	; 0x7c
    98f8:	0030      	movs	r0, r6
    98fa:	f003 fc4b 	bl	d194 <strncpy>
    98fe:	991b      	ldr	r1, [sp, #108]	; 0x6c
    9900:	784b      	ldrb	r3, [r1, #1]
    9902:	468c      	mov	ip, r1
    9904:	1e5a      	subs	r2, r3, #1
    9906:	4193      	sbcs	r3, r2
    9908:	449c      	add	ip, r3
    990a:	4663      	mov	r3, ip
    990c:	220a      	movs	r2, #10
    990e:	931b      	str	r3, [sp, #108]	; 0x6c
    9910:	0020      	movs	r0, r4
    9912:	2300      	movs	r3, #0
    9914:	0029      	movs	r1, r5
    9916:	f007 f88f 	bl	10a38 <____aeabi_uldivmod_from_thumb>
    991a:	2700      	movs	r7, #0
    991c:	e58c      	b.n	9438 <_vfprintf_r+0x1120>
    991e:	2401      	movs	r4, #1
    9920:	4653      	mov	r3, sl
    9922:	1ae4      	subs	r4, r4, r3
    9924:	9422      	str	r4, [sp, #136]	; 0x88
    9926:	e7cb      	b.n	98c0 <_vfprintf_r+0x15a8>
    9928:	2d46      	cmp	r5, #70	; 0x46
    992a:	d000      	beq.n	992e <_vfprintf_r+0x1616>
    992c:	e317      	b.n	9f5e <_vfprintf_r+0x1c46>
    992e:	9a22      	ldr	r2, [sp, #136]	; 0x88
    9930:	2301      	movs	r3, #1
    9932:	9212      	str	r2, [sp, #72]	; 0x48
    9934:	2a00      	cmp	r2, #0
    9936:	dc00      	bgt.n	993a <_vfprintf_r+0x1622>
    9938:	e2c1      	b.n	9ebe <_vfprintf_r+0x1ba6>
    993a:	4649      	mov	r1, r9
    993c:	400b      	ands	r3, r1
    993e:	4651      	mov	r1, sl
    9940:	430b      	orrs	r3, r1
    9942:	d000      	beq.n	9946 <_vfprintf_r+0x162e>
    9944:	e226      	b.n	9d94 <_vfprintf_r+0x1a7c>
    9946:	9b12      	ldr	r3, [sp, #72]	; 0x48
    9948:	930c      	str	r3, [sp, #48]	; 0x30
    994a:	2366      	movs	r3, #102	; 0x66
    994c:	9311      	str	r3, [sp, #68]	; 0x44
    994e:	464b      	mov	r3, r9
    9950:	055b      	lsls	r3, r3, #21
    9952:	d500      	bpl.n	9956 <_vfprintf_r+0x163e>
    9954:	e1f4      	b.n	9d40 <_vfprintf_r+0x1a28>
    9956:	9a0c      	ldr	r2, [sp, #48]	; 0x30
    9958:	43d3      	mvns	r3, r2
    995a:	17db      	asrs	r3, r3, #31
    995c:	401a      	ands	r2, r3
    995e:	9207      	str	r2, [sp, #28]
    9960:	9b0d      	ldr	r3, [sp, #52]	; 0x34
    9962:	4699      	mov	r9, r3
    9964:	2300      	movs	r3, #0
    9966:	930d      	str	r3, [sp, #52]	; 0x34
    9968:	9315      	str	r3, [sp, #84]	; 0x54
    996a:	9313      	str	r3, [sp, #76]	; 0x4c
    996c:	e743      	b.n	97f6 <_vfprintf_r+0x14de>
    996e:	9b12      	ldr	r3, [sp, #72]	; 0x48
    9970:	9a14      	ldr	r2, [sp, #80]	; 0x50
    9972:	4293      	cmp	r3, r2
    9974:	da00      	bge.n	9978 <_vfprintf_r+0x1660>
    9976:	e157      	b.n	9c28 <_vfprintf_r+0x1910>
    9978:	464a      	mov	r2, r9
    997a:	930c      	str	r3, [sp, #48]	; 0x30
    997c:	07d2      	lsls	r2, r2, #31
    997e:	d503      	bpl.n	9988 <_vfprintf_r+0x1670>
    9980:	9a19      	ldr	r2, [sp, #100]	; 0x64
    9982:	4694      	mov	ip, r2
    9984:	4463      	add	r3, ip
    9986:	930c      	str	r3, [sp, #48]	; 0x30
    9988:	464b      	mov	r3, r9
    998a:	055b      	lsls	r3, r3, #21
    998c:	d503      	bpl.n	9996 <_vfprintf_r+0x167e>
    998e:	9b12      	ldr	r3, [sp, #72]	; 0x48
    9990:	2b00      	cmp	r3, #0
    9992:	dd00      	ble.n	9996 <_vfprintf_r+0x167e>
    9994:	e1d2      	b.n	9d3c <_vfprintf_r+0x1a24>
    9996:	9a0c      	ldr	r2, [sp, #48]	; 0x30
    9998:	43d3      	mvns	r3, r2
    999a:	17db      	asrs	r3, r3, #31
    999c:	401a      	ands	r2, r3
    999e:	2367      	movs	r3, #103	; 0x67
    99a0:	9207      	str	r2, [sp, #28]
    99a2:	9311      	str	r3, [sp, #68]	; 0x44
    99a4:	e7dc      	b.n	9960 <_vfprintf_r+0x1648>
    99a6:	232d      	movs	r3, #45	; 0x2d
    99a8:	aa1a      	add	r2, sp, #104	; 0x68
    99aa:	76d3      	strb	r3, [r2, #27]
    99ac:	2200      	movs	r2, #0
    99ae:	4692      	mov	sl, r2
    99b0:	f7ff f809 	bl	89c6 <_vfprintf_r+0x6ae>
    99b4:	00010ad4 	.word	0x00010ad4
    99b8:	00010c94 	.word	0x00010c94
    99bc:	fffffbff 	.word	0xfffffbff
    99c0:	46b3      	mov	fp, r6
    99c2:	000c      	movs	r4, r1
    99c4:	4646      	mov	r6, r8
    99c6:	46b8      	mov	r8, r7
    99c8:	0017      	movs	r7, r2
    99ca:	9a0f      	ldr	r2, [sp, #60]	; 0x3c
    99cc:	1964      	adds	r4, r4, r5
    99ce:	3301      	adds	r3, #1
    99d0:	603a      	str	r2, [r7, #0]
    99d2:	607d      	str	r5, [r7, #4]
    99d4:	942a      	str	r4, [sp, #168]	; 0xa8
    99d6:	9329      	str	r3, [sp, #164]	; 0xa4
    99d8:	2b07      	cmp	r3, #7
    99da:	dd00      	ble.n	99de <_vfprintf_r+0x16c6>
    99dc:	e1cd      	b.n	9d7a <_vfprintf_r+0x1a62>
    99de:	3708      	adds	r7, #8
    99e0:	f7ff fa61 	bl	8ea6 <_vfprintf_r+0xb8e>
    99e4:	9b15      	ldr	r3, [sp, #84]	; 0x54
    99e6:	2b00      	cmp	r3, #0
    99e8:	dc03      	bgt.n	99f2 <_vfprintf_r+0x16da>
    99ea:	9b13      	ldr	r3, [sp, #76]	; 0x4c
    99ec:	2b00      	cmp	r3, #0
    99ee:	dc00      	bgt.n	99f2 <_vfprintf_r+0x16da>
    99f0:	e2a3      	b.n	9f3a <_vfprintf_r+0x1c22>
    99f2:	9b14      	ldr	r3, [sp, #80]	; 0x50
    99f4:	469c      	mov	ip, r3
    99f6:	44b4      	add	ip, r6
    99f8:	4663      	mov	r3, ip
    99fa:	9310      	str	r3, [sp, #64]	; 0x40
    99fc:	4bd5      	ldr	r3, [pc, #852]	; (9d54 <_vfprintf_r+0x1a3c>)
    99fe:	469a      	mov	sl, r3
    9a00:	464b      	mov	r3, r9
    9a02:	0022      	movs	r2, r4
    9a04:	002c      	movs	r4, r5
    9a06:	9312      	str	r3, [sp, #72]	; 0x48
    9a08:	9b15      	ldr	r3, [sp, #84]	; 0x54
    9a0a:	9611      	str	r6, [sp, #68]	; 0x44
    9a0c:	4699      	mov	r9, r3
    9a0e:	003b      	movs	r3, r7
    9a10:	9f1b      	ldr	r7, [sp, #108]	; 0x6c
    9a12:	4649      	mov	r1, r9
    9a14:	2900      	cmp	r1, #0
    9a16:	d135      	bne.n	9a84 <_vfprintf_r+0x176c>
    9a18:	9913      	ldr	r1, [sp, #76]	; 0x4c
    9a1a:	3901      	subs	r1, #1
    9a1c:	9113      	str	r1, [sp, #76]	; 0x4c
    9a1e:	3f01      	subs	r7, #1
    9a20:	991f      	ldr	r1, [sp, #124]	; 0x7c
    9a22:	6019      	str	r1, [r3, #0]
    9a24:	991e      	ldr	r1, [sp, #120]	; 0x78
    9a26:	468c      	mov	ip, r1
    9a28:	6059      	str	r1, [r3, #4]
    9a2a:	9929      	ldr	r1, [sp, #164]	; 0xa4
    9a2c:	4462      	add	r2, ip
    9a2e:	910c      	str	r1, [sp, #48]	; 0x30
    9a30:	3101      	adds	r1, #1
    9a32:	922a      	str	r2, [sp, #168]	; 0xa8
    9a34:	9129      	str	r1, [sp, #164]	; 0xa4
    9a36:	2907      	cmp	r1, #7
    9a38:	dc62      	bgt.n	9b00 <_vfprintf_r+0x17e8>
    9a3a:	3308      	adds	r3, #8
    9a3c:	9910      	ldr	r1, [sp, #64]	; 0x40
    9a3e:	910c      	str	r1, [sp, #48]	; 0x30
    9a40:	1b08      	subs	r0, r1, r4
    9a42:	7839      	ldrb	r1, [r7, #0]
    9a44:	000d      	movs	r5, r1
    9a46:	4281      	cmp	r1, r0
    9a48:	dd00      	ble.n	9a4c <_vfprintf_r+0x1734>
    9a4a:	0005      	movs	r5, r0
    9a4c:	2d00      	cmp	r5, #0
    9a4e:	dd0b      	ble.n	9a68 <_vfprintf_r+0x1750>
    9a50:	9929      	ldr	r1, [sp, #164]	; 0xa4
    9a52:	1952      	adds	r2, r2, r5
    9a54:	910f      	str	r1, [sp, #60]	; 0x3c
    9a56:	3101      	adds	r1, #1
    9a58:	601c      	str	r4, [r3, #0]
    9a5a:	605d      	str	r5, [r3, #4]
    9a5c:	922a      	str	r2, [sp, #168]	; 0xa8
    9a5e:	9129      	str	r1, [sp, #164]	; 0xa4
    9a60:	2907      	cmp	r1, #7
    9a62:	dc59      	bgt.n	9b18 <_vfprintf_r+0x1800>
    9a64:	7839      	ldrb	r1, [r7, #0]
    9a66:	3308      	adds	r3, #8
    9a68:	43e8      	mvns	r0, r5
    9a6a:	17c0      	asrs	r0, r0, #31
    9a6c:	4005      	ands	r5, r0
    9a6e:	1b4d      	subs	r5, r1, r5
    9a70:	2d00      	cmp	r5, #0
    9a72:	dc0c      	bgt.n	9a8e <_vfprintf_r+0x1776>
    9a74:	1864      	adds	r4, r4, r1
    9a76:	9913      	ldr	r1, [sp, #76]	; 0x4c
    9a78:	2900      	cmp	r1, #0
    9a7a:	dcca      	bgt.n	9a12 <_vfprintf_r+0x16fa>
    9a7c:	4649      	mov	r1, r9
    9a7e:	2900      	cmp	r1, #0
    9a80:	dc00      	bgt.n	9a84 <_vfprintf_r+0x176c>
    9a82:	e1f6      	b.n	9e72 <_vfprintf_r+0x1b5a>
    9a84:	2101      	movs	r1, #1
    9a86:	4249      	negs	r1, r1
    9a88:	468c      	mov	ip, r1
    9a8a:	44e1      	add	r9, ip
    9a8c:	e7c8      	b.n	9a20 <_vfprintf_r+0x1708>
    9a8e:	4650      	mov	r0, sl
    9a90:	9929      	ldr	r1, [sp, #164]	; 0xa4
    9a92:	900f      	str	r0, [sp, #60]	; 0x3c
    9a94:	2d10      	cmp	r5, #16
    9a96:	dd27      	ble.n	9ae8 <_vfprintf_r+0x17d0>
    9a98:	4658      	mov	r0, fp
    9a9a:	46a3      	mov	fp, r4
    9a9c:	4644      	mov	r4, r8
    9a9e:	2610      	movs	r6, #16
    9aa0:	46b8      	mov	r8, r7
    9aa2:	0027      	movs	r7, r4
    9aa4:	0004      	movs	r4, r0
    9aa6:	e003      	b.n	9ab0 <_vfprintf_r+0x1798>
    9aa8:	3d10      	subs	r5, #16
    9aaa:	3308      	adds	r3, #8
    9aac:	2d10      	cmp	r5, #16
    9aae:	dd15      	ble.n	9adc <_vfprintf_r+0x17c4>
    9ab0:	4650      	mov	r0, sl
    9ab2:	3210      	adds	r2, #16
    9ab4:	3101      	adds	r1, #1
    9ab6:	6018      	str	r0, [r3, #0]
    9ab8:	605e      	str	r6, [r3, #4]
    9aba:	922a      	str	r2, [sp, #168]	; 0xa8
    9abc:	9129      	str	r1, [sp, #164]	; 0xa4
    9abe:	2907      	cmp	r1, #7
    9ac0:	ddf2      	ble.n	9aa8 <_vfprintf_r+0x1790>
    9ac2:	0039      	movs	r1, r7
    9ac4:	0020      	movs	r0, r4
    9ac6:	aa28      	add	r2, sp, #160	; 0xa0
    9ac8:	f003 fbe4 	bl	d294 <__sprint_r>
    9acc:	2800      	cmp	r0, #0
    9ace:	d17d      	bne.n	9bcc <_vfprintf_r+0x18b4>
    9ad0:	3d10      	subs	r5, #16
    9ad2:	9a2a      	ldr	r2, [sp, #168]	; 0xa8
    9ad4:	9929      	ldr	r1, [sp, #164]	; 0xa4
    9ad6:	ab2b      	add	r3, sp, #172	; 0xac
    9ad8:	2d10      	cmp	r5, #16
    9ada:	dce9      	bgt.n	9ab0 <_vfprintf_r+0x1798>
    9adc:	0026      	movs	r6, r4
    9ade:	0038      	movs	r0, r7
    9ae0:	465c      	mov	r4, fp
    9ae2:	4647      	mov	r7, r8
    9ae4:	46b3      	mov	fp, r6
    9ae6:	4680      	mov	r8, r0
    9ae8:	980f      	ldr	r0, [sp, #60]	; 0x3c
    9aea:	1952      	adds	r2, r2, r5
    9aec:	3101      	adds	r1, #1
    9aee:	6018      	str	r0, [r3, #0]
    9af0:	605d      	str	r5, [r3, #4]
    9af2:	922a      	str	r2, [sp, #168]	; 0xa8
    9af4:	9129      	str	r1, [sp, #164]	; 0xa4
    9af6:	2907      	cmp	r1, #7
    9af8:	dc5b      	bgt.n	9bb2 <_vfprintf_r+0x189a>
    9afa:	7839      	ldrb	r1, [r7, #0]
    9afc:	3308      	adds	r3, #8
    9afe:	e7b9      	b.n	9a74 <_vfprintf_r+0x175c>
    9b00:	4641      	mov	r1, r8
    9b02:	4658      	mov	r0, fp
    9b04:	aa28      	add	r2, sp, #160	; 0xa0
    9b06:	f003 fbc5 	bl	d294 <__sprint_r>
    9b0a:	2800      	cmp	r0, #0
    9b0c:	d001      	beq.n	9b12 <_vfprintf_r+0x17fa>
    9b0e:	f7ff f8f5 	bl	8cfc <_vfprintf_r+0x9e4>
    9b12:	9a2a      	ldr	r2, [sp, #168]	; 0xa8
    9b14:	ab2b      	add	r3, sp, #172	; 0xac
    9b16:	e791      	b.n	9a3c <_vfprintf_r+0x1724>
    9b18:	4641      	mov	r1, r8
    9b1a:	4658      	mov	r0, fp
    9b1c:	aa28      	add	r2, sp, #160	; 0xa0
    9b1e:	f003 fbb9 	bl	d294 <__sprint_r>
    9b22:	2800      	cmp	r0, #0
    9b24:	d001      	beq.n	9b2a <_vfprintf_r+0x1812>
    9b26:	f7ff f8e9 	bl	8cfc <_vfprintf_r+0x9e4>
    9b2a:	7839      	ldrb	r1, [r7, #0]
    9b2c:	9a2a      	ldr	r2, [sp, #168]	; 0xa8
    9b2e:	ab2b      	add	r3, sp, #172	; 0xac
    9b30:	e79a      	b.n	9a68 <_vfprintf_r+0x1750>
    9b32:	4641      	mov	r1, r8
    9b34:	4658      	mov	r0, fp
    9b36:	aa28      	add	r2, sp, #160	; 0xa0
    9b38:	f003 fbac 	bl	d294 <__sprint_r>
    9b3c:	2800      	cmp	r0, #0
    9b3e:	d001      	beq.n	9b44 <_vfprintf_r+0x182c>
    9b40:	f7ff f8dc 	bl	8cfc <_vfprintf_r+0x9e4>
    9b44:	9922      	ldr	r1, [sp, #136]	; 0x88
    9b46:	9c2a      	ldr	r4, [sp, #168]	; 0xa8
    9b48:	af2b      	add	r7, sp, #172	; 0xac
    9b4a:	f7ff faba 	bl	90c2 <_vfprintf_r+0xdaa>
    9b4e:	4641      	mov	r1, r8
    9b50:	4658      	mov	r0, fp
    9b52:	aa28      	add	r2, sp, #160	; 0xa0
    9b54:	f003 fb9e 	bl	d294 <__sprint_r>
    9b58:	2800      	cmp	r0, #0
    9b5a:	d001      	beq.n	9b60 <_vfprintf_r+0x1848>
    9b5c:	f7ff f8ce 	bl	8cfc <_vfprintf_r+0x9e4>
    9b60:	9922      	ldr	r1, [sp, #136]	; 0x88
    9b62:	9c2a      	ldr	r4, [sp, #168]	; 0xa8
    9b64:	9b29      	ldr	r3, [sp, #164]	; 0xa4
    9b66:	aa2b      	add	r2, sp, #172	; 0xac
    9b68:	f7ff fac1 	bl	90ee <_vfprintf_r+0xdd6>
    9b6c:	4641      	mov	r1, r8
    9b6e:	4658      	mov	r0, fp
    9b70:	aa28      	add	r2, sp, #160	; 0xa0
    9b72:	f003 fb8f 	bl	d294 <__sprint_r>
    9b76:	2800      	cmp	r0, #0
    9b78:	d001      	beq.n	9b7e <_vfprintf_r+0x1866>
    9b7a:	f7ff f8bf 	bl	8cfc <_vfprintf_r+0x9e4>
    9b7e:	9c2a      	ldr	r4, [sp, #168]	; 0xa8
    9b80:	af2b      	add	r7, sp, #172	; 0xac
    9b82:	f7ff f988 	bl	8e96 <_vfprintf_r+0xb7e>
    9b86:	464b      	mov	r3, r9
    9b88:	07db      	lsls	r3, r3, #31
    9b8a:	d401      	bmi.n	9b90 <_vfprintf_r+0x1878>
    9b8c:	f7fe fd0f 	bl	85ae <_vfprintf_r+0x296>
    9b90:	9b1a      	ldr	r3, [sp, #104]	; 0x68
    9b92:	603b      	str	r3, [r7, #0]
    9b94:	9b19      	ldr	r3, [sp, #100]	; 0x64
    9b96:	469c      	mov	ip, r3
    9b98:	607b      	str	r3, [r7, #4]
    9b9a:	9b29      	ldr	r3, [sp, #164]	; 0xa4
    9b9c:	4464      	add	r4, ip
    9b9e:	930c      	str	r3, [sp, #48]	; 0x30
    9ba0:	3301      	adds	r3, #1
    9ba2:	942a      	str	r4, [sp, #168]	; 0xa8
    9ba4:	9329      	str	r3, [sp, #164]	; 0xa4
    9ba6:	2b07      	cmp	r3, #7
    9ba8:	dcd1      	bgt.n	9b4e <_vfprintf_r+0x1836>
    9baa:	003a      	movs	r2, r7
    9bac:	3208      	adds	r2, #8
    9bae:	f7ff faa2 	bl	90f6 <_vfprintf_r+0xdde>
    9bb2:	4641      	mov	r1, r8
    9bb4:	4658      	mov	r0, fp
    9bb6:	aa28      	add	r2, sp, #160	; 0xa0
    9bb8:	f003 fb6c 	bl	d294 <__sprint_r>
    9bbc:	2800      	cmp	r0, #0
    9bbe:	d001      	beq.n	9bc4 <_vfprintf_r+0x18ac>
    9bc0:	f7ff f89c 	bl	8cfc <_vfprintf_r+0x9e4>
    9bc4:	7839      	ldrb	r1, [r7, #0]
    9bc6:	9a2a      	ldr	r2, [sp, #168]	; 0xa8
    9bc8:	ab2b      	add	r3, sp, #172	; 0xac
    9bca:	e753      	b.n	9a74 <_vfprintf_r+0x175c>
    9bcc:	46a1      	mov	r9, r4
    9bce:	46bb      	mov	fp, r7
    9bd0:	f7ff f896 	bl	8d00 <_vfprintf_r+0x9e8>
    9bd4:	4641      	mov	r1, r8
    9bd6:	4658      	mov	r0, fp
    9bd8:	aa28      	add	r2, sp, #160	; 0xa0
    9bda:	f003 fb5b 	bl	d294 <__sprint_r>
    9bde:	2800      	cmp	r0, #0
    9be0:	d001      	beq.n	9be6 <_vfprintf_r+0x18ce>
    9be2:	f7ff f88b 	bl	8cfc <_vfprintf_r+0x9e4>
    9be6:	9b22      	ldr	r3, [sp, #136]	; 0x88
    9be8:	9c2a      	ldr	r4, [sp, #168]	; 0xa8
    9bea:	af2b      	add	r7, sp, #172	; 0xac
    9bec:	f7ff f97d 	bl	8eea <_vfprintf_r+0xbd2>
    9bf0:	ab1a      	add	r3, sp, #104	; 0x68
    9bf2:	002a      	movs	r2, r5
    9bf4:	7edb      	ldrb	r3, [r3, #27]
    9bf6:	9507      	str	r5, [sp, #28]
    9bf8:	940e      	str	r4, [sp, #56]	; 0x38
    9bfa:	f7fe fd55 	bl	86a8 <_vfprintf_r+0x390>
    9bfe:	4641      	mov	r1, r8
    9c00:	4658      	mov	r0, fp
    9c02:	aa28      	add	r2, sp, #160	; 0xa0
    9c04:	f003 fb46 	bl	d294 <__sprint_r>
    9c08:	2800      	cmp	r0, #0
    9c0a:	d001      	beq.n	9c10 <_vfprintf_r+0x18f8>
    9c0c:	f7ff f876 	bl	8cfc <_vfprintf_r+0x9e4>
    9c10:	9b14      	ldr	r3, [sp, #80]	; 0x50
    9c12:	9a22      	ldr	r2, [sp, #136]	; 0x88
    9c14:	9c2a      	ldr	r4, [sp, #168]	; 0xa8
    9c16:	1a9b      	subs	r3, r3, r2
    9c18:	af2b      	add	r7, sp, #172	; 0xac
    9c1a:	f7ff f97e 	bl	8f1a <_vfprintf_r+0xc02>
    9c1e:	2c09      	cmp	r4, #9
    9c20:	d901      	bls.n	9c26 <_vfprintf_r+0x190e>
    9c22:	f7ff fc09 	bl	9438 <_vfprintf_r+0x1120>
    9c26:	e422      	b.n	946e <_vfprintf_r+0x1156>
    9c28:	9a19      	ldr	r2, [sp, #100]	; 0x64
    9c2a:	4694      	mov	ip, r2
    9c2c:	2267      	movs	r2, #103	; 0x67
    9c2e:	9b14      	ldr	r3, [sp, #80]	; 0x50
    9c30:	9211      	str	r2, [sp, #68]	; 0x44
    9c32:	9a12      	ldr	r2, [sp, #72]	; 0x48
    9c34:	4463      	add	r3, ip
    9c36:	930c      	str	r3, [sp, #48]	; 0x30
    9c38:	2a00      	cmp	r2, #0
    9c3a:	dd00      	ble.n	9c3e <_vfprintf_r+0x1926>
    9c3c:	e687      	b.n	994e <_vfprintf_r+0x1636>
    9c3e:	1a98      	subs	r0, r3, r2
    9c40:	1c42      	adds	r2, r0, #1
    9c42:	43d3      	mvns	r3, r2
    9c44:	17db      	asrs	r3, r3, #31
    9c46:	920c      	str	r2, [sp, #48]	; 0x30
    9c48:	401a      	ands	r2, r3
    9c4a:	9207      	str	r2, [sp, #28]
    9c4c:	e688      	b.n	9960 <_vfprintf_r+0x1648>
    9c4e:	424d      	negs	r5, r1
    9c50:	3110      	adds	r1, #16
    9c52:	db00      	blt.n	9c56 <_vfprintf_r+0x193e>
    9c54:	e18b      	b.n	9f6e <_vfprintf_r+0x1c56>
    9c56:	483f      	ldr	r0, [pc, #252]	; (9d54 <_vfprintf_r+0x1a3c>)
    9c58:	46b2      	mov	sl, r6
    9c5a:	0021      	movs	r1, r4
    9c5c:	2710      	movs	r7, #16
    9c5e:	465e      	mov	r6, fp
    9c60:	0004      	movs	r4, r0
    9c62:	900f      	str	r0, [sp, #60]	; 0x3c
    9c64:	e003      	b.n	9c6e <_vfprintf_r+0x1956>
    9c66:	3208      	adds	r2, #8
    9c68:	3d10      	subs	r5, #16
    9c6a:	2d10      	cmp	r5, #16
    9c6c:	dd4b      	ble.n	9d06 <_vfprintf_r+0x19ee>
    9c6e:	3110      	adds	r1, #16
    9c70:	3301      	adds	r3, #1
    9c72:	6014      	str	r4, [r2, #0]
    9c74:	6057      	str	r7, [r2, #4]
    9c76:	912a      	str	r1, [sp, #168]	; 0xa8
    9c78:	9329      	str	r3, [sp, #164]	; 0xa4
    9c7a:	2b07      	cmp	r3, #7
    9c7c:	ddf3      	ble.n	9c66 <_vfprintf_r+0x194e>
    9c7e:	4641      	mov	r1, r8
    9c80:	0030      	movs	r0, r6
    9c82:	aa28      	add	r2, sp, #160	; 0xa0
    9c84:	f003 fb06 	bl	d294 <__sprint_r>
    9c88:	2800      	cmp	r0, #0
    9c8a:	d000      	beq.n	9c8e <_vfprintf_r+0x1976>
    9c8c:	e133      	b.n	9ef6 <_vfprintf_r+0x1bde>
    9c8e:	992a      	ldr	r1, [sp, #168]	; 0xa8
    9c90:	9b29      	ldr	r3, [sp, #164]	; 0xa4
    9c92:	aa2b      	add	r2, sp, #172	; 0xac
    9c94:	e7e8      	b.n	9c68 <_vfprintf_r+0x1950>
    9c96:	4641      	mov	r1, r8
    9c98:	4648      	mov	r0, r9
    9c9a:	aa28      	add	r2, sp, #160	; 0xa0
    9c9c:	f003 fafa 	bl	d294 <__sprint_r>
    9ca0:	2800      	cmp	r0, #0
    9ca2:	d100      	bne.n	9ca6 <_vfprintf_r+0x198e>
    9ca4:	e455      	b.n	9552 <_vfprintf_r+0x123a>
    9ca6:	f7ff f831 	bl	8d0c <_vfprintf_r+0x9f4>
    9caa:	6e5b      	ldr	r3, [r3, #100]	; 0x64
    9cac:	07db      	lsls	r3, r3, #31
    9cae:	d407      	bmi.n	9cc0 <_vfprintf_r+0x19a8>
    9cb0:	465b      	mov	r3, fp
    9cb2:	899b      	ldrh	r3, [r3, #12]
    9cb4:	059b      	lsls	r3, r3, #22
    9cb6:	d403      	bmi.n	9cc0 <_vfprintf_r+0x19a8>
    9cb8:	465b      	mov	r3, fp
    9cba:	6d98      	ldr	r0, [r3, #88]	; 0x58
    9cbc:	f001 ffea 	bl	bc94 <__retarget_lock_release_recursive>
    9cc0:	2301      	movs	r3, #1
    9cc2:	425b      	negs	r3, r3
    9cc4:	9308      	str	r3, [sp, #32]
    9cc6:	f7ff f82d 	bl	8d24 <_vfprintf_r+0xa0c>
    9cca:	2d45      	cmp	r5, #69	; 0x45
    9ccc:	d000      	beq.n	9cd0 <_vfprintf_r+0x19b8>
    9cce:	e131      	b.n	9f34 <_vfprintf_r+0x1c1c>
    9cd0:	4653      	mov	r3, sl
    9cd2:	1c5c      	adds	r4, r3, #1
    9cd4:	ab26      	add	r3, sp, #152	; 0x98
    9cd6:	9304      	str	r3, [sp, #16]
    9cd8:	ab23      	add	r3, sp, #140	; 0x8c
    9cda:	9303      	str	r3, [sp, #12]
    9cdc:	ab22      	add	r3, sp, #136	; 0x88
    9cde:	9302      	str	r3, [sp, #8]
    9ce0:	2302      	movs	r3, #2
    9ce2:	4658      	mov	r0, fp
    9ce4:	9300      	str	r3, [sp, #0]
    9ce6:	9401      	str	r4, [sp, #4]
    9ce8:	9a07      	ldr	r2, [sp, #28]
    9cea:	9b0c      	ldr	r3, [sp, #48]	; 0x30
    9cec:	f000 fb46 	bl	a37c <_dtoa_r>
    9cf0:	0006      	movs	r6, r0
    9cf2:	e5e6      	b.n	98c2 <_vfprintf_r+0x15aa>
    9cf4:	2200      	movs	r2, #0
    9cf6:	000c      	movs	r4, r1
    9cf8:	9210      	str	r2, [sp, #64]	; 0x40
    9cfa:	f7ff fa6e 	bl	91da <_vfprintf_r+0xec2>
    9cfe:	4a15      	ldr	r2, [pc, #84]	; (9d54 <_vfprintf_r+0x1a3c>)
    9d00:	920f      	str	r2, [sp, #60]	; 0x3c
    9d02:	f7fe ff7c 	bl	8bfe <_vfprintf_r+0x8e6>
    9d06:	46b3      	mov	fp, r6
    9d08:	000c      	movs	r4, r1
    9d0a:	4656      	mov	r6, sl
    9d0c:	990f      	ldr	r1, [sp, #60]	; 0x3c
    9d0e:	1964      	adds	r4, r4, r5
    9d10:	3301      	adds	r3, #1
    9d12:	6011      	str	r1, [r2, #0]
    9d14:	6055      	str	r5, [r2, #4]
    9d16:	942a      	str	r4, [sp, #168]	; 0xa8
    9d18:	9329      	str	r3, [sp, #164]	; 0xa4
    9d1a:	2b07      	cmp	r3, #7
    9d1c:	dc00      	bgt.n	9d20 <_vfprintf_r+0x1a08>
    9d1e:	e745      	b.n	9bac <_vfprintf_r+0x1894>
    9d20:	4641      	mov	r1, r8
    9d22:	4658      	mov	r0, fp
    9d24:	aa28      	add	r2, sp, #160	; 0xa0
    9d26:	f003 fab5 	bl	d294 <__sprint_r>
    9d2a:	2800      	cmp	r0, #0
    9d2c:	d001      	beq.n	9d32 <_vfprintf_r+0x1a1a>
    9d2e:	f7fe ffe5 	bl	8cfc <_vfprintf_r+0x9e4>
    9d32:	9c2a      	ldr	r4, [sp, #168]	; 0xa8
    9d34:	9b29      	ldr	r3, [sp, #164]	; 0xa4
    9d36:	aa2b      	add	r2, sp, #172	; 0xac
    9d38:	f7ff f9dd 	bl	90f6 <_vfprintf_r+0xdde>
    9d3c:	2367      	movs	r3, #103	; 0x67
    9d3e:	9311      	str	r3, [sp, #68]	; 0x44
    9d40:	991b      	ldr	r1, [sp, #108]	; 0x6c
    9d42:	780b      	ldrb	r3, [r1, #0]
    9d44:	2bff      	cmp	r3, #255	; 0xff
    9d46:	d100      	bne.n	9d4a <_vfprintf_r+0x1a32>
    9d48:	e10d      	b.n	9f66 <_vfprintf_r+0x1c4e>
    9d4a:	2200      	movs	r2, #0
    9d4c:	9215      	str	r2, [sp, #84]	; 0x54
    9d4e:	9213      	str	r2, [sp, #76]	; 0x4c
    9d50:	9a12      	ldr	r2, [sp, #72]	; 0x48
    9d52:	e007      	b.n	9d64 <_vfprintf_r+0x1a4c>
    9d54:	00010c94 	.word	0x00010c94
    9d58:	9813      	ldr	r0, [sp, #76]	; 0x4c
    9d5a:	3001      	adds	r0, #1
    9d5c:	9013      	str	r0, [sp, #76]	; 0x4c
    9d5e:	3101      	adds	r1, #1
    9d60:	2bff      	cmp	r3, #255	; 0xff
    9d62:	d03c      	beq.n	9dde <_vfprintf_r+0x1ac6>
    9d64:	4293      	cmp	r3, r2
    9d66:	da3a      	bge.n	9dde <_vfprintf_r+0x1ac6>
    9d68:	1ad2      	subs	r2, r2, r3
    9d6a:	784b      	ldrb	r3, [r1, #1]
    9d6c:	2b00      	cmp	r3, #0
    9d6e:	d1f3      	bne.n	9d58 <_vfprintf_r+0x1a40>
    9d70:	9b15      	ldr	r3, [sp, #84]	; 0x54
    9d72:	3301      	adds	r3, #1
    9d74:	9315      	str	r3, [sp, #84]	; 0x54
    9d76:	780b      	ldrb	r3, [r1, #0]
    9d78:	e7f2      	b.n	9d60 <_vfprintf_r+0x1a48>
    9d7a:	4641      	mov	r1, r8
    9d7c:	4658      	mov	r0, fp
    9d7e:	aa28      	add	r2, sp, #160	; 0xa0
    9d80:	f003 fa88 	bl	d294 <__sprint_r>
    9d84:	2800      	cmp	r0, #0
    9d86:	d001      	beq.n	9d8c <_vfprintf_r+0x1a74>
    9d88:	f7fe ffb8 	bl	8cfc <_vfprintf_r+0x9e4>
    9d8c:	9c2a      	ldr	r4, [sp, #168]	; 0xa8
    9d8e:	af2b      	add	r7, sp, #172	; 0xac
    9d90:	f7ff f889 	bl	8ea6 <_vfprintf_r+0xb8e>
    9d94:	9b19      	ldr	r3, [sp, #100]	; 0x64
    9d96:	469c      	mov	ip, r3
    9d98:	4462      	add	r2, ip
    9d9a:	0013      	movs	r3, r2
    9d9c:	4453      	add	r3, sl
    9d9e:	930c      	str	r3, [sp, #48]	; 0x30
    9da0:	2366      	movs	r3, #102	; 0x66
    9da2:	9311      	str	r3, [sp, #68]	; 0x44
    9da4:	e5d3      	b.n	994e <_vfprintf_r+0x1636>
    9da6:	46c3      	mov	fp, r8
    9da8:	f7fe ffb0 	bl	8d0c <_vfprintf_r+0x9f4>
    9dac:	a91a      	add	r1, sp, #104	; 0x68
    9dae:	232a      	movs	r3, #42	; 0x2a
    9db0:	468c      	mov	ip, r1
    9db2:	4463      	add	r3, ip
    9db4:	2a41      	cmp	r2, #65	; 0x41
    9db6:	d006      	beq.n	9dc6 <_vfprintf_r+0x1aae>
    9db8:	000a      	movs	r2, r1
    9dba:	212a      	movs	r1, #42	; 0x2a
    9dbc:	2330      	movs	r3, #48	; 0x30
    9dbe:	1852      	adds	r2, r2, r1
    9dc0:	7013      	strb	r3, [r2, #0]
    9dc2:	3b05      	subs	r3, #5
    9dc4:	4463      	add	r3, ip
    9dc6:	0020      	movs	r0, r4
    9dc8:	3030      	adds	r0, #48	; 0x30
    9dca:	7018      	strb	r0, [r3, #0]
    9dcc:	aa24      	add	r2, sp, #144	; 0x90
    9dce:	3301      	adds	r3, #1
    9dd0:	1a9b      	subs	r3, r3, r2
    9dd2:	931d      	str	r3, [sp, #116]	; 0x74
    9dd4:	e4f1      	b.n	97ba <_vfprintf_r+0x14a2>
    9dd6:	9b11      	ldr	r3, [sp, #68]	; 0x44
    9dd8:	061b      	lsls	r3, r3, #24
    9dda:	0e1b      	lsrs	r3, r3, #24
    9ddc:	e49e      	b.n	971c <_vfprintf_r+0x1404>
    9dde:	9212      	str	r2, [sp, #72]	; 0x48
    9de0:	911b      	str	r1, [sp, #108]	; 0x6c
    9de2:	9a15      	ldr	r2, [sp, #84]	; 0x54
    9de4:	4694      	mov	ip, r2
    9de6:	9b13      	ldr	r3, [sp, #76]	; 0x4c
    9de8:	9a1e      	ldr	r2, [sp, #120]	; 0x78
    9dea:	4463      	add	r3, ip
    9dec:	435a      	muls	r2, r3
    9dee:	0013      	movs	r3, r2
    9df0:	9a0c      	ldr	r2, [sp, #48]	; 0x30
    9df2:	4694      	mov	ip, r2
    9df4:	449c      	add	ip, r3
    9df6:	4662      	mov	r2, ip
    9df8:	43d3      	mvns	r3, r2
    9dfa:	17db      	asrs	r3, r3, #31
    9dfc:	920c      	str	r2, [sp, #48]	; 0x30
    9dfe:	401a      	ands	r2, r3
    9e00:	9b0d      	ldr	r3, [sp, #52]	; 0x34
    9e02:	4699      	mov	r9, r3
    9e04:	2300      	movs	r3, #0
    9e06:	9207      	str	r2, [sp, #28]
    9e08:	930d      	str	r3, [sp, #52]	; 0x34
    9e0a:	e4f4      	b.n	97f6 <_vfprintf_r+0x14de>
    9e0c:	9b17      	ldr	r3, [sp, #92]	; 0x5c
    9e0e:	2b00      	cmp	r3, #0
    9e10:	da00      	bge.n	9e14 <_vfprintf_r+0x1afc>
    9e12:	e083      	b.n	9f1c <_vfprintf_r+0x1c04>
    9e14:	ab1a      	add	r3, sp, #104	; 0x68
    9e16:	7edb      	ldrb	r3, [r3, #27]
    9e18:	9a11      	ldr	r2, [sp, #68]	; 0x44
    9e1a:	2a47      	cmp	r2, #71	; 0x47
    9e1c:	dd7b      	ble.n	9f16 <_vfprintf_r+0x1bfe>
    9e1e:	4e55      	ldr	r6, [pc, #340]	; (9f74 <_vfprintf_r+0x1c5c>)
    9e20:	f7fe fc39 	bl	8696 <_vfprintf_r+0x37e>
    9e24:	2301      	movs	r3, #1
    9e26:	469a      	mov	sl, r3
    9e28:	2280      	movs	r2, #128	; 0x80
    9e2a:	9b16      	ldr	r3, [sp, #88]	; 0x58
    9e2c:	9c17      	ldr	r4, [sp, #92]	; 0x5c
    9e2e:	0612      	lsls	r2, r2, #24
    9e30:	4694      	mov	ip, r2
    9e32:	9307      	str	r3, [sp, #28]
    9e34:	0023      	movs	r3, r4
    9e36:	4463      	add	r3, ip
    9e38:	930c      	str	r3, [sp, #48]	; 0x30
    9e3a:	232d      	movs	r3, #45	; 0x2d
    9e3c:	9310      	str	r3, [sp, #64]	; 0x40
    9e3e:	e51f      	b.n	9880 <_vfprintf_r+0x1568>
    9e40:	9b13      	ldr	r3, [sp, #76]	; 0x4c
    9e42:	9326      	str	r3, [sp, #152]	; 0x98
    9e44:	9b12      	ldr	r3, [sp, #72]	; 0x48
    9e46:	9907      	ldr	r1, [sp, #28]
    9e48:	3b01      	subs	r3, #1
    9e4a:	781a      	ldrb	r2, [r3, #0]
    9e4c:	7bc9      	ldrb	r1, [r1, #15]
    9e4e:	428a      	cmp	r2, r1
    9e50:	d107      	bne.n	9e62 <_vfprintf_r+0x1b4a>
    9e52:	2030      	movs	r0, #48	; 0x30
    9e54:	7018      	strb	r0, [r3, #0]
    9e56:	9b26      	ldr	r3, [sp, #152]	; 0x98
    9e58:	3b01      	subs	r3, #1
    9e5a:	9326      	str	r3, [sp, #152]	; 0x98
    9e5c:	781a      	ldrb	r2, [r3, #0]
    9e5e:	4291      	cmp	r1, r2
    9e60:	d0f8      	beq.n	9e54 <_vfprintf_r+0x1b3c>
    9e62:	2a39      	cmp	r2, #57	; 0x39
    9e64:	d061      	beq.n	9f2a <_vfprintf_r+0x1c12>
    9e66:	3201      	adds	r2, #1
    9e68:	0612      	lsls	r2, r2, #24
    9e6a:	0e12      	lsrs	r2, r2, #24
    9e6c:	701a      	strb	r2, [r3, #0]
    9e6e:	f7ff fa3b 	bl	92e8 <_vfprintf_r+0xfd0>
    9e72:	9912      	ldr	r1, [sp, #72]	; 0x48
    9e74:	0025      	movs	r5, r4
    9e76:	971b      	str	r7, [sp, #108]	; 0x6c
    9e78:	4689      	mov	r9, r1
    9e7a:	001f      	movs	r7, r3
    9e7c:	0014      	movs	r4, r2
    9e7e:	9e11      	ldr	r6, [sp, #68]	; 0x44
    9e80:	9b0c      	ldr	r3, [sp, #48]	; 0x30
    9e82:	429d      	cmp	r5, r3
    9e84:	d801      	bhi.n	9e8a <_vfprintf_r+0x1b72>
    9e86:	f7ff f817 	bl	8eb8 <_vfprintf_r+0xba0>
    9e8a:	001d      	movs	r5, r3
    9e8c:	f7ff f814 	bl	8eb8 <_vfprintf_r+0xba0>
    9e90:	464b      	mov	r3, r9
    9e92:	9313      	str	r3, [sp, #76]	; 0x4c
    9e94:	9b15      	ldr	r3, [sp, #84]	; 0x54
    9e96:	9712      	str	r7, [sp, #72]	; 0x48
    9e98:	4699      	mov	r9, r3
    9e9a:	4657      	mov	r7, sl
    9e9c:	46b2      	mov	sl, r6
    9e9e:	9e14      	ldr	r6, [sp, #80]	; 0x50
    9ea0:	f7ff f9f7 	bl	9292 <_vfprintf_r+0xf7a>
    9ea4:	464b      	mov	r3, r9
    9ea6:	07db      	lsls	r3, r3, #31
    9ea8:	d400      	bmi.n	9eac <_vfprintf_r+0x1b94>
    9eaa:	e493      	b.n	97d4 <_vfprintf_r+0x14bc>
    9eac:	e48d      	b.n	97ca <_vfprintf_r+0x14b2>
    9eae:	4a32      	ldr	r2, [pc, #200]	; (9f78 <_vfprintf_r+0x1c60>)
    9eb0:	920f      	str	r2, [sp, #60]	; 0x3c
    9eb2:	f7ff fb33 	bl	951c <_vfprintf_r+0x1204>
    9eb6:	4b31      	ldr	r3, [pc, #196]	; (9f7c <_vfprintf_r+0x1c64>)
    9eb8:	9307      	str	r3, [sp, #28]
    9eba:	f7ff f9a9 	bl	9210 <_vfprintf_r+0xef8>
    9ebe:	464a      	mov	r2, r9
    9ec0:	4013      	ands	r3, r2
    9ec2:	4652      	mov	r2, sl
    9ec4:	4313      	orrs	r3, r2
    9ec6:	d106      	bne.n	9ed6 <_vfprintf_r+0x1bbe>
    9ec8:	2301      	movs	r3, #1
    9eca:	9307      	str	r3, [sp, #28]
    9ecc:	3365      	adds	r3, #101	; 0x65
    9ece:	9311      	str	r3, [sp, #68]	; 0x44
    9ed0:	3b65      	subs	r3, #101	; 0x65
    9ed2:	930c      	str	r3, [sp, #48]	; 0x30
    9ed4:	e544      	b.n	9960 <_vfprintf_r+0x1648>
    9ed6:	9b19      	ldr	r3, [sp, #100]	; 0x64
    9ed8:	1c58      	adds	r0, r3, #1
    9eda:	0002      	movs	r2, r0
    9edc:	4452      	add	r2, sl
    9ede:	43d3      	mvns	r3, r2
    9ee0:	17db      	asrs	r3, r3, #31
    9ee2:	920c      	str	r2, [sp, #48]	; 0x30
    9ee4:	401a      	ands	r2, r3
    9ee6:	2366      	movs	r3, #102	; 0x66
    9ee8:	9207      	str	r2, [sp, #28]
    9eea:	9311      	str	r3, [sp, #68]	; 0x44
    9eec:	e538      	b.n	9960 <_vfprintf_r+0x1648>
    9eee:	4b22      	ldr	r3, [pc, #136]	; (9f78 <_vfprintf_r+0x1c60>)
    9ef0:	930f      	str	r3, [sp, #60]	; 0x3c
    9ef2:	f7ff fb73 	bl	95dc <_vfprintf_r+0x12c4>
    9ef6:	46b1      	mov	r9, r6
    9ef8:	46c3      	mov	fp, r8
    9efa:	f7fe ff01 	bl	8d00 <_vfprintf_r+0x9e8>
    9efe:	9a0e      	ldr	r2, [sp, #56]	; 0x38
    9f00:	ca20      	ldmia	r2!, {r5}
    9f02:	2d00      	cmp	r5, #0
    9f04:	da01      	bge.n	9f0a <_vfprintf_r+0x1bf2>
    9f06:	2501      	movs	r5, #1
    9f08:	426d      	negs	r5, r5
    9f0a:	9b06      	ldr	r3, [sp, #24]
    9f0c:	920e      	str	r2, [sp, #56]	; 0x38
    9f0e:	785b      	ldrb	r3, [r3, #1]
    9f10:	9006      	str	r0, [sp, #24]
    9f12:	f7fe fa8d 	bl	8430 <_vfprintf_r+0x118>
    9f16:	4e1a      	ldr	r6, [pc, #104]	; (9f80 <_vfprintf_r+0x1c68>)
    9f18:	f7fe fbbd 	bl	8696 <_vfprintf_r+0x37e>
    9f1c:	232d      	movs	r3, #45	; 0x2d
    9f1e:	aa1a      	add	r2, sp, #104	; 0x68
    9f20:	76d3      	strb	r3, [r2, #27]
    9f22:	e779      	b.n	9e18 <_vfprintf_r+0x1b00>
    9f24:	4a14      	ldr	r2, [pc, #80]	; (9f78 <_vfprintf_r+0x1c60>)
    9f26:	920f      	str	r2, [sp, #60]	; 0x3c
    9f28:	e54f      	b.n	99ca <_vfprintf_r+0x16b2>
    9f2a:	9a07      	ldr	r2, [sp, #28]
    9f2c:	7a92      	ldrb	r2, [r2, #10]
    9f2e:	701a      	strb	r2, [r3, #0]
    9f30:	f7ff f9da 	bl	92e8 <_vfprintf_r+0xfd0>
    9f34:	4654      	mov	r4, sl
    9f36:	f7ff fbb1 	bl	969c <_vfprintf_r+0x1384>
    9f3a:	9b14      	ldr	r3, [sp, #80]	; 0x50
    9f3c:	469c      	mov	ip, r3
    9f3e:	44b4      	add	ip, r6
    9f40:	4663      	mov	r3, ip
    9f42:	930c      	str	r3, [sp, #48]	; 0x30
    9f44:	e79c      	b.n	9e80 <_vfprintf_r+0x1b68>
    9f46:	4643      	mov	r3, r8
    9f48:	899a      	ldrh	r2, [r3, #12]
    9f4a:	2340      	movs	r3, #64	; 0x40
    9f4c:	4313      	orrs	r3, r2
    9f4e:	4642      	mov	r2, r8
    9f50:	46c3      	mov	fp, r8
    9f52:	8193      	strh	r3, [r2, #12]
    9f54:	f7fe feda 	bl	8d0c <_vfprintf_r+0x9f4>
    9f58:	2302      	movs	r3, #2
    9f5a:	931d      	str	r3, [sp, #116]	; 0x74
    9f5c:	e42d      	b.n	97ba <_vfprintf_r+0x14a2>
    9f5e:	2300      	movs	r3, #0
    9f60:	930d      	str	r3, [sp, #52]	; 0x34
    9f62:	f7ff f9c8 	bl	92f6 <_vfprintf_r+0xfde>
    9f66:	2300      	movs	r3, #0
    9f68:	9315      	str	r3, [sp, #84]	; 0x54
    9f6a:	9313      	str	r3, [sp, #76]	; 0x4c
    9f6c:	e739      	b.n	9de2 <_vfprintf_r+0x1aca>
    9f6e:	4902      	ldr	r1, [pc, #8]	; (9f78 <_vfprintf_r+0x1c60>)
    9f70:	910f      	str	r1, [sp, #60]	; 0x3c
    9f72:	e6cb      	b.n	9d0c <_vfprintf_r+0x19f4>
    9f74:	00010ae0 	.word	0x00010ae0
    9f78:	00010c94 	.word	0x00010c94
    9f7c:	00010ae4 	.word	0x00010ae4
    9f80:	00010adc 	.word	0x00010adc

00009f84 <vfprintf>:
    9f84:	b510      	push	{r4, lr}
    9f86:	0004      	movs	r4, r0
    9f88:	0013      	movs	r3, r2
    9f8a:	4a04      	ldr	r2, [pc, #16]	; (9f9c <vfprintf+0x18>)
    9f8c:	6810      	ldr	r0, [r2, #0]
    9f8e:	000a      	movs	r2, r1
    9f90:	0021      	movs	r1, r4
    9f92:	f7fe f9c1 	bl	8318 <_vfprintf_r>
    9f96:	bc10      	pop	{r4}
    9f98:	bc02      	pop	{r1}
    9f9a:	4708      	bx	r1
    9f9c:	0002120c 	.word	0x0002120c

00009fa0 <__sbprintf>:
    9fa0:	b5f0      	push	{r4, r5, r6, r7, lr}
    9fa2:	001f      	movs	r7, r3
    9fa4:	2302      	movs	r3, #2
    9fa6:	4c20      	ldr	r4, [pc, #128]	; (a028 <__sbprintf+0x88>)
    9fa8:	44a5      	add	sp, r4
    9faa:	000c      	movs	r4, r1
    9fac:	8989      	ldrh	r1, [r1, #12]
    9fae:	4399      	bics	r1, r3
    9fb0:	466b      	mov	r3, sp
    9fb2:	0015      	movs	r5, r2
    9fb4:	466a      	mov	r2, sp
    9fb6:	8199      	strh	r1, [r3, #12]
    9fb8:	6e63      	ldr	r3, [r4, #100]	; 0x64
    9fba:	9319      	str	r3, [sp, #100]	; 0x64
    9fbc:	89e3      	ldrh	r3, [r4, #14]
    9fbe:	81d3      	strh	r3, [r2, #14]
    9fc0:	69e3      	ldr	r3, [r4, #28]
    9fc2:	9307      	str	r3, [sp, #28]
    9fc4:	6a63      	ldr	r3, [r4, #36]	; 0x24
    9fc6:	2180      	movs	r1, #128	; 0x80
    9fc8:	9309      	str	r3, [sp, #36]	; 0x24
    9fca:	ab1a      	add	r3, sp, #104	; 0x68
    9fcc:	0006      	movs	r6, r0
    9fce:	9300      	str	r3, [sp, #0]
    9fd0:	9304      	str	r3, [sp, #16]
    9fd2:	2300      	movs	r3, #0
    9fd4:	00c9      	lsls	r1, r1, #3
    9fd6:	a816      	add	r0, sp, #88	; 0x58
    9fd8:	9102      	str	r1, [sp, #8]
    9fda:	9105      	str	r1, [sp, #20]
    9fdc:	9306      	str	r3, [sp, #24]
    9fde:	f001 fe49 	bl	bc74 <__retarget_lock_init_recursive>
    9fe2:	002a      	movs	r2, r5
    9fe4:	003b      	movs	r3, r7
    9fe6:	4669      	mov	r1, sp
    9fe8:	0030      	movs	r0, r6
    9fea:	f7fe f995 	bl	8318 <_vfprintf_r>
    9fee:	1e05      	subs	r5, r0, #0
    9ff0:	da10      	bge.n	a014 <__sbprintf+0x74>
    9ff2:	466b      	mov	r3, sp
    9ff4:	899b      	ldrh	r3, [r3, #12]
    9ff6:	065b      	lsls	r3, r3, #25
    9ff8:	d503      	bpl.n	a002 <__sbprintf+0x62>
    9ffa:	2240      	movs	r2, #64	; 0x40
    9ffc:	89a3      	ldrh	r3, [r4, #12]
    9ffe:	4313      	orrs	r3, r2
    a000:	81a3      	strh	r3, [r4, #12]
    a002:	9816      	ldr	r0, [sp, #88]	; 0x58
    a004:	f001 fe3a 	bl	bc7c <__retarget_lock_close_recursive>
    a008:	0028      	movs	r0, r5
    a00a:	4b08      	ldr	r3, [pc, #32]	; (a02c <__sbprintf+0x8c>)
    a00c:	449d      	add	sp, r3
    a00e:	bcf0      	pop	{r4, r5, r6, r7}
    a010:	bc02      	pop	{r1}
    a012:	4708      	bx	r1
    a014:	4669      	mov	r1, sp
    a016:	0030      	movs	r0, r6
    a018:	f001 fa74 	bl	b504 <_fflush_r>
    a01c:	2800      	cmp	r0, #0
    a01e:	d0e8      	beq.n	9ff2 <__sbprintf+0x52>
    a020:	2501      	movs	r5, #1
    a022:	426d      	negs	r5, r5
    a024:	e7e5      	b.n	9ff2 <__sbprintf+0x52>
    a026:	46c0      	nop			; (mov r8, r8)
    a028:	fffffb94 	.word	0xfffffb94
    a02c:	0000046c 	.word	0x0000046c

0000a030 <__swsetup_r>:
    a030:	4b38      	ldr	r3, [pc, #224]	; (a114 <__swsetup_r+0xe4>)
    a032:	b570      	push	{r4, r5, r6, lr}
    a034:	0005      	movs	r5, r0
    a036:	6818      	ldr	r0, [r3, #0]
    a038:	000c      	movs	r4, r1
    a03a:	2800      	cmp	r0, #0
    a03c:	d002      	beq.n	a044 <__swsetup_r+0x14>
    a03e:	6b83      	ldr	r3, [r0, #56]	; 0x38
    a040:	2b00      	cmp	r3, #0
    a042:	d024      	beq.n	a08e <__swsetup_r+0x5e>
    a044:	230c      	movs	r3, #12
    a046:	5ee2      	ldrsh	r2, [r4, r3]
    a048:	0411      	lsls	r1, r2, #16
    a04a:	0c0b      	lsrs	r3, r1, #16
    a04c:	0309      	lsls	r1, r1, #12
    a04e:	d526      	bpl.n	a09e <__swsetup_r+0x6e>
    a050:	6921      	ldr	r1, [r4, #16]
    a052:	2900      	cmp	r1, #0
    a054:	d02f      	beq.n	a0b6 <__swsetup_r+0x86>
    a056:	07d8      	lsls	r0, r3, #31
    a058:	d50a      	bpl.n	a070 <__swsetup_r+0x40>
    a05a:	2000      	movs	r0, #0
    a05c:	60a0      	str	r0, [r4, #8]
    a05e:	6960      	ldr	r0, [r4, #20]
    a060:	4240      	negs	r0, r0
    a062:	61a0      	str	r0, [r4, #24]
    a064:	2000      	movs	r0, #0
    a066:	2900      	cmp	r1, #0
    a068:	d00a      	beq.n	a080 <__swsetup_r+0x50>
    a06a:	bc70      	pop	{r4, r5, r6}
    a06c:	bc02      	pop	{r1}
    a06e:	4708      	bx	r1
    a070:	2000      	movs	r0, #0
    a072:	079d      	lsls	r5, r3, #30
    a074:	d400      	bmi.n	a078 <__swsetup_r+0x48>
    a076:	6960      	ldr	r0, [r4, #20]
    a078:	60a0      	str	r0, [r4, #8]
    a07a:	2000      	movs	r0, #0
    a07c:	2900      	cmp	r1, #0
    a07e:	d1f4      	bne.n	a06a <__swsetup_r+0x3a>
    a080:	061b      	lsls	r3, r3, #24
    a082:	d5f2      	bpl.n	a06a <__swsetup_r+0x3a>
    a084:	2340      	movs	r3, #64	; 0x40
    a086:	431a      	orrs	r2, r3
    a088:	81a2      	strh	r2, [r4, #12]
    a08a:	3801      	subs	r0, #1
    a08c:	e7ed      	b.n	a06a <__swsetup_r+0x3a>
    a08e:	f001 fb01 	bl	b694 <__sinit>
    a092:	230c      	movs	r3, #12
    a094:	5ee2      	ldrsh	r2, [r4, r3]
    a096:	0411      	lsls	r1, r2, #16
    a098:	0c0b      	lsrs	r3, r1, #16
    a09a:	0309      	lsls	r1, r1, #12
    a09c:	d4d8      	bmi.n	a050 <__swsetup_r+0x20>
    a09e:	06d9      	lsls	r1, r3, #27
    a0a0:	d52f      	bpl.n	a102 <__swsetup_r+0xd2>
    a0a2:	075b      	lsls	r3, r3, #29
    a0a4:	d418      	bmi.n	a0d8 <__swsetup_r+0xa8>
    a0a6:	6921      	ldr	r1, [r4, #16]
    a0a8:	2308      	movs	r3, #8
    a0aa:	431a      	orrs	r2, r3
    a0ac:	0413      	lsls	r3, r2, #16
    a0ae:	81a2      	strh	r2, [r4, #12]
    a0b0:	0c1b      	lsrs	r3, r3, #16
    a0b2:	2900      	cmp	r1, #0
    a0b4:	d1cf      	bne.n	a056 <__swsetup_r+0x26>
    a0b6:	20a0      	movs	r0, #160	; 0xa0
    a0b8:	2680      	movs	r6, #128	; 0x80
    a0ba:	0080      	lsls	r0, r0, #2
    a0bc:	00b6      	lsls	r6, r6, #2
    a0be:	4018      	ands	r0, r3
    a0c0:	42b0      	cmp	r0, r6
    a0c2:	d0c8      	beq.n	a056 <__swsetup_r+0x26>
    a0c4:	0021      	movs	r1, r4
    a0c6:	0028      	movs	r0, r5
    a0c8:	f001 fde6 	bl	bc98 <__smakebuf_r>
    a0cc:	230c      	movs	r3, #12
    a0ce:	5ee2      	ldrsh	r2, [r4, r3]
    a0d0:	0413      	lsls	r3, r2, #16
    a0d2:	6921      	ldr	r1, [r4, #16]
    a0d4:	0c1b      	lsrs	r3, r3, #16
    a0d6:	e7be      	b.n	a056 <__swsetup_r+0x26>
    a0d8:	6b21      	ldr	r1, [r4, #48]	; 0x30
    a0da:	2900      	cmp	r1, #0
    a0dc:	d00a      	beq.n	a0f4 <__swsetup_r+0xc4>
    a0de:	0023      	movs	r3, r4
    a0e0:	3340      	adds	r3, #64	; 0x40
    a0e2:	4299      	cmp	r1, r3
    a0e4:	d004      	beq.n	a0f0 <__swsetup_r+0xc0>
    a0e6:	0028      	movs	r0, r5
    a0e8:	f001 fc88 	bl	b9fc <_free_r>
    a0ec:	230c      	movs	r3, #12
    a0ee:	5ee2      	ldrsh	r2, [r4, r3]
    a0f0:	2300      	movs	r3, #0
    a0f2:	6323      	str	r3, [r4, #48]	; 0x30
    a0f4:	2324      	movs	r3, #36	; 0x24
    a0f6:	439a      	bics	r2, r3
    a0f8:	2300      	movs	r3, #0
    a0fa:	6921      	ldr	r1, [r4, #16]
    a0fc:	6063      	str	r3, [r4, #4]
    a0fe:	6021      	str	r1, [r4, #0]
    a100:	e7d2      	b.n	a0a8 <__swsetup_r+0x78>
    a102:	2309      	movs	r3, #9
    a104:	602b      	str	r3, [r5, #0]
    a106:	2340      	movs	r3, #64	; 0x40
    a108:	2001      	movs	r0, #1
    a10a:	431a      	orrs	r2, r3
    a10c:	81a2      	strh	r2, [r4, #12]
    a10e:	4240      	negs	r0, r0
    a110:	e7ab      	b.n	a06a <__swsetup_r+0x3a>
    a112:	46c0      	nop			; (mov r8, r8)
    a114:	0002120c 	.word	0x0002120c

0000a118 <__call_exitprocs>:
    a118:	b5f0      	push	{r4, r5, r6, r7, lr}
    a11a:	464e      	mov	r6, r9
    a11c:	46de      	mov	lr, fp
    a11e:	4657      	mov	r7, sl
    a120:	4645      	mov	r5, r8
    a122:	b5e0      	push	{r5, r6, r7, lr}
    a124:	4b3a      	ldr	r3, [pc, #232]	; (a210 <__call_exitprocs+0xf8>)
    a126:	681b      	ldr	r3, [r3, #0]
    a128:	b083      	sub	sp, #12
    a12a:	9001      	str	r0, [sp, #4]
    a12c:	0018      	movs	r0, r3
    a12e:	9300      	str	r3, [sp, #0]
    a130:	4689      	mov	r9, r1
    a132:	f001 fda7 	bl	bc84 <__retarget_lock_acquire_recursive>
    a136:	22a4      	movs	r2, #164	; 0xa4
    a138:	4b36      	ldr	r3, [pc, #216]	; (a214 <__call_exitprocs+0xfc>)
    a13a:	681b      	ldr	r3, [r3, #0]
    a13c:	0052      	lsls	r2, r2, #1
    a13e:	9300      	str	r3, [sp, #0]
    a140:	589e      	ldr	r6, [r3, r2]
    a142:	2e00      	cmp	r6, #0
    a144:	d03d      	beq.n	a1c2 <__call_exitprocs+0xaa>
    a146:	6875      	ldr	r5, [r6, #4]
    a148:	1e6c      	subs	r4, r5, #1
    a14a:	d43a      	bmi.n	a1c2 <__call_exitprocs+0xaa>
    a14c:	3501      	adds	r5, #1
    a14e:	00ad      	lsls	r5, r5, #2
    a150:	002b      	movs	r3, r5
    a152:	3380      	adds	r3, #128	; 0x80
    a154:	4698      	mov	r8, r3
    a156:	23c4      	movs	r3, #196	; 0xc4
    a158:	005b      	lsls	r3, r3, #1
    a15a:	469b      	mov	fp, r3
    a15c:	1977      	adds	r7, r6, r5
    a15e:	3501      	adds	r5, #1
    a160:	35ff      	adds	r5, #255	; 0xff
    a162:	44b0      	add	r8, r6
    a164:	1975      	adds	r5, r6, r5
    a166:	44b3      	add	fp, r6
    a168:	e007      	b.n	a17a <__call_exitprocs+0x62>
    a16a:	2304      	movs	r3, #4
    a16c:	425b      	negs	r3, r3
    a16e:	469c      	mov	ip, r3
    a170:	3f04      	subs	r7, #4
    a172:	44e0      	add	r8, ip
    a174:	18ed      	adds	r5, r5, r3
    a176:	3c01      	subs	r4, #1
    a178:	d323      	bcc.n	a1c2 <__call_exitprocs+0xaa>
    a17a:	464b      	mov	r3, r9
    a17c:	2b00      	cmp	r3, #0
    a17e:	d002      	beq.n	a186 <__call_exitprocs+0x6e>
    a180:	682b      	ldr	r3, [r5, #0]
    a182:	454b      	cmp	r3, r9
    a184:	d1f1      	bne.n	a16a <__call_exitprocs+0x52>
    a186:	6873      	ldr	r3, [r6, #4]
    a188:	3b01      	subs	r3, #1
    a18a:	683a      	ldr	r2, [r7, #0]
    a18c:	42a3      	cmp	r3, r4
    a18e:	d038      	beq.n	a202 <__call_exitprocs+0xea>
    a190:	2300      	movs	r3, #0
    a192:	603b      	str	r3, [r7, #0]
    a194:	2a00      	cmp	r2, #0
    a196:	d0e8      	beq.n	a16a <__call_exitprocs+0x52>
    a198:	6873      	ldr	r3, [r6, #4]
    a19a:	469a      	mov	sl, r3
    a19c:	2301      	movs	r3, #1
    a19e:	4659      	mov	r1, fp
    a1a0:	40a3      	lsls	r3, r4
    a1a2:	6809      	ldr	r1, [r1, #0]
    a1a4:	4219      	tst	r1, r3
    a1a6:	d119      	bne.n	a1dc <__call_exitprocs+0xc4>
    a1a8:	f000 f836 	bl	a218 <__call_exitprocs+0x100>
    a1ac:	6873      	ldr	r3, [r6, #4]
    a1ae:	4553      	cmp	r3, sl
    a1b0:	d122      	bne.n	a1f8 <__call_exitprocs+0xe0>
    a1b2:	22a4      	movs	r2, #164	; 0xa4
    a1b4:	9b00      	ldr	r3, [sp, #0]
    a1b6:	0052      	lsls	r2, r2, #1
    a1b8:	589b      	ldr	r3, [r3, r2]
    a1ba:	42b3      	cmp	r3, r6
    a1bc:	d0d5      	beq.n	a16a <__call_exitprocs+0x52>
    a1be:	1e1e      	subs	r6, r3, #0
    a1c0:	d1c1      	bne.n	a146 <__call_exitprocs+0x2e>
    a1c2:	4b13      	ldr	r3, [pc, #76]	; (a210 <__call_exitprocs+0xf8>)
    a1c4:	6818      	ldr	r0, [r3, #0]
    a1c6:	f001 fd65 	bl	bc94 <__retarget_lock_release_recursive>
    a1ca:	b003      	add	sp, #12
    a1cc:	bcf0      	pop	{r4, r5, r6, r7}
    a1ce:	46bb      	mov	fp, r7
    a1d0:	46b2      	mov	sl, r6
    a1d2:	46a9      	mov	r9, r5
    a1d4:	46a0      	mov	r8, r4
    a1d6:	bcf0      	pop	{r4, r5, r6, r7}
    a1d8:	bc01      	pop	{r0}
    a1da:	4700      	bx	r0
    a1dc:	0031      	movs	r1, r6
    a1de:	318d      	adds	r1, #141	; 0x8d
    a1e0:	31ff      	adds	r1, #255	; 0xff
    a1e2:	6809      	ldr	r1, [r1, #0]
    a1e4:	4219      	tst	r1, r3
    a1e6:	d10e      	bne.n	a206 <__call_exitprocs+0xee>
    a1e8:	4643      	mov	r3, r8
    a1ea:	9801      	ldr	r0, [sp, #4]
    a1ec:	6819      	ldr	r1, [r3, #0]
    a1ee:	f000 f813 	bl	a218 <__call_exitprocs+0x100>
    a1f2:	6873      	ldr	r3, [r6, #4]
    a1f4:	4553      	cmp	r3, sl
    a1f6:	d0dc      	beq.n	a1b2 <__call_exitprocs+0x9a>
    a1f8:	22a4      	movs	r2, #164	; 0xa4
    a1fa:	9b00      	ldr	r3, [sp, #0]
    a1fc:	0052      	lsls	r2, r2, #1
    a1fe:	589e      	ldr	r6, [r3, r2]
    a200:	e79f      	b.n	a142 <__call_exitprocs+0x2a>
    a202:	6074      	str	r4, [r6, #4]
    a204:	e7c6      	b.n	a194 <__call_exitprocs+0x7c>
    a206:	4643      	mov	r3, r8
    a208:	6818      	ldr	r0, [r3, #0]
    a20a:	f000 f805 	bl	a218 <__call_exitprocs+0x100>
    a20e:	e7cd      	b.n	a1ac <__call_exitprocs+0x94>
    a210:	00021638 	.word	0x00021638
    a214:	00010ad0 	.word	0x00010ad0
    a218:	4710      	bx	r2
    a21a:	46c0      	nop			; (mov r8, r8)

0000a21c <atexit>:
    a21c:	b510      	push	{r4, lr}
    a21e:	0001      	movs	r1, r0
    a220:	2300      	movs	r3, #0
    a222:	2200      	movs	r2, #0
    a224:	2000      	movs	r0, #0
    a226:	f003 ff8d 	bl	e144 <__register_exitproc>
    a22a:	bc10      	pop	{r4}
    a22c:	bc02      	pop	{r1}
    a22e:	4708      	bx	r1

0000a230 <quorem>:
    a230:	b5f0      	push	{r4, r5, r6, r7, lr}
    a232:	4645      	mov	r5, r8
    a234:	46de      	mov	lr, fp
    a236:	4657      	mov	r7, sl
    a238:	464e      	mov	r6, r9
    a23a:	b5e0      	push	{r5, r6, r7, lr}
    a23c:	6903      	ldr	r3, [r0, #16]
    a23e:	690d      	ldr	r5, [r1, #16]
    a240:	b085      	sub	sp, #20
    a242:	4680      	mov	r8, r0
    a244:	000a      	movs	r2, r1
    a246:	9101      	str	r1, [sp, #4]
    a248:	42ab      	cmp	r3, r5
    a24a:	da00      	bge.n	a24e <quorem+0x1e>
    a24c:	e093      	b.n	a376 <quorem+0x146>
    a24e:	2114      	movs	r1, #20
    a250:	4441      	add	r1, r8
    a252:	468c      	mov	ip, r1
    a254:	3d01      	subs	r5, #1
    a256:	3214      	adds	r2, #20
    a258:	00ab      	lsls	r3, r5, #2
    a25a:	18d6      	adds	r6, r2, r3
    a25c:	4463      	add	r3, ip
    a25e:	9303      	str	r3, [sp, #12]
    a260:	681b      	ldr	r3, [r3, #0]
    a262:	469a      	mov	sl, r3
    a264:	6833      	ldr	r3, [r6, #0]
    a266:	1c5f      	adds	r7, r3, #1
    a268:	9100      	str	r1, [sp, #0]
    a26a:	4650      	mov	r0, sl
    a26c:	0039      	movs	r1, r7
    a26e:	9202      	str	r2, [sp, #8]
    a270:	f006 fbc8 	bl	10a04 <____aeabi_uidiv_from_thumb>
    a274:	0004      	movs	r4, r0
    a276:	45ba      	cmp	sl, r7
    a278:	d33c      	bcc.n	a2f4 <quorem+0xc4>
    a27a:	2300      	movs	r3, #0
    a27c:	2100      	movs	r1, #0
    a27e:	0018      	movs	r0, r3
    a280:	468c      	mov	ip, r1
    a282:	46a9      	mov	r9, r5
    a284:	9f00      	ldr	r7, [sp, #0]
    a286:	9a02      	ldr	r2, [sp, #8]
    a288:	ca08      	ldmia	r2!, {r3}
    a28a:	0419      	lsls	r1, r3, #16
    a28c:	0c09      	lsrs	r1, r1, #16
    a28e:	4361      	muls	r1, r4
    a290:	0c1b      	lsrs	r3, r3, #16
    a292:	4363      	muls	r3, r4
    a294:	1809      	adds	r1, r1, r0
    a296:	0c0d      	lsrs	r5, r1, #16
    a298:	195d      	adds	r5, r3, r5
    a29a:	683b      	ldr	r3, [r7, #0]
    a29c:	041b      	lsls	r3, r3, #16
    a29e:	0c1b      	lsrs	r3, r3, #16
    a2a0:	0409      	lsls	r1, r1, #16
    a2a2:	4463      	add	r3, ip
    a2a4:	0c09      	lsrs	r1, r1, #16
    a2a6:	1a59      	subs	r1, r3, r1
    a2a8:	683b      	ldr	r3, [r7, #0]
    a2aa:	0c28      	lsrs	r0, r5, #16
    a2ac:	042d      	lsls	r5, r5, #16
    a2ae:	0c2d      	lsrs	r5, r5, #16
    a2b0:	0c1b      	lsrs	r3, r3, #16
    a2b2:	1b5b      	subs	r3, r3, r5
    a2b4:	140d      	asrs	r5, r1, #16
    a2b6:	195b      	adds	r3, r3, r5
    a2b8:	0409      	lsls	r1, r1, #16
    a2ba:	141d      	asrs	r5, r3, #16
    a2bc:	0c09      	lsrs	r1, r1, #16
    a2be:	041b      	lsls	r3, r3, #16
    a2c0:	430b      	orrs	r3, r1
    a2c2:	46ac      	mov	ip, r5
    a2c4:	c708      	stmia	r7!, {r3}
    a2c6:	4296      	cmp	r6, r2
    a2c8:	d2de      	bcs.n	a288 <quorem+0x58>
    a2ca:	9b03      	ldr	r3, [sp, #12]
    a2cc:	681a      	ldr	r2, [r3, #0]
    a2ce:	464d      	mov	r5, r9
    a2d0:	9203      	str	r2, [sp, #12]
    a2d2:	2a00      	cmp	r2, #0
    a2d4:	d10e      	bne.n	a2f4 <quorem+0xc4>
    a2d6:	9a00      	ldr	r2, [sp, #0]
    a2d8:	3b04      	subs	r3, #4
    a2da:	4293      	cmp	r3, r2
    a2dc:	d908      	bls.n	a2f0 <quorem+0xc0>
    a2de:	9a00      	ldr	r2, [sp, #0]
    a2e0:	e003      	b.n	a2ea <quorem+0xba>
    a2e2:	3b04      	subs	r3, #4
    a2e4:	3d01      	subs	r5, #1
    a2e6:	4293      	cmp	r3, r2
    a2e8:	d902      	bls.n	a2f0 <quorem+0xc0>
    a2ea:	6819      	ldr	r1, [r3, #0]
    a2ec:	2900      	cmp	r1, #0
    a2ee:	d0f8      	beq.n	a2e2 <quorem+0xb2>
    a2f0:	4643      	mov	r3, r8
    a2f2:	611d      	str	r5, [r3, #16]
    a2f4:	4640      	mov	r0, r8
    a2f6:	9901      	ldr	r1, [sp, #4]
    a2f8:	f002 fc00 	bl	cafc <__mcmp>
    a2fc:	2800      	cmp	r0, #0
    a2fe:	db30      	blt.n	a362 <quorem+0x132>
    a300:	2300      	movs	r3, #0
    a302:	3401      	adds	r4, #1
    a304:	001f      	movs	r7, r3
    a306:	46a4      	mov	ip, r4
    a308:	9900      	ldr	r1, [sp, #0]
    a30a:	9802      	ldr	r0, [sp, #8]
    a30c:	680b      	ldr	r3, [r1, #0]
    a30e:	c810      	ldmia	r0!, {r4}
    a310:	041a      	lsls	r2, r3, #16
    a312:	0c12      	lsrs	r2, r2, #16
    a314:	19d7      	adds	r7, r2, r7
    a316:	0422      	lsls	r2, r4, #16
    a318:	0c12      	lsrs	r2, r2, #16
    a31a:	1aba      	subs	r2, r7, r2
    a31c:	0c1b      	lsrs	r3, r3, #16
    a31e:	0c27      	lsrs	r7, r4, #16
    a320:	1bdb      	subs	r3, r3, r7
    a322:	1417      	asrs	r7, r2, #16
    a324:	19db      	adds	r3, r3, r7
    a326:	0412      	lsls	r2, r2, #16
    a328:	141f      	asrs	r7, r3, #16
    a32a:	0c12      	lsrs	r2, r2, #16
    a32c:	041b      	lsls	r3, r3, #16
    a32e:	4313      	orrs	r3, r2
    a330:	c108      	stmia	r1!, {r3}
    a332:	4286      	cmp	r6, r0
    a334:	d2ea      	bcs.n	a30c <quorem+0xdc>
    a336:	9a00      	ldr	r2, [sp, #0]
    a338:	4664      	mov	r4, ip
    a33a:	4694      	mov	ip, r2
    a33c:	00ab      	lsls	r3, r5, #2
    a33e:	4463      	add	r3, ip
    a340:	6819      	ldr	r1, [r3, #0]
    a342:	2900      	cmp	r1, #0
    a344:	d10d      	bne.n	a362 <quorem+0x132>
    a346:	3b04      	subs	r3, #4
    a348:	4293      	cmp	r3, r2
    a34a:	d908      	bls.n	a35e <quorem+0x12e>
    a34c:	9a00      	ldr	r2, [sp, #0]
    a34e:	e003      	b.n	a358 <quorem+0x128>
    a350:	3b04      	subs	r3, #4
    a352:	3d01      	subs	r5, #1
    a354:	4293      	cmp	r3, r2
    a356:	d902      	bls.n	a35e <quorem+0x12e>
    a358:	6819      	ldr	r1, [r3, #0]
    a35a:	2900      	cmp	r1, #0
    a35c:	d0f8      	beq.n	a350 <quorem+0x120>
    a35e:	4643      	mov	r3, r8
    a360:	611d      	str	r5, [r3, #16]
    a362:	0020      	movs	r0, r4
    a364:	b005      	add	sp, #20
    a366:	bcf0      	pop	{r4, r5, r6, r7}
    a368:	46bb      	mov	fp, r7
    a36a:	46b2      	mov	sl, r6
    a36c:	46a9      	mov	r9, r5
    a36e:	46a0      	mov	r8, r4
    a370:	bcf0      	pop	{r4, r5, r6, r7}
    a372:	bc02      	pop	{r1}
    a374:	4708      	bx	r1
    a376:	2000      	movs	r0, #0
    a378:	e7f4      	b.n	a364 <quorem+0x134>
    a37a:	46c0      	nop			; (mov r8, r8)

0000a37c <_dtoa_r>:
    a37c:	b5f0      	push	{r4, r5, r6, r7, lr}
    a37e:	46de      	mov	lr, fp
    a380:	464e      	mov	r6, r9
    a382:	4645      	mov	r5, r8
    a384:	4657      	mov	r7, sl
    a386:	0014      	movs	r4, r2
    a388:	b5e0      	push	{r5, r6, r7, lr}
    a38a:	001d      	movs	r5, r3
    a38c:	6c01      	ldr	r1, [r0, #64]	; 0x40
    a38e:	b09b      	sub	sp, #108	; 0x6c
    a390:	4683      	mov	fp, r0
    a392:	9404      	str	r4, [sp, #16]
    a394:	9505      	str	r5, [sp, #20]
    a396:	9e27      	ldr	r6, [sp, #156]	; 0x9c
    a398:	2900      	cmp	r1, #0
    a39a:	d009      	beq.n	a3b0 <_dtoa_r+0x34>
    a39c:	2301      	movs	r3, #1
    a39e:	6c42      	ldr	r2, [r0, #68]	; 0x44
    a3a0:	4093      	lsls	r3, r2
    a3a2:	604a      	str	r2, [r1, #4]
    a3a4:	608b      	str	r3, [r1, #8]
    a3a6:	f002 f8b1 	bl	c50c <_Bfree>
    a3aa:	2300      	movs	r3, #0
    a3ac:	465a      	mov	r2, fp
    a3ae:	6413      	str	r3, [r2, #64]	; 0x40
    a3b0:	1e2f      	subs	r7, r5, #0
    a3b2:	da00      	bge.n	a3b6 <_dtoa_r+0x3a>
    a3b4:	e19a      	b.n	a6ec <_dtoa_r+0x370>
    a3b6:	2300      	movs	r3, #0
    a3b8:	003a      	movs	r2, r7
    a3ba:	6033      	str	r3, [r6, #0]
    a3bc:	4bd9      	ldr	r3, [pc, #868]	; (a724 <_dtoa_r+0x3a8>)
    a3be:	401a      	ands	r2, r3
    a3c0:	429a      	cmp	r2, r3
    a3c2:	d100      	bne.n	a3c6 <_dtoa_r+0x4a>
    a3c4:	e19d      	b.n	a702 <_dtoa_r+0x386>
    a3c6:	9a04      	ldr	r2, [sp, #16]
    a3c8:	9b05      	ldr	r3, [sp, #20]
    a3ca:	0010      	movs	r0, r2
    a3cc:	0019      	movs	r1, r3
    a3ce:	2200      	movs	r2, #0
    a3d0:	2300      	movs	r3, #0
    a3d2:	9008      	str	r0, [sp, #32]
    a3d4:	9109      	str	r1, [sp, #36]	; 0x24
    a3d6:	f006 fb03 	bl	109e0 <____aeabi_dcmpeq_from_thumb>
    a3da:	2800      	cmp	r0, #0
    a3dc:	d013      	beq.n	a406 <_dtoa_r+0x8a>
    a3de:	2301      	movs	r3, #1
    a3e0:	9a26      	ldr	r2, [sp, #152]	; 0x98
    a3e2:	6013      	str	r3, [r2, #0]
    a3e4:	9b28      	ldr	r3, [sp, #160]	; 0xa0
    a3e6:	2b00      	cmp	r3, #0
    a3e8:	d100      	bne.n	a3ec <_dtoa_r+0x70>
    a3ea:	e224      	b.n	a836 <_dtoa_r+0x4ba>
    a3ec:	4cce      	ldr	r4, [pc, #824]	; (a728 <_dtoa_r+0x3ac>)
    a3ee:	601c      	str	r4, [r3, #0]
    a3f0:	3c01      	subs	r4, #1
    a3f2:	0020      	movs	r0, r4
    a3f4:	b01b      	add	sp, #108	; 0x6c
    a3f6:	bcf0      	pop	{r4, r5, r6, r7}
    a3f8:	46bb      	mov	fp, r7
    a3fa:	46b2      	mov	sl, r6
    a3fc:	46a9      	mov	r9, r5
    a3fe:	46a0      	mov	r8, r4
    a400:	bcf0      	pop	{r4, r5, r6, r7}
    a402:	bc02      	pop	{r1}
    a404:	4708      	bx	r1
    a406:	ab18      	add	r3, sp, #96	; 0x60
    a408:	9301      	str	r3, [sp, #4]
    a40a:	ab19      	add	r3, sp, #100	; 0x64
    a40c:	9300      	str	r3, [sp, #0]
    a40e:	4658      	mov	r0, fp
    a410:	9a08      	ldr	r2, [sp, #32]
    a412:	9b09      	ldr	r3, [sp, #36]	; 0x24
    a414:	f002 fce0 	bl	cdd8 <__d2b>
    a418:	0d3e      	lsrs	r6, r7, #20
    a41a:	4682      	mov	sl, r0
    a41c:	d000      	beq.n	a420 <_dtoa_r+0xa4>
    a41e:	e1a9      	b.n	a774 <_dtoa_r+0x3f8>
    a420:	9b18      	ldr	r3, [sp, #96]	; 0x60
    a422:	4698      	mov	r8, r3
    a424:	9e19      	ldr	r6, [sp, #100]	; 0x64
    a426:	4bc1      	ldr	r3, [pc, #772]	; (a72c <_dtoa_r+0x3b0>)
    a428:	4446      	add	r6, r8
    a42a:	18f3      	adds	r3, r6, r3
    a42c:	2b20      	cmp	r3, #32
    a42e:	dc00      	bgt.n	a432 <_dtoa_r+0xb6>
    a430:	e203      	b.n	a83a <_dtoa_r+0x4be>
    a432:	2240      	movs	r2, #64	; 0x40
    a434:	0038      	movs	r0, r7
    a436:	1ad3      	subs	r3, r2, r3
    a438:	4098      	lsls	r0, r3
    a43a:	4bbd      	ldr	r3, [pc, #756]	; (a730 <_dtoa_r+0x3b4>)
    a43c:	18f2      	adds	r2, r6, r3
    a43e:	40d4      	lsrs	r4, r2
    a440:	4320      	orrs	r0, r4
    a442:	f006 fac9 	bl	109d8 <____aeabi_ui2d_from_thumb>
    a446:	2301      	movs	r3, #1
    a448:	4cba      	ldr	r4, [pc, #744]	; (a734 <_dtoa_r+0x3b8>)
    a44a:	9311      	str	r3, [sp, #68]	; 0x44
    a44c:	1909      	adds	r1, r1, r4
    a44e:	3e01      	subs	r6, #1
    a450:	2200      	movs	r2, #0
    a452:	4bb9      	ldr	r3, [pc, #740]	; (a738 <_dtoa_r+0x3bc>)
    a454:	f006 fabc 	bl	109d0 <____aeabi_dsub_from_thumb>
    a458:	4ab8      	ldr	r2, [pc, #736]	; (a73c <_dtoa_r+0x3c0>)
    a45a:	4bb9      	ldr	r3, [pc, #740]	; (a740 <_dtoa_r+0x3c4>)
    a45c:	f006 fac4 	bl	109e8 <____aeabi_dmul_from_thumb>
    a460:	4ab8      	ldr	r2, [pc, #736]	; (a744 <_dtoa_r+0x3c8>)
    a462:	4bb9      	ldr	r3, [pc, #740]	; (a748 <_dtoa_r+0x3cc>)
    a464:	f006 fafe 	bl	10a64 <____aeabi_dadd_from_thumb>
    a468:	0004      	movs	r4, r0
    a46a:	0030      	movs	r0, r6
    a46c:	000d      	movs	r5, r1
    a46e:	f006 fad1 	bl	10a14 <____aeabi_i2d_from_thumb>
    a472:	4ab6      	ldr	r2, [pc, #728]	; (a74c <_dtoa_r+0x3d0>)
    a474:	4bb6      	ldr	r3, [pc, #728]	; (a750 <_dtoa_r+0x3d4>)
    a476:	f006 fab7 	bl	109e8 <____aeabi_dmul_from_thumb>
    a47a:	0002      	movs	r2, r0
    a47c:	000b      	movs	r3, r1
    a47e:	0020      	movs	r0, r4
    a480:	0029      	movs	r1, r5
    a482:	f006 faef 	bl	10a64 <____aeabi_dadd_from_thumb>
    a486:	0004      	movs	r4, r0
    a488:	000d      	movs	r5, r1
    a48a:	f006 faf3 	bl	10a74 <____aeabi_d2iz_from_thumb>
    a48e:	2200      	movs	r2, #0
    a490:	4681      	mov	r9, r0
    a492:	2300      	movs	r3, #0
    a494:	0020      	movs	r0, r4
    a496:	0029      	movs	r1, r5
    a498:	f006 fadc 	bl	10a54 <____aeabi_dcmplt_from_thumb>
    a49c:	2800      	cmp	r0, #0
    a49e:	d00b      	beq.n	a4b8 <_dtoa_r+0x13c>
    a4a0:	4648      	mov	r0, r9
    a4a2:	f006 fab7 	bl	10a14 <____aeabi_i2d_from_thumb>
    a4a6:	002b      	movs	r3, r5
    a4a8:	0022      	movs	r2, r4
    a4aa:	f006 fa99 	bl	109e0 <____aeabi_dcmpeq_from_thumb>
    a4ae:	4243      	negs	r3, r0
    a4b0:	4158      	adcs	r0, r3
    a4b2:	464b      	mov	r3, r9
    a4b4:	1a1b      	subs	r3, r3, r0
    a4b6:	4699      	mov	r9, r3
    a4b8:	464b      	mov	r3, r9
    a4ba:	2b16      	cmp	r3, #22
    a4bc:	d900      	bls.n	a4c0 <_dtoa_r+0x144>
    a4be:	e196      	b.n	a7ee <_dtoa_r+0x472>
    a4c0:	00da      	lsls	r2, r3, #3
    a4c2:	4ba4      	ldr	r3, [pc, #656]	; (a754 <_dtoa_r+0x3d8>)
    a4c4:	189b      	adds	r3, r3, r2
    a4c6:	681a      	ldr	r2, [r3, #0]
    a4c8:	685b      	ldr	r3, [r3, #4]
    a4ca:	9808      	ldr	r0, [sp, #32]
    a4cc:	9909      	ldr	r1, [sp, #36]	; 0x24
    a4ce:	f006 fac1 	bl	10a54 <____aeabi_dcmplt_from_thumb>
    a4d2:	2800      	cmp	r0, #0
    a4d4:	d100      	bne.n	a4d8 <_dtoa_r+0x15c>
    a4d6:	e165      	b.n	a7a4 <_dtoa_r+0x428>
    a4d8:	2301      	movs	r3, #1
    a4da:	425b      	negs	r3, r3
    a4dc:	469c      	mov	ip, r3
    a4de:	2300      	movs	r3, #0
    a4e0:	9310      	str	r3, [sp, #64]	; 0x40
    a4e2:	4643      	mov	r3, r8
    a4e4:	1b9e      	subs	r6, r3, r6
    a4e6:	2300      	movs	r3, #0
    a4e8:	930b      	str	r3, [sp, #44]	; 0x2c
    a4ea:	0033      	movs	r3, r6
    a4ec:	44e1      	add	r9, ip
    a4ee:	3b01      	subs	r3, #1
    a4f0:	9307      	str	r3, [sp, #28]
    a4f2:	d500      	bpl.n	a4f6 <_dtoa_r+0x17a>
    a4f4:	e186      	b.n	a804 <_dtoa_r+0x488>
    a4f6:	464b      	mov	r3, r9
    a4f8:	2b00      	cmp	r3, #0
    a4fa:	db00      	blt.n	a4fe <_dtoa_r+0x182>
    a4fc:	e15d      	b.n	a7ba <_dtoa_r+0x43e>
    a4fe:	464a      	mov	r2, r9
    a500:	9b0b      	ldr	r3, [sp, #44]	; 0x2c
    a502:	1a9b      	subs	r3, r3, r2
    a504:	930b      	str	r3, [sp, #44]	; 0x2c
    a506:	4253      	negs	r3, r2
    a508:	930d      	str	r3, [sp, #52]	; 0x34
    a50a:	2300      	movs	r3, #0
    a50c:	4699      	mov	r9, r3
    a50e:	9b24      	ldr	r3, [sp, #144]	; 0x90
    a510:	2401      	movs	r4, #1
    a512:	9206      	str	r2, [sp, #24]
    a514:	2b09      	cmp	r3, #9
    a516:	d900      	bls.n	a51a <_dtoa_r+0x19e>
    a518:	e15b      	b.n	a7d2 <_dtoa_r+0x456>
    a51a:	2b05      	cmp	r3, #5
    a51c:	dd02      	ble.n	a524 <_dtoa_r+0x1a8>
    a51e:	2400      	movs	r4, #0
    a520:	3b04      	subs	r3, #4
    a522:	9324      	str	r3, [sp, #144]	; 0x90
    a524:	9b24      	ldr	r3, [sp, #144]	; 0x90
    a526:	2b04      	cmp	r3, #4
    a528:	d101      	bne.n	a52e <_dtoa_r+0x1b2>
    a52a:	f000 fd45 	bl	afb8 <_dtoa_r+0xc3c>
    a52e:	2b05      	cmp	r3, #5
    a530:	d100      	bne.n	a534 <_dtoa_r+0x1b8>
    a532:	e3e0      	b.n	acf6 <_dtoa_r+0x97a>
    a534:	2b02      	cmp	r3, #2
    a536:	d000      	beq.n	a53a <_dtoa_r+0x1be>
    a538:	e16a      	b.n	a810 <_dtoa_r+0x494>
    a53a:	2300      	movs	r3, #0
    a53c:	930c      	str	r3, [sp, #48]	; 0x30
    a53e:	9b25      	ldr	r3, [sp, #148]	; 0x94
    a540:	2b00      	cmp	r3, #0
    a542:	dc01      	bgt.n	a548 <_dtoa_r+0x1cc>
    a544:	f000 fc05 	bl	ad52 <_dtoa_r+0x9d6>
    a548:	001d      	movs	r5, r3
    a54a:	9316      	str	r3, [sp, #88]	; 0x58
    a54c:	930a      	str	r3, [sp, #40]	; 0x28
    a54e:	2300      	movs	r3, #0
    a550:	465a      	mov	r2, fp
    a552:	6453      	str	r3, [r2, #68]	; 0x44
    a554:	2d17      	cmp	r5, #23
    a556:	dc01      	bgt.n	a55c <_dtoa_r+0x1e0>
    a558:	f000 ff1a 	bl	b390 <_dtoa_r+0x1014>
    a55c:	2201      	movs	r2, #1
    a55e:	3304      	adds	r3, #4
    a560:	005b      	lsls	r3, r3, #1
    a562:	0018      	movs	r0, r3
    a564:	3014      	adds	r0, #20
    a566:	0011      	movs	r1, r2
    a568:	3201      	adds	r2, #1
    a56a:	42a8      	cmp	r0, r5
    a56c:	d9f8      	bls.n	a560 <_dtoa_r+0x1e4>
    a56e:	465b      	mov	r3, fp
    a570:	6459      	str	r1, [r3, #68]	; 0x44
    a572:	4658      	mov	r0, fp
    a574:	f001 ffa0 	bl	c4b8 <_Balloc>
    a578:	9003      	str	r0, [sp, #12]
    a57a:	2800      	cmp	r0, #0
    a57c:	d101      	bne.n	a582 <_dtoa_r+0x206>
    a57e:	f000 fee3 	bl	b348 <_dtoa_r+0xfcc>
    a582:	465b      	mov	r3, fp
    a584:	9a03      	ldr	r2, [sp, #12]
    a586:	641a      	str	r2, [r3, #64]	; 0x40
    a588:	220e      	movs	r2, #14
    a58a:	2300      	movs	r3, #0
    a58c:	990a      	ldr	r1, [sp, #40]	; 0x28
    a58e:	428a      	cmp	r2, r1
    a590:	415b      	adcs	r3, r3
    a592:	0022      	movs	r2, r4
    a594:	401a      	ands	r2, r3
    a596:	920e      	str	r2, [sp, #56]	; 0x38
    a598:	421c      	tst	r4, r3
    a59a:	d074      	beq.n	a686 <_dtoa_r+0x30a>
    a59c:	9806      	ldr	r0, [sp, #24]
    a59e:	2800      	cmp	r0, #0
    a5a0:	dc00      	bgt.n	a5a4 <_dtoa_r+0x228>
    a5a2:	e33c      	b.n	ac1e <_dtoa_r+0x8a2>
    a5a4:	210f      	movs	r1, #15
    a5a6:	0002      	movs	r2, r0
    a5a8:	4b6a      	ldr	r3, [pc, #424]	; (a754 <_dtoa_r+0x3d8>)
    a5aa:	400a      	ands	r2, r1
    a5ac:	00d2      	lsls	r2, r2, #3
    a5ae:	189b      	adds	r3, r3, r2
    a5b0:	681c      	ldr	r4, [r3, #0]
    a5b2:	685d      	ldr	r5, [r3, #4]
    a5b4:	1106      	asrs	r6, r0, #4
    a5b6:	05c3      	lsls	r3, r0, #23
    a5b8:	d400      	bmi.n	a5bc <_dtoa_r+0x240>
    a5ba:	e3c3      	b.n	ad44 <_dtoa_r+0x9c8>
    a5bc:	4b66      	ldr	r3, [pc, #408]	; (a758 <_dtoa_r+0x3dc>)
    a5be:	400e      	ands	r6, r1
    a5c0:	6a1a      	ldr	r2, [r3, #32]
    a5c2:	6a5b      	ldr	r3, [r3, #36]	; 0x24
    a5c4:	9808      	ldr	r0, [sp, #32]
    a5c6:	9909      	ldr	r1, [sp, #36]	; 0x24
    a5c8:	f006 fa50 	bl	10a6c <____aeabi_ddiv_from_thumb>
    a5cc:	2303      	movs	r3, #3
    a5ce:	4698      	mov	r8, r3
    a5d0:	900e      	str	r0, [sp, #56]	; 0x38
    a5d2:	910f      	str	r1, [sp, #60]	; 0x3c
    a5d4:	2e00      	cmp	r6, #0
    a5d6:	d011      	beq.n	a5fc <_dtoa_r+0x280>
    a5d8:	4f5f      	ldr	r7, [pc, #380]	; (a758 <_dtoa_r+0x3dc>)
    a5da:	2301      	movs	r3, #1
    a5dc:	4233      	tst	r3, r6
    a5de:	d009      	beq.n	a5f4 <_dtoa_r+0x278>
    a5e0:	469c      	mov	ip, r3
    a5e2:	0020      	movs	r0, r4
    a5e4:	0029      	movs	r1, r5
    a5e6:	683a      	ldr	r2, [r7, #0]
    a5e8:	687b      	ldr	r3, [r7, #4]
    a5ea:	44e0      	add	r8, ip
    a5ec:	f006 f9fc 	bl	109e8 <____aeabi_dmul_from_thumb>
    a5f0:	0004      	movs	r4, r0
    a5f2:	000d      	movs	r5, r1
    a5f4:	1076      	asrs	r6, r6, #1
    a5f6:	3708      	adds	r7, #8
    a5f8:	2e00      	cmp	r6, #0
    a5fa:	d1ee      	bne.n	a5da <_dtoa_r+0x25e>
    a5fc:	0022      	movs	r2, r4
    a5fe:	002b      	movs	r3, r5
    a600:	980e      	ldr	r0, [sp, #56]	; 0x38
    a602:	990f      	ldr	r1, [sp, #60]	; 0x3c
    a604:	f006 fa32 	bl	10a6c <____aeabi_ddiv_from_thumb>
    a608:	0004      	movs	r4, r0
    a60a:	000d      	movs	r5, r1
    a60c:	9b10      	ldr	r3, [sp, #64]	; 0x40
    a60e:	2b00      	cmp	r3, #0
    a610:	d008      	beq.n	a624 <_dtoa_r+0x2a8>
    a612:	2200      	movs	r2, #0
    a614:	0020      	movs	r0, r4
    a616:	0029      	movs	r1, r5
    a618:	4b50      	ldr	r3, [pc, #320]	; (a75c <_dtoa_r+0x3e0>)
    a61a:	f006 fa1b 	bl	10a54 <____aeabi_dcmplt_from_thumb>
    a61e:	2800      	cmp	r0, #0
    a620:	d000      	beq.n	a624 <_dtoa_r+0x2a8>
    a622:	e10f      	b.n	a844 <_dtoa_r+0x4c8>
    a624:	4640      	mov	r0, r8
    a626:	f006 f9f5 	bl	10a14 <____aeabi_i2d_from_thumb>
    a62a:	0022      	movs	r2, r4
    a62c:	002b      	movs	r3, r5
    a62e:	f006 f9db 	bl	109e8 <____aeabi_dmul_from_thumb>
    a632:	4b4b      	ldr	r3, [pc, #300]	; (a760 <_dtoa_r+0x3e4>)
    a634:	2200      	movs	r2, #0
    a636:	f006 fa15 	bl	10a64 <____aeabi_dadd_from_thumb>
    a63a:	4b4a      	ldr	r3, [pc, #296]	; (a764 <_dtoa_r+0x3e8>)
    a63c:	18cf      	adds	r7, r1, r3
    a63e:	9b06      	ldr	r3, [sp, #24]
    a640:	9312      	str	r3, [sp, #72]	; 0x48
    a642:	9b0a      	ldr	r3, [sp, #40]	; 0x28
    a644:	0006      	movs	r6, r0
    a646:	930e      	str	r3, [sp, #56]	; 0x38
    a648:	2b00      	cmp	r3, #0
    a64a:	d000      	beq.n	a64e <_dtoa_r+0x2d2>
    a64c:	e11f      	b.n	a88e <_dtoa_r+0x512>
    a64e:	2200      	movs	r2, #0
    a650:	0020      	movs	r0, r4
    a652:	0029      	movs	r1, r5
    a654:	4b44      	ldr	r3, [pc, #272]	; (a768 <_dtoa_r+0x3ec>)
    a656:	f006 f9bb 	bl	109d0 <____aeabi_dsub_from_thumb>
    a65a:	0032      	movs	r2, r6
    a65c:	003b      	movs	r3, r7
    a65e:	0004      	movs	r4, r0
    a660:	000d      	movs	r5, r1
    a662:	f006 fa0b 	bl	10a7c <____aeabi_dcmpgt_from_thumb>
    a666:	2800      	cmp	r0, #0
    a668:	d001      	beq.n	a66e <_dtoa_r+0x2f2>
    a66a:	f000 fccc 	bl	b006 <_dtoa_r+0xc8a>
    a66e:	2180      	movs	r1, #128	; 0x80
    a670:	0609      	lsls	r1, r1, #24
    a672:	187b      	adds	r3, r7, r1
    a674:	0032      	movs	r2, r6
    a676:	0020      	movs	r0, r4
    a678:	0029      	movs	r1, r5
    a67a:	f006 f9eb 	bl	10a54 <____aeabi_dcmplt_from_thumb>
    a67e:	2800      	cmp	r0, #0
    a680:	d001      	beq.n	a686 <_dtoa_r+0x30a>
    a682:	f000 fc68 	bl	af56 <_dtoa_r+0xbda>
    a686:	9a19      	ldr	r2, [sp, #100]	; 0x64
    a688:	2a00      	cmp	r2, #0
    a68a:	db08      	blt.n	a69e <_dtoa_r+0x322>
    a68c:	210e      	movs	r1, #14
    a68e:	2000      	movs	r0, #0
    a690:	9c06      	ldr	r4, [sp, #24]
    a692:	0fe3      	lsrs	r3, r4, #31
    a694:	42a1      	cmp	r1, r4
    a696:	4143      	adcs	r3, r0
    a698:	061b      	lsls	r3, r3, #24
    a69a:	d000      	beq.n	a69e <_dtoa_r+0x322>
    a69c:	e2f4      	b.n	ac88 <_dtoa_r+0x90c>
    a69e:	9b0c      	ldr	r3, [sp, #48]	; 0x30
    a6a0:	2b00      	cmp	r3, #0
    a6a2:	d100      	bne.n	a6a6 <_dtoa_r+0x32a>
    a6a4:	e18a      	b.n	a9bc <_dtoa_r+0x640>
    a6a6:	9b24      	ldr	r3, [sp, #144]	; 0x90
    a6a8:	2b01      	cmp	r3, #1
    a6aa:	dc01      	bgt.n	a6b0 <_dtoa_r+0x334>
    a6ac:	f000 fc96 	bl	afdc <_dtoa_r+0xc60>
    a6b0:	9b0a      	ldr	r3, [sp, #40]	; 0x28
    a6b2:	1e5d      	subs	r5, r3, #1
    a6b4:	9b0d      	ldr	r3, [sp, #52]	; 0x34
    a6b6:	42ab      	cmp	r3, r5
    a6b8:	db01      	blt.n	a6be <_dtoa_r+0x342>
    a6ba:	f000 fc62 	bl	af82 <_dtoa_r+0xc06>
    a6be:	9b0d      	ldr	r3, [sp, #52]	; 0x34
    a6c0:	950d      	str	r5, [sp, #52]	; 0x34
    a6c2:	1aeb      	subs	r3, r5, r3
    a6c4:	2500      	movs	r5, #0
    a6c6:	4499      	add	r9, r3
    a6c8:	990b      	ldr	r1, [sp, #44]	; 0x2c
    a6ca:	9b0a      	ldr	r3, [sp, #40]	; 0x28
    a6cc:	1acc      	subs	r4, r1, r3
    a6ce:	2b00      	cmp	r3, #0
    a6d0:	db06      	blt.n	a6e0 <_dtoa_r+0x364>
    a6d2:	469c      	mov	ip, r3
    a6d4:	9807      	ldr	r0, [sp, #28]
    a6d6:	000c      	movs	r4, r1
    a6d8:	4460      	add	r0, ip
    a6da:	4461      	add	r1, ip
    a6dc:	9007      	str	r0, [sp, #28]
    a6de:	910b      	str	r1, [sp, #44]	; 0x2c
    a6e0:	2101      	movs	r1, #1
    a6e2:	4658      	mov	r0, fp
    a6e4:	f002 f816 	bl	c714 <__i2b>
    a6e8:	4680      	mov	r8, r0
    a6ea:	e16b      	b.n	a9c4 <_dtoa_r+0x648>
    a6ec:	2301      	movs	r3, #1
    a6ee:	006f      	lsls	r7, r5, #1
    a6f0:	087f      	lsrs	r7, r7, #1
    a6f2:	003a      	movs	r2, r7
    a6f4:	6033      	str	r3, [r6, #0]
    a6f6:	4b0b      	ldr	r3, [pc, #44]	; (a724 <_dtoa_r+0x3a8>)
    a6f8:	9705      	str	r7, [sp, #20]
    a6fa:	401a      	ands	r2, r3
    a6fc:	429a      	cmp	r2, r3
    a6fe:	d000      	beq.n	a702 <_dtoa_r+0x386>
    a700:	e661      	b.n	a3c6 <_dtoa_r+0x4a>
    a702:	9a26      	ldr	r2, [sp, #152]	; 0x98
    a704:	4b19      	ldr	r3, [pc, #100]	; (a76c <_dtoa_r+0x3f0>)
    a706:	6013      	str	r3, [r2, #0]
    a708:	033a      	lsls	r2, r7, #12
    a70a:	0b12      	lsrs	r2, r2, #12
    a70c:	4314      	orrs	r4, r2
    a70e:	d041      	beq.n	a794 <_dtoa_r+0x418>
    a710:	9b28      	ldr	r3, [sp, #160]	; 0xa0
    a712:	4c17      	ldr	r4, [pc, #92]	; (a770 <_dtoa_r+0x3f4>)
    a714:	2b00      	cmp	r3, #0
    a716:	d100      	bne.n	a71a <_dtoa_r+0x39e>
    a718:	e66b      	b.n	a3f2 <_dtoa_r+0x76>
    a71a:	1ce3      	adds	r3, r4, #3
    a71c:	9a28      	ldr	r2, [sp, #160]	; 0xa0
    a71e:	6013      	str	r3, [r2, #0]
    a720:	e667      	b.n	a3f2 <_dtoa_r+0x76>
    a722:	46c0      	nop			; (mov r8, r8)
    a724:	7ff00000 	.word	0x7ff00000
    a728:	00010b15 	.word	0x00010b15
    a72c:	00000432 	.word	0x00000432
    a730:	00000412 	.word	0x00000412
    a734:	fe100000 	.word	0xfe100000
    a738:	3ff80000 	.word	0x3ff80000
    a73c:	636f4361 	.word	0x636f4361
    a740:	3fd287a7 	.word	0x3fd287a7
    a744:	8b60c8b3 	.word	0x8b60c8b3
    a748:	3fc68a28 	.word	0x3fc68a28
    a74c:	509f79fb 	.word	0x509f79fb
    a750:	3fd34413 	.word	0x3fd34413
    a754:	00010df0 	.word	0x00010df0
    a758:	00010dc8 	.word	0x00010dc8
    a75c:	3ff00000 	.word	0x3ff00000
    a760:	401c0000 	.word	0x401c0000
    a764:	fcc00000 	.word	0xfcc00000
    a768:	40140000 	.word	0x40140000
    a76c:	0000270f 	.word	0x0000270f
    a770:	00010ca4 	.word	0x00010ca4
    a774:	9b08      	ldr	r3, [sp, #32]
    a776:	9c09      	ldr	r4, [sp, #36]	; 0x24
    a778:	4add      	ldr	r2, [pc, #884]	; (aaf0 <_dtoa_r+0x774>)
    a77a:	0018      	movs	r0, r3
    a77c:	0323      	lsls	r3, r4, #12
    a77e:	0b1b      	lsrs	r3, r3, #12
    a780:	431a      	orrs	r2, r3
    a782:	4bdc      	ldr	r3, [pc, #880]	; (aaf4 <_dtoa_r+0x778>)
    a784:	469c      	mov	ip, r3
    a786:	9b18      	ldr	r3, [sp, #96]	; 0x60
    a788:	4698      	mov	r8, r3
    a78a:	2300      	movs	r3, #0
    a78c:	0011      	movs	r1, r2
    a78e:	9311      	str	r3, [sp, #68]	; 0x44
    a790:	4466      	add	r6, ip
    a792:	e65d      	b.n	a450 <_dtoa_r+0xd4>
    a794:	9b28      	ldr	r3, [sp, #160]	; 0xa0
    a796:	4cd8      	ldr	r4, [pc, #864]	; (aaf8 <_dtoa_r+0x77c>)
    a798:	2b00      	cmp	r3, #0
    a79a:	d100      	bne.n	a79e <_dtoa_r+0x422>
    a79c:	e629      	b.n	a3f2 <_dtoa_r+0x76>
    a79e:	0023      	movs	r3, r4
    a7a0:	3308      	adds	r3, #8
    a7a2:	e7bb      	b.n	a71c <_dtoa_r+0x3a0>
    a7a4:	4643      	mov	r3, r8
    a7a6:	1b9e      	subs	r6, r3, r6
    a7a8:	0033      	movs	r3, r6
    a7aa:	3b01      	subs	r3, #1
    a7ac:	9307      	str	r3, [sp, #28]
    a7ae:	d501      	bpl.n	a7b4 <_dtoa_r+0x438>
    a7b0:	f000 fc10 	bl	afd4 <_dtoa_r+0xc58>
    a7b4:	2300      	movs	r3, #0
    a7b6:	9310      	str	r3, [sp, #64]	; 0x40
    a7b8:	930b      	str	r3, [sp, #44]	; 0x2c
    a7ba:	9b07      	ldr	r3, [sp, #28]
    a7bc:	444b      	add	r3, r9
    a7be:	9307      	str	r3, [sp, #28]
    a7c0:	464b      	mov	r3, r9
    a7c2:	9306      	str	r3, [sp, #24]
    a7c4:	2300      	movs	r3, #0
    a7c6:	930d      	str	r3, [sp, #52]	; 0x34
    a7c8:	9b24      	ldr	r3, [sp, #144]	; 0x90
    a7ca:	2401      	movs	r4, #1
    a7cc:	2b09      	cmp	r3, #9
    a7ce:	d800      	bhi.n	a7d2 <_dtoa_r+0x456>
    a7d0:	e6a3      	b.n	a51a <_dtoa_r+0x19e>
    a7d2:	2201      	movs	r2, #1
    a7d4:	2300      	movs	r3, #0
    a7d6:	920c      	str	r2, [sp, #48]	; 0x30
    a7d8:	3a02      	subs	r2, #2
    a7da:	9324      	str	r3, [sp, #144]	; 0x90
    a7dc:	920a      	str	r2, [sp, #40]	; 0x28
    a7de:	9325      	str	r3, [sp, #148]	; 0x94
    a7e0:	2300      	movs	r3, #0
    a7e2:	465a      	mov	r2, fp
    a7e4:	6453      	str	r3, [r2, #68]	; 0x44
    a7e6:	9b0a      	ldr	r3, [sp, #40]	; 0x28
    a7e8:	2100      	movs	r1, #0
    a7ea:	9316      	str	r3, [sp, #88]	; 0x58
    a7ec:	e6c1      	b.n	a572 <_dtoa_r+0x1f6>
    a7ee:	2301      	movs	r3, #1
    a7f0:	9310      	str	r3, [sp, #64]	; 0x40
    a7f2:	4643      	mov	r3, r8
    a7f4:	1b9e      	subs	r6, r3, r6
    a7f6:	2300      	movs	r3, #0
    a7f8:	930b      	str	r3, [sp, #44]	; 0x2c
    a7fa:	0033      	movs	r3, r6
    a7fc:	3b01      	subs	r3, #1
    a7fe:	9307      	str	r3, [sp, #28]
    a800:	d400      	bmi.n	a804 <_dtoa_r+0x488>
    a802:	e678      	b.n	a4f6 <_dtoa_r+0x17a>
    a804:	2301      	movs	r3, #1
    a806:	1b9b      	subs	r3, r3, r6
    a808:	930b      	str	r3, [sp, #44]	; 0x2c
    a80a:	2300      	movs	r3, #0
    a80c:	9307      	str	r3, [sp, #28]
    a80e:	e672      	b.n	a4f6 <_dtoa_r+0x17a>
    a810:	2300      	movs	r3, #0
    a812:	930c      	str	r3, [sp, #48]	; 0x30
    a814:	9b24      	ldr	r3, [sp, #144]	; 0x90
    a816:	2b03      	cmp	r3, #3
    a818:	d001      	beq.n	a81e <_dtoa_r+0x4a2>
    a81a:	f000 fd6b 	bl	b2f4 <_dtoa_r+0xf78>
    a81e:	9a06      	ldr	r2, [sp, #24]
    a820:	4694      	mov	ip, r2
    a822:	9b25      	ldr	r3, [sp, #148]	; 0x94
    a824:	4463      	add	r3, ip
    a826:	9316      	str	r3, [sp, #88]	; 0x58
    a828:	3301      	adds	r3, #1
    a82a:	1e1d      	subs	r5, r3, #0
    a82c:	930a      	str	r3, [sp, #40]	; 0x28
    a82e:	dd00      	ble.n	a832 <_dtoa_r+0x4b6>
    a830:	e68d      	b.n	a54e <_dtoa_r+0x1d2>
    a832:	2501      	movs	r5, #1
    a834:	e68b      	b.n	a54e <_dtoa_r+0x1d2>
    a836:	4cb1      	ldr	r4, [pc, #708]	; (aafc <_dtoa_r+0x780>)
    a838:	e5db      	b.n	a3f2 <_dtoa_r+0x76>
    a83a:	2220      	movs	r2, #32
    a83c:	0020      	movs	r0, r4
    a83e:	1ad3      	subs	r3, r2, r3
    a840:	4098      	lsls	r0, r3
    a842:	e5fe      	b.n	a442 <_dtoa_r+0xc6>
    a844:	9b0a      	ldr	r3, [sp, #40]	; 0x28
    a846:	2b00      	cmp	r3, #0
    a848:	d101      	bne.n	a84e <_dtoa_r+0x4d2>
    a84a:	f000 fc66 	bl	b11a <_dtoa_r+0xd9e>
    a84e:	9b16      	ldr	r3, [sp, #88]	; 0x58
    a850:	2b00      	cmp	r3, #0
    a852:	dc00      	bgt.n	a856 <_dtoa_r+0x4da>
    a854:	e717      	b.n	a686 <_dtoa_r+0x30a>
    a856:	9a06      	ldr	r2, [sp, #24]
    a858:	3a01      	subs	r2, #1
    a85a:	4ba9      	ldr	r3, [pc, #676]	; (ab00 <_dtoa_r+0x784>)
    a85c:	0020      	movs	r0, r4
    a85e:	0029      	movs	r1, r5
    a860:	9212      	str	r2, [sp, #72]	; 0x48
    a862:	2200      	movs	r2, #0
    a864:	f006 f8c0 	bl	109e8 <____aeabi_dmul_from_thumb>
    a868:	0004      	movs	r4, r0
    a86a:	4640      	mov	r0, r8
    a86c:	000d      	movs	r5, r1
    a86e:	3001      	adds	r0, #1
    a870:	f006 f8d0 	bl	10a14 <____aeabi_i2d_from_thumb>
    a874:	0022      	movs	r2, r4
    a876:	002b      	movs	r3, r5
    a878:	f006 f8b6 	bl	109e8 <____aeabi_dmul_from_thumb>
    a87c:	2200      	movs	r2, #0
    a87e:	4ba1      	ldr	r3, [pc, #644]	; (ab04 <_dtoa_r+0x788>)
    a880:	f006 f8f0 	bl	10a64 <____aeabi_dadd_from_thumb>
    a884:	0006      	movs	r6, r0
    a886:	9b16      	ldr	r3, [sp, #88]	; 0x58
    a888:	4a9f      	ldr	r2, [pc, #636]	; (ab08 <_dtoa_r+0x78c>)
    a88a:	930e      	str	r3, [sp, #56]	; 0x38
    a88c:	188f      	adds	r7, r1, r2
    a88e:	9b0c      	ldr	r3, [sp, #48]	; 0x30
    a890:	2b00      	cmp	r3, #0
    a892:	d100      	bne.n	a896 <_dtoa_r+0x51a>
    a894:	e261      	b.n	ad5a <_dtoa_r+0x9de>
    a896:	9b0e      	ldr	r3, [sp, #56]	; 0x38
    a898:	1e5a      	subs	r2, r3, #1
    a89a:	4b9c      	ldr	r3, [pc, #624]	; (ab0c <_dtoa_r+0x790>)
    a89c:	00d2      	lsls	r2, r2, #3
    a89e:	189b      	adds	r3, r3, r2
    a8a0:	681a      	ldr	r2, [r3, #0]
    a8a2:	685b      	ldr	r3, [r3, #4]
    a8a4:	2000      	movs	r0, #0
    a8a6:	499a      	ldr	r1, [pc, #616]	; (ab10 <_dtoa_r+0x794>)
    a8a8:	f006 f8e0 	bl	10a6c <____aeabi_ddiv_from_thumb>
    a8ac:	0032      	movs	r2, r6
    a8ae:	003b      	movs	r3, r7
    a8b0:	f006 f88e 	bl	109d0 <____aeabi_dsub_from_thumb>
    a8b4:	0006      	movs	r6, r0
    a8b6:	000f      	movs	r7, r1
    a8b8:	0020      	movs	r0, r4
    a8ba:	0029      	movs	r1, r5
    a8bc:	f006 f8da 	bl	10a74 <____aeabi_d2iz_from_thumb>
    a8c0:	9014      	str	r0, [sp, #80]	; 0x50
    a8c2:	f006 f8a7 	bl	10a14 <____aeabi_i2d_from_thumb>
    a8c6:	0002      	movs	r2, r0
    a8c8:	000b      	movs	r3, r1
    a8ca:	0020      	movs	r0, r4
    a8cc:	0029      	movs	r1, r5
    a8ce:	f006 f87f 	bl	109d0 <____aeabi_dsub_from_thumb>
    a8d2:	0004      	movs	r4, r0
    a8d4:	9b03      	ldr	r3, [sp, #12]
    a8d6:	9814      	ldr	r0, [sp, #80]	; 0x50
    a8d8:	1c5a      	adds	r2, r3, #1
    a8da:	3030      	adds	r0, #48	; 0x30
    a8dc:	7018      	strb	r0, [r3, #0]
    a8de:	000d      	movs	r5, r1
    a8e0:	4690      	mov	r8, r2
    a8e2:	000b      	movs	r3, r1
    a8e4:	0022      	movs	r2, r4
    a8e6:	0030      	movs	r0, r6
    a8e8:	0039      	movs	r1, r7
    a8ea:	f006 f8c7 	bl	10a7c <____aeabi_dcmpgt_from_thumb>
    a8ee:	2800      	cmp	r0, #0
    a8f0:	d001      	beq.n	a8f6 <_dtoa_r+0x57a>
    a8f2:	f000 fc5f 	bl	b1b4 <_dtoa_r+0xe38>
    a8f6:	464a      	mov	r2, r9
    a8f8:	2300      	movs	r3, #0
    a8fa:	9217      	str	r2, [sp, #92]	; 0x5c
    a8fc:	4652      	mov	r2, sl
    a8fe:	4699      	mov	r9, r3
    a900:	9214      	str	r2, [sp, #80]	; 0x50
    a902:	e035      	b.n	a970 <_dtoa_r+0x5f4>
    a904:	2301      	movs	r3, #1
    a906:	469c      	mov	ip, r3
    a908:	9b0e      	ldr	r3, [sp, #56]	; 0x38
    a90a:	44e1      	add	r9, ip
    a90c:	4599      	cmp	r9, r3
    a90e:	db01      	blt.n	a914 <_dtoa_r+0x598>
    a910:	f000 fc6e 	bl	b1f0 <_dtoa_r+0xe74>
    a914:	2200      	movs	r2, #0
    a916:	0030      	movs	r0, r6
    a918:	0039      	movs	r1, r7
    a91a:	4b79      	ldr	r3, [pc, #484]	; (ab00 <_dtoa_r+0x784>)
    a91c:	f006 f864 	bl	109e8 <____aeabi_dmul_from_thumb>
    a920:	2200      	movs	r2, #0
    a922:	4b77      	ldr	r3, [pc, #476]	; (ab00 <_dtoa_r+0x784>)
    a924:	0006      	movs	r6, r0
    a926:	000f      	movs	r7, r1
    a928:	0020      	movs	r0, r4
    a92a:	0029      	movs	r1, r5
    a92c:	f006 f85c 	bl	109e8 <____aeabi_dmul_from_thumb>
    a930:	000d      	movs	r5, r1
    a932:	0004      	movs	r4, r0
    a934:	f006 f89e 	bl	10a74 <____aeabi_d2iz_from_thumb>
    a938:	4682      	mov	sl, r0
    a93a:	f006 f86b 	bl	10a14 <____aeabi_i2d_from_thumb>
    a93e:	0002      	movs	r2, r0
    a940:	000b      	movs	r3, r1
    a942:	0020      	movs	r0, r4
    a944:	0029      	movs	r1, r5
    a946:	f006 f843 	bl	109d0 <____aeabi_dsub_from_thumb>
    a94a:	2301      	movs	r3, #1
    a94c:	0004      	movs	r4, r0
    a94e:	4650      	mov	r0, sl
    a950:	464a      	mov	r2, r9
    a952:	469c      	mov	ip, r3
    a954:	9b03      	ldr	r3, [sp, #12]
    a956:	3030      	adds	r0, #48	; 0x30
    a958:	5498      	strb	r0, [r3, r2]
    a95a:	0032      	movs	r2, r6
    a95c:	003b      	movs	r3, r7
    a95e:	0020      	movs	r0, r4
    a960:	000d      	movs	r5, r1
    a962:	44e0      	add	r8, ip
    a964:	f006 f876 	bl	10a54 <____aeabi_dcmplt_from_thumb>
    a968:	2800      	cmp	r0, #0
    a96a:	d001      	beq.n	a970 <_dtoa_r+0x5f4>
    a96c:	f000 fc20 	bl	b1b0 <_dtoa_r+0xe34>
    a970:	0022      	movs	r2, r4
    a972:	002b      	movs	r3, r5
    a974:	2000      	movs	r0, #0
    a976:	495e      	ldr	r1, [pc, #376]	; (aaf0 <_dtoa_r+0x774>)
    a978:	f006 f82a 	bl	109d0 <____aeabi_dsub_from_thumb>
    a97c:	0032      	movs	r2, r6
    a97e:	003b      	movs	r3, r7
    a980:	f006 f868 	bl	10a54 <____aeabi_dcmplt_from_thumb>
    a984:	2800      	cmp	r0, #0
    a986:	d0bd      	beq.n	a904 <_dtoa_r+0x588>
    a988:	9b14      	ldr	r3, [sp, #80]	; 0x50
    a98a:	4641      	mov	r1, r8
    a98c:	469a      	mov	sl, r3
    a98e:	9803      	ldr	r0, [sp, #12]
    a990:	e002      	b.n	a998 <_dtoa_r+0x61c>
    a992:	4288      	cmp	r0, r1
    a994:	d100      	bne.n	a998 <_dtoa_r+0x61c>
    a996:	e3d0      	b.n	b13a <_dtoa_r+0xdbe>
    a998:	000a      	movs	r2, r1
    a99a:	3901      	subs	r1, #1
    a99c:	780b      	ldrb	r3, [r1, #0]
    a99e:	2b39      	cmp	r3, #57	; 0x39
    a9a0:	d0f7      	beq.n	a992 <_dtoa_r+0x616>
    a9a2:	4688      	mov	r8, r1
    a9a4:	3301      	adds	r3, #1
    a9a6:	061b      	lsls	r3, r3, #24
    a9a8:	9003      	str	r0, [sp, #12]
    a9aa:	0e1b      	lsrs	r3, r3, #24
    a9ac:	4641      	mov	r1, r8
    a9ae:	700b      	strb	r3, [r1, #0]
    a9b0:	9b12      	ldr	r3, [sp, #72]	; 0x48
    a9b2:	3301      	adds	r3, #1
    a9b4:	9c03      	ldr	r4, [sp, #12]
    a9b6:	9306      	str	r3, [sp, #24]
    a9b8:	9203      	str	r2, [sp, #12]
    a9ba:	e081      	b.n	aac0 <_dtoa_r+0x744>
    a9bc:	2300      	movs	r3, #0
    a9be:	4698      	mov	r8, r3
    a9c0:	9d0d      	ldr	r5, [sp, #52]	; 0x34
    a9c2:	9c0b      	ldr	r4, [sp, #44]	; 0x2c
    a9c4:	2c00      	cmp	r4, #0
    a9c6:	dd0d      	ble.n	a9e4 <_dtoa_r+0x668>
    a9c8:	9a07      	ldr	r2, [sp, #28]
    a9ca:	2a00      	cmp	r2, #0
    a9cc:	dd0a      	ble.n	a9e4 <_dtoa_r+0x668>
    a9ce:	0023      	movs	r3, r4
    a9d0:	4294      	cmp	r4, r2
    a9d2:	dd00      	ble.n	a9d6 <_dtoa_r+0x65a>
    a9d4:	e230      	b.n	ae38 <_dtoa_r+0xabc>
    a9d6:	9a0b      	ldr	r2, [sp, #44]	; 0x2c
    a9d8:	1ad2      	subs	r2, r2, r3
    a9da:	920b      	str	r2, [sp, #44]	; 0x2c
    a9dc:	9a07      	ldr	r2, [sp, #28]
    a9de:	1ae4      	subs	r4, r4, r3
    a9e0:	1ad3      	subs	r3, r2, r3
    a9e2:	9307      	str	r3, [sp, #28]
    a9e4:	9b0d      	ldr	r3, [sp, #52]	; 0x34
    a9e6:	2b00      	cmp	r3, #0
    a9e8:	d009      	beq.n	a9fe <_dtoa_r+0x682>
    a9ea:	9b0c      	ldr	r3, [sp, #48]	; 0x30
    a9ec:	2b00      	cmp	r3, #0
    a9ee:	d077      	beq.n	aae0 <_dtoa_r+0x764>
    a9f0:	2d00      	cmp	r5, #0
    a9f2:	dd00      	ble.n	a9f6 <_dtoa_r+0x67a>
    a9f4:	e2b3      	b.n	af5e <_dtoa_r+0xbe2>
    a9f6:	9b0d      	ldr	r3, [sp, #52]	; 0x34
    a9f8:	1b5a      	subs	r2, r3, r5
    a9fa:	42ab      	cmp	r3, r5
    a9fc:	d171      	bne.n	aae2 <_dtoa_r+0x766>
    a9fe:	2101      	movs	r1, #1
    aa00:	4658      	mov	r0, fp
    aa02:	f001 fe87 	bl	c714 <__i2b>
    aa06:	464b      	mov	r3, r9
    aa08:	0006      	movs	r6, r0
    aa0a:	2b00      	cmp	r3, #0
    aa0c:	dd00      	ble.n	aa10 <_dtoa_r+0x694>
    aa0e:	e15d      	b.n	accc <_dtoa_r+0x950>
    aa10:	9b24      	ldr	r3, [sp, #144]	; 0x90
    aa12:	2500      	movs	r5, #0
    aa14:	2b01      	cmp	r3, #1
    aa16:	dc00      	bgt.n	aa1a <_dtoa_r+0x69e>
    aa18:	e2d2      	b.n	afc0 <_dtoa_r+0xc44>
    aa1a:	464b      	mov	r3, r9
    aa1c:	2001      	movs	r0, #1
    aa1e:	2b00      	cmp	r3, #0
    aa20:	d000      	beq.n	aa24 <_dtoa_r+0x6a8>
    aa22:	e15e      	b.n	ace2 <_dtoa_r+0x966>
    aa24:	231f      	movs	r3, #31
    aa26:	9907      	ldr	r1, [sp, #28]
    aa28:	468c      	mov	ip, r1
    aa2a:	001a      	movs	r2, r3
    aa2c:	4460      	add	r0, ip
    aa2e:	4002      	ands	r2, r0
    aa30:	4203      	tst	r3, r0
    aa32:	d06f      	beq.n	ab14 <_dtoa_r+0x798>
    aa34:	3301      	adds	r3, #1
    aa36:	1a9b      	subs	r3, r3, r2
    aa38:	2b04      	cmp	r3, #4
    aa3a:	dc01      	bgt.n	aa40 <_dtoa_r+0x6c4>
    aa3c:	f000 fca0 	bl	b380 <_dtoa_r+0x1004>
    aa40:	231c      	movs	r3, #28
    aa42:	1a9b      	subs	r3, r3, r2
    aa44:	9a0b      	ldr	r2, [sp, #44]	; 0x2c
    aa46:	4694      	mov	ip, r2
    aa48:	449c      	add	ip, r3
    aa4a:	4662      	mov	r2, ip
    aa4c:	468c      	mov	ip, r1
    aa4e:	449c      	add	ip, r3
    aa50:	18e4      	adds	r4, r4, r3
    aa52:	4663      	mov	r3, ip
    aa54:	920b      	str	r2, [sp, #44]	; 0x2c
    aa56:	9307      	str	r3, [sp, #28]
    aa58:	9b0b      	ldr	r3, [sp, #44]	; 0x2c
    aa5a:	2b00      	cmp	r3, #0
    aa5c:	dd05      	ble.n	aa6a <_dtoa_r+0x6ee>
    aa5e:	4651      	mov	r1, sl
    aa60:	001a      	movs	r2, r3
    aa62:	4658      	mov	r0, fp
    aa64:	f001 ffca 	bl	c9fc <__lshift>
    aa68:	4682      	mov	sl, r0
    aa6a:	9b07      	ldr	r3, [sp, #28]
    aa6c:	2b00      	cmp	r3, #0
    aa6e:	dd05      	ble.n	aa7c <_dtoa_r+0x700>
    aa70:	0031      	movs	r1, r6
    aa72:	001a      	movs	r2, r3
    aa74:	4658      	mov	r0, fp
    aa76:	f001 ffc1 	bl	c9fc <__lshift>
    aa7a:	0006      	movs	r6, r0
    aa7c:	9b10      	ldr	r3, [sp, #64]	; 0x40
    aa7e:	2b00      	cmp	r3, #0
    aa80:	d000      	beq.n	aa84 <_dtoa_r+0x708>
    aa82:	e13b      	b.n	acfc <_dtoa_r+0x980>
    aa84:	9b0a      	ldr	r3, [sp, #40]	; 0x28
    aa86:	2b00      	cmp	r3, #0
    aa88:	dc51      	bgt.n	ab2e <_dtoa_r+0x7b2>
    aa8a:	9a24      	ldr	r2, [sp, #144]	; 0x90
    aa8c:	2301      	movs	r3, #1
    aa8e:	2a02      	cmp	r2, #2
    aa90:	dc00      	bgt.n	aa94 <_dtoa_r+0x718>
    aa92:	2300      	movs	r3, #0
    aa94:	061b      	lsls	r3, r3, #24
    aa96:	d04a      	beq.n	ab2e <_dtoa_r+0x7b2>
    aa98:	9b0a      	ldr	r3, [sp, #40]	; 0x28
    aa9a:	2b00      	cmp	r3, #0
    aa9c:	d100      	bne.n	aaa0 <_dtoa_r+0x724>
    aa9e:	e1cd      	b.n	ae3c <_dtoa_r+0xac0>
    aaa0:	9b25      	ldr	r3, [sp, #148]	; 0x94
    aaa2:	43dd      	mvns	r5, r3
    aaa4:	9c03      	ldr	r4, [sp, #12]
    aaa6:	0031      	movs	r1, r6
    aaa8:	4658      	mov	r0, fp
    aaaa:	f001 fd2f 	bl	c50c <_Bfree>
    aaae:	1c6b      	adds	r3, r5, #1
    aab0:	9306      	str	r3, [sp, #24]
    aab2:	4643      	mov	r3, r8
    aab4:	2b00      	cmp	r3, #0
    aab6:	d003      	beq.n	aac0 <_dtoa_r+0x744>
    aab8:	4641      	mov	r1, r8
    aaba:	4658      	mov	r0, fp
    aabc:	f001 fd26 	bl	c50c <_Bfree>
    aac0:	4651      	mov	r1, sl
    aac2:	4658      	mov	r0, fp
    aac4:	f001 fd22 	bl	c50c <_Bfree>
    aac8:	2300      	movs	r3, #0
    aaca:	9a03      	ldr	r2, [sp, #12]
    aacc:	9906      	ldr	r1, [sp, #24]
    aace:	7013      	strb	r3, [r2, #0]
    aad0:	9b26      	ldr	r3, [sp, #152]	; 0x98
    aad2:	6019      	str	r1, [r3, #0]
    aad4:	9b28      	ldr	r3, [sp, #160]	; 0xa0
    aad6:	2b00      	cmp	r3, #0
    aad8:	d100      	bne.n	aadc <_dtoa_r+0x760>
    aada:	e48a      	b.n	a3f2 <_dtoa_r+0x76>
    aadc:	601a      	str	r2, [r3, #0]
    aade:	e488      	b.n	a3f2 <_dtoa_r+0x76>
    aae0:	9a0d      	ldr	r2, [sp, #52]	; 0x34
    aae2:	4651      	mov	r1, sl
    aae4:	4658      	mov	r0, fp
    aae6:	f001 ff1b 	bl	c920 <__pow5mult>
    aaea:	4682      	mov	sl, r0
    aaec:	e787      	b.n	a9fe <_dtoa_r+0x682>
    aaee:	46c0      	nop			; (mov r8, r8)
    aaf0:	3ff00000 	.word	0x3ff00000
    aaf4:	fffffc01 	.word	0xfffffc01
    aaf8:	00010ca8 	.word	0x00010ca8
    aafc:	00010b14 	.word	0x00010b14
    ab00:	40240000 	.word	0x40240000
    ab04:	401c0000 	.word	0x401c0000
    ab08:	fcc00000 	.word	0xfcc00000
    ab0c:	00010df0 	.word	0x00010df0
    ab10:	3fe00000 	.word	0x3fe00000
    ab14:	231c      	movs	r3, #28
    ab16:	9a0b      	ldr	r2, [sp, #44]	; 0x2c
    ab18:	4694      	mov	ip, r2
    ab1a:	449c      	add	ip, r3
    ab1c:	4662      	mov	r2, ip
    ab1e:	920b      	str	r2, [sp, #44]	; 0x2c
    ab20:	9a07      	ldr	r2, [sp, #28]
    ab22:	4694      	mov	ip, r2
    ab24:	449c      	add	ip, r3
    ab26:	18e4      	adds	r4, r4, r3
    ab28:	4663      	mov	r3, ip
    ab2a:	9307      	str	r3, [sp, #28]
    ab2c:	e794      	b.n	aa58 <_dtoa_r+0x6dc>
    ab2e:	9b0c      	ldr	r3, [sp, #48]	; 0x30
    ab30:	2b00      	cmp	r3, #0
    ab32:	d100      	bne.n	ab36 <_dtoa_r+0x7ba>
    ab34:	e198      	b.n	ae68 <_dtoa_r+0xaec>
    ab36:	2c00      	cmp	r4, #0
    ab38:	dd05      	ble.n	ab46 <_dtoa_r+0x7ca>
    ab3a:	4641      	mov	r1, r8
    ab3c:	0022      	movs	r2, r4
    ab3e:	4658      	mov	r0, fp
    ab40:	f001 ff5c 	bl	c9fc <__lshift>
    ab44:	4680      	mov	r8, r0
    ab46:	46c1      	mov	r9, r8
    ab48:	2d00      	cmp	r5, #0
    ab4a:	d000      	beq.n	ab4e <_dtoa_r+0x7d2>
    ab4c:	e338      	b.n	b1c0 <_dtoa_r+0xe44>
    ab4e:	9a0a      	ldr	r2, [sp, #40]	; 0x28
    ab50:	4694      	mov	ip, r2
    ab52:	9b03      	ldr	r3, [sp, #12]
    ab54:	001d      	movs	r5, r3
    ab56:	3b01      	subs	r3, #1
    ab58:	449c      	add	ip, r3
    ab5a:	4663      	mov	r3, ip
    ab5c:	9308      	str	r3, [sp, #32]
    ab5e:	2301      	movs	r3, #1
    ab60:	464f      	mov	r7, r9
    ab62:	46a9      	mov	r9, r5
    ab64:	4655      	mov	r5, sl
    ab66:	46b2      	mov	sl, r6
    ab68:	4646      	mov	r6, r8
    ab6a:	9a04      	ldr	r2, [sp, #16]
    ab6c:	401a      	ands	r2, r3
    ab6e:	920a      	str	r2, [sp, #40]	; 0x28
    ab70:	4651      	mov	r1, sl
    ab72:	0028      	movs	r0, r5
    ab74:	f7ff fb5c 	bl	a230 <quorem>
    ab78:	0003      	movs	r3, r0
    ab7a:	0031      	movs	r1, r6
    ab7c:	3330      	adds	r3, #48	; 0x30
    ab7e:	900b      	str	r0, [sp, #44]	; 0x2c
    ab80:	0028      	movs	r0, r5
    ab82:	9307      	str	r3, [sp, #28]
    ab84:	f001 ffba 	bl	cafc <__mcmp>
    ab88:	4651      	mov	r1, sl
    ab8a:	0004      	movs	r4, r0
    ab8c:	003a      	movs	r2, r7
    ab8e:	4658      	mov	r0, fp
    ab90:	f001 ffd0 	bl	cb34 <__mdiff>
    ab94:	68c3      	ldr	r3, [r0, #12]
    ab96:	4680      	mov	r8, r0
    ab98:	0001      	movs	r1, r0
    ab9a:	2b00      	cmp	r3, #0
    ab9c:	d000      	beq.n	aba0 <_dtoa_r+0x824>
    ab9e:	e1f3      	b.n	af88 <_dtoa_r+0xc0c>
    aba0:	0028      	movs	r0, r5
    aba2:	f001 ffab 	bl	cafc <__mcmp>
    aba6:	4641      	mov	r1, r8
    aba8:	9004      	str	r0, [sp, #16]
    abaa:	4658      	mov	r0, fp
    abac:	f001 fcae 	bl	c50c <_Bfree>
    abb0:	9a24      	ldr	r2, [sp, #144]	; 0x90
    abb2:	9b04      	ldr	r3, [sp, #16]
    abb4:	4313      	orrs	r3, r2
    abb6:	9a0a      	ldr	r2, [sp, #40]	; 0x28
    abb8:	4313      	orrs	r3, r2
    abba:	d100      	bne.n	abbe <_dtoa_r+0x842>
    abbc:	e363      	b.n	b286 <_dtoa_r+0xf0a>
    abbe:	2c00      	cmp	r4, #0
    abc0:	da00      	bge.n	abc4 <_dtoa_r+0x848>
    abc2:	e2d2      	b.n	b16a <_dtoa_r+0xdee>
    abc4:	9b24      	ldr	r3, [sp, #144]	; 0x90
    abc6:	431c      	orrs	r4, r3
    abc8:	9b0a      	ldr	r3, [sp, #40]	; 0x28
    abca:	431c      	orrs	r4, r3
    abcc:	d100      	bne.n	abd0 <_dtoa_r+0x854>
    abce:	e2cc      	b.n	b16a <_dtoa_r+0xdee>
    abd0:	9b04      	ldr	r3, [sp, #16]
    abd2:	2b00      	cmp	r3, #0
    abd4:	dd00      	ble.n	abd8 <_dtoa_r+0x85c>
    abd6:	e334      	b.n	b242 <_dtoa_r+0xec6>
    abd8:	464a      	mov	r2, r9
    abda:	464b      	mov	r3, r9
    abdc:	9907      	ldr	r1, [sp, #28]
    abde:	7011      	strb	r1, [r2, #0]
    abe0:	9a08      	ldr	r2, [sp, #32]
    abe2:	1c5c      	adds	r4, r3, #1
    abe4:	454a      	cmp	r2, r9
    abe6:	d100      	bne.n	abea <_dtoa_r+0x86e>
    abe8:	e338      	b.n	b25c <_dtoa_r+0xee0>
    abea:	0029      	movs	r1, r5
    abec:	2300      	movs	r3, #0
    abee:	220a      	movs	r2, #10
    abf0:	4658      	mov	r0, fp
    abf2:	f001 fc95 	bl	c520 <__multadd>
    abf6:	2300      	movs	r3, #0
    abf8:	0005      	movs	r5, r0
    abfa:	220a      	movs	r2, #10
    abfc:	0031      	movs	r1, r6
    abfe:	4658      	mov	r0, fp
    ac00:	42be      	cmp	r6, r7
    ac02:	d100      	bne.n	ac06 <_dtoa_r+0x88a>
    ac04:	e1d2      	b.n	afac <_dtoa_r+0xc30>
    ac06:	f001 fc8b 	bl	c520 <__multadd>
    ac0a:	0039      	movs	r1, r7
    ac0c:	0006      	movs	r6, r0
    ac0e:	2300      	movs	r3, #0
    ac10:	220a      	movs	r2, #10
    ac12:	4658      	mov	r0, fp
    ac14:	f001 fc84 	bl	c520 <__multadd>
    ac18:	46a1      	mov	r9, r4
    ac1a:	0007      	movs	r7, r0
    ac1c:	e7a8      	b.n	ab70 <_dtoa_r+0x7f4>
    ac1e:	9b06      	ldr	r3, [sp, #24]
    ac20:	2b00      	cmp	r3, #0
    ac22:	d100      	bne.n	ac26 <_dtoa_r+0x8aa>
    ac24:	e17a      	b.n	af1c <_dtoa_r+0xba0>
    ac26:	425e      	negs	r6, r3
    ac28:	230f      	movs	r3, #15
    ac2a:	4ada      	ldr	r2, [pc, #872]	; (af94 <_dtoa_r+0xc18>)
    ac2c:	4033      	ands	r3, r6
    ac2e:	00db      	lsls	r3, r3, #3
    ac30:	18d3      	adds	r3, r2, r3
    ac32:	681a      	ldr	r2, [r3, #0]
    ac34:	685b      	ldr	r3, [r3, #4]
    ac36:	9808      	ldr	r0, [sp, #32]
    ac38:	9909      	ldr	r1, [sp, #36]	; 0x24
    ac3a:	f005 fed5 	bl	109e8 <____aeabi_dmul_from_thumb>
    ac3e:	1136      	asrs	r6, r6, #4
    ac40:	9012      	str	r0, [sp, #72]	; 0x48
    ac42:	9113      	str	r1, [sp, #76]	; 0x4c
    ac44:	2e00      	cmp	r6, #0
    ac46:	d100      	bne.n	ac4a <_dtoa_r+0x8ce>
    ac48:	e34e      	b.n	b2e8 <_dtoa_r+0xf6c>
    ac4a:	2202      	movs	r2, #2
    ac4c:	0004      	movs	r4, r0
    ac4e:	000d      	movs	r5, r1
    ac50:	2300      	movs	r3, #0
    ac52:	4690      	mov	r8, r2
    ac54:	4fd0      	ldr	r7, [pc, #832]	; (af98 <_dtoa_r+0xc1c>)
    ac56:	2201      	movs	r2, #1
    ac58:	4232      	tst	r2, r6
    ac5a:	d00b      	beq.n	ac74 <_dtoa_r+0x8f8>
    ac5c:	2301      	movs	r3, #1
    ac5e:	469c      	mov	ip, r3
    ac60:	0020      	movs	r0, r4
    ac62:	0029      	movs	r1, r5
    ac64:	683a      	ldr	r2, [r7, #0]
    ac66:	687b      	ldr	r3, [r7, #4]
    ac68:	44e0      	add	r8, ip
    ac6a:	f005 febd 	bl	109e8 <____aeabi_dmul_from_thumb>
    ac6e:	0004      	movs	r4, r0
    ac70:	000d      	movs	r5, r1
    ac72:	9b0e      	ldr	r3, [sp, #56]	; 0x38
    ac74:	1076      	asrs	r6, r6, #1
    ac76:	3708      	adds	r7, #8
    ac78:	2e00      	cmp	r6, #0
    ac7a:	d1ec      	bne.n	ac56 <_dtoa_r+0x8da>
    ac7c:	2b00      	cmp	r3, #0
    ac7e:	d000      	beq.n	ac82 <_dtoa_r+0x906>
    ac80:	e4c4      	b.n	a60c <_dtoa_r+0x290>
    ac82:	9c12      	ldr	r4, [sp, #72]	; 0x48
    ac84:	9d13      	ldr	r5, [sp, #76]	; 0x4c
    ac86:	e4c1      	b.n	a60c <_dtoa_r+0x290>
    ac88:	4bc2      	ldr	r3, [pc, #776]	; (af94 <_dtoa_r+0xc18>)
    ac8a:	00e2      	lsls	r2, r4, #3
    ac8c:	189b      	adds	r3, r3, r2
    ac8e:	681e      	ldr	r6, [r3, #0]
    ac90:	685f      	ldr	r7, [r3, #4]
    ac92:	9b25      	ldr	r3, [sp, #148]	; 0x94
    ac94:	2b00      	cmp	r3, #0
    ac96:	db00      	blt.n	ac9a <_dtoa_r+0x91e>
    ac98:	e1c2      	b.n	b020 <_dtoa_r+0xca4>
    ac9a:	9b0a      	ldr	r3, [sp, #40]	; 0x28
    ac9c:	2b00      	cmp	r3, #0
    ac9e:	dd00      	ble.n	aca2 <_dtoa_r+0x926>
    aca0:	e1be      	b.n	b020 <_dtoa_r+0xca4>
    aca2:	d000      	beq.n	aca6 <_dtoa_r+0x92a>
    aca4:	e157      	b.n	af56 <_dtoa_r+0xbda>
    aca6:	2200      	movs	r2, #0
    aca8:	0030      	movs	r0, r6
    acaa:	4bbc      	ldr	r3, [pc, #752]	; (af9c <_dtoa_r+0xc20>)
    acac:	0039      	movs	r1, r7
    acae:	f005 fe9b 	bl	109e8 <____aeabi_dmul_from_thumb>
    acb2:	000b      	movs	r3, r1
    acb4:	0002      	movs	r2, r0
    acb6:	9808      	ldr	r0, [sp, #32]
    acb8:	9909      	ldr	r1, [sp, #36]	; 0x24
    acba:	f005 fecf 	bl	10a5c <____aeabi_dcmple_from_thumb>
    acbe:	2300      	movs	r3, #0
    acc0:	2600      	movs	r6, #0
    acc2:	4698      	mov	r8, r3
    acc4:	2800      	cmp	r0, #0
    acc6:	d000      	beq.n	acca <_dtoa_r+0x94e>
    acc8:	e6ea      	b.n	aaa0 <_dtoa_r+0x724>
    acca:	e0c4      	b.n	ae56 <_dtoa_r+0xada>
    accc:	0001      	movs	r1, r0
    acce:	464a      	mov	r2, r9
    acd0:	4658      	mov	r0, fp
    acd2:	f001 fe25 	bl	c920 <__pow5mult>
    acd6:	9b24      	ldr	r3, [sp, #144]	; 0x90
    acd8:	0006      	movs	r6, r0
    acda:	2b01      	cmp	r3, #1
    acdc:	dc00      	bgt.n	ace0 <_dtoa_r+0x964>
    acde:	e123      	b.n	af28 <_dtoa_r+0xbac>
    ace0:	2500      	movs	r5, #0
    ace2:	6933      	ldr	r3, [r6, #16]
    ace4:	3303      	adds	r3, #3
    ace6:	009b      	lsls	r3, r3, #2
    ace8:	18f3      	adds	r3, r6, r3
    acea:	6858      	ldr	r0, [r3, #4]
    acec:	f001 fcc8 	bl	c680 <__hi0bits>
    acf0:	2320      	movs	r3, #32
    acf2:	1a18      	subs	r0, r3, r0
    acf4:	e696      	b.n	aa24 <_dtoa_r+0x6a8>
    acf6:	2301      	movs	r3, #1
    acf8:	930c      	str	r3, [sp, #48]	; 0x30
    acfa:	e590      	b.n	a81e <_dtoa_r+0x4a2>
    acfc:	0031      	movs	r1, r6
    acfe:	4650      	mov	r0, sl
    ad00:	f001 fefc 	bl	cafc <__mcmp>
    ad04:	2800      	cmp	r0, #0
    ad06:	db00      	blt.n	ad0a <_dtoa_r+0x98e>
    ad08:	e6bc      	b.n	aa84 <_dtoa_r+0x708>
    ad0a:	9b06      	ldr	r3, [sp, #24]
    ad0c:	4651      	mov	r1, sl
    ad0e:	220a      	movs	r2, #10
    ad10:	4658      	mov	r0, fp
    ad12:	1e5f      	subs	r7, r3, #1
    ad14:	2300      	movs	r3, #0
    ad16:	f001 fc03 	bl	c520 <__multadd>
    ad1a:	9b0c      	ldr	r3, [sp, #48]	; 0x30
    ad1c:	4682      	mov	sl, r0
    ad1e:	2b00      	cmp	r3, #0
    ad20:	d000      	beq.n	ad24 <_dtoa_r+0x9a8>
    ad22:	e2bf      	b.n	b2a4 <_dtoa_r+0xf28>
    ad24:	9b16      	ldr	r3, [sp, #88]	; 0x58
    ad26:	2b00      	cmp	r3, #0
    ad28:	dd00      	ble.n	ad2c <_dtoa_r+0x9b0>
    ad2a:	e2b8      	b.n	b29e <_dtoa_r+0xf22>
    ad2c:	9a24      	ldr	r2, [sp, #144]	; 0x90
    ad2e:	2301      	movs	r3, #1
    ad30:	2a02      	cmp	r2, #2
    ad32:	dc00      	bgt.n	ad36 <_dtoa_r+0x9ba>
    ad34:	2300      	movs	r3, #0
    ad36:	061b      	lsls	r3, r3, #24
    ad38:	d100      	bne.n	ad3c <_dtoa_r+0x9c0>
    ad3a:	e2b0      	b.n	b29e <_dtoa_r+0xf22>
    ad3c:	9b16      	ldr	r3, [sp, #88]	; 0x58
    ad3e:	9706      	str	r7, [sp, #24]
    ad40:	930a      	str	r3, [sp, #40]	; 0x28
    ad42:	e6a9      	b.n	aa98 <_dtoa_r+0x71c>
    ad44:	9a08      	ldr	r2, [sp, #32]
    ad46:	9b09      	ldr	r3, [sp, #36]	; 0x24
    ad48:	920e      	str	r2, [sp, #56]	; 0x38
    ad4a:	930f      	str	r3, [sp, #60]	; 0x3c
    ad4c:	2302      	movs	r3, #2
    ad4e:	4698      	mov	r8, r3
    ad50:	e440      	b.n	a5d4 <_dtoa_r+0x258>
    ad52:	2301      	movs	r3, #1
    ad54:	930a      	str	r3, [sp, #40]	; 0x28
    ad56:	9325      	str	r3, [sp, #148]	; 0x94
    ad58:	e542      	b.n	a7e0 <_dtoa_r+0x464>
    ad5a:	9b0e      	ldr	r3, [sp, #56]	; 0x38
    ad5c:	498d      	ldr	r1, [pc, #564]	; (af94 <_dtoa_r+0xc18>)
    ad5e:	3b01      	subs	r3, #1
    ad60:	00db      	lsls	r3, r3, #3
    ad62:	18c9      	adds	r1, r1, r3
    ad64:	0032      	movs	r2, r6
    ad66:	003b      	movs	r3, r7
    ad68:	6808      	ldr	r0, [r1, #0]
    ad6a:	6849      	ldr	r1, [r1, #4]
    ad6c:	f005 fe3c 	bl	109e8 <____aeabi_dmul_from_thumb>
    ad70:	9014      	str	r0, [sp, #80]	; 0x50
    ad72:	9115      	str	r1, [sp, #84]	; 0x54
    ad74:	0029      	movs	r1, r5
    ad76:	0020      	movs	r0, r4
    ad78:	f005 fe7c 	bl	10a74 <____aeabi_d2iz_from_thumb>
    ad7c:	0006      	movs	r6, r0
    ad7e:	f005 fe49 	bl	10a14 <____aeabi_i2d_from_thumb>
    ad82:	0002      	movs	r2, r0
    ad84:	000b      	movs	r3, r1
    ad86:	0020      	movs	r0, r4
    ad88:	0029      	movs	r1, r5
    ad8a:	f005 fe21 	bl	109d0 <____aeabi_dsub_from_thumb>
    ad8e:	9a03      	ldr	r2, [sp, #12]
    ad90:	000d      	movs	r5, r1
    ad92:	1c51      	adds	r1, r2, #1
    ad94:	4688      	mov	r8, r1
    ad96:	0011      	movs	r1, r2
    ad98:	9b0e      	ldr	r3, [sp, #56]	; 0x38
    ad9a:	3630      	adds	r6, #48	; 0x30
    ad9c:	7016      	strb	r6, [r2, #0]
    ad9e:	468c      	mov	ip, r1
    ada0:	001a      	movs	r2, r3
    ada2:	4462      	add	r2, ip
    ada4:	0004      	movs	r4, r0
    ada6:	4646      	mov	r6, r8
    ada8:	920e      	str	r2, [sp, #56]	; 0x38
    adaa:	2b01      	cmp	r3, #1
    adac:	d01d      	beq.n	adea <_dtoa_r+0xa6e>
    adae:	9b0e      	ldr	r3, [sp, #56]	; 0x38
    adb0:	4698      	mov	r8, r3
    adb2:	2200      	movs	r2, #0
    adb4:	4b7a      	ldr	r3, [pc, #488]	; (afa0 <_dtoa_r+0xc24>)
    adb6:	0020      	movs	r0, r4
    adb8:	0029      	movs	r1, r5
    adba:	f005 fe15 	bl	109e8 <____aeabi_dmul_from_thumb>
    adbe:	000d      	movs	r5, r1
    adc0:	0004      	movs	r4, r0
    adc2:	f005 fe57 	bl	10a74 <____aeabi_d2iz_from_thumb>
    adc6:	0007      	movs	r7, r0
    adc8:	f005 fe24 	bl	10a14 <____aeabi_i2d_from_thumb>
    adcc:	0002      	movs	r2, r0
    adce:	000b      	movs	r3, r1
    add0:	0020      	movs	r0, r4
    add2:	0029      	movs	r1, r5
    add4:	f005 fdfc 	bl	109d0 <____aeabi_dsub_from_thumb>
    add8:	3730      	adds	r7, #48	; 0x30
    adda:	7037      	strb	r7, [r6, #0]
    addc:	3601      	adds	r6, #1
    adde:	0004      	movs	r4, r0
    ade0:	000d      	movs	r5, r1
    ade2:	45b0      	cmp	r8, r6
    ade4:	d1e5      	bne.n	adb2 <_dtoa_r+0xa36>
    ade6:	9b0e      	ldr	r3, [sp, #56]	; 0x38
    ade8:	4698      	mov	r8, r3
    adea:	9e14      	ldr	r6, [sp, #80]	; 0x50
    adec:	9f15      	ldr	r7, [sp, #84]	; 0x54
    adee:	2200      	movs	r2, #0
    adf0:	4b6c      	ldr	r3, [pc, #432]	; (afa4 <_dtoa_r+0xc28>)
    adf2:	0030      	movs	r0, r6
    adf4:	0039      	movs	r1, r7
    adf6:	f005 fe35 	bl	10a64 <____aeabi_dadd_from_thumb>
    adfa:	0002      	movs	r2, r0
    adfc:	000b      	movs	r3, r1
    adfe:	0020      	movs	r0, r4
    ae00:	0029      	movs	r1, r5
    ae02:	f005 fe3b 	bl	10a7c <____aeabi_dcmpgt_from_thumb>
    ae06:	2800      	cmp	r0, #0
    ae08:	d000      	beq.n	ae0c <_dtoa_r+0xa90>
    ae0a:	e1d5      	b.n	b1b8 <_dtoa_r+0xe3c>
    ae0c:	0032      	movs	r2, r6
    ae0e:	003b      	movs	r3, r7
    ae10:	2000      	movs	r0, #0
    ae12:	4964      	ldr	r1, [pc, #400]	; (afa4 <_dtoa_r+0xc28>)
    ae14:	f005 fddc 	bl	109d0 <____aeabi_dsub_from_thumb>
    ae18:	0002      	movs	r2, r0
    ae1a:	000b      	movs	r3, r1
    ae1c:	0020      	movs	r0, r4
    ae1e:	0029      	movs	r1, r5
    ae20:	f005 fe18 	bl	10a54 <____aeabi_dcmplt_from_thumb>
    ae24:	2800      	cmp	r0, #0
    ae26:	d100      	bne.n	ae2a <_dtoa_r+0xaae>
    ae28:	e42d      	b.n	a686 <_dtoa_r+0x30a>
    ae2a:	4643      	mov	r3, r8
    ae2c:	001a      	movs	r2, r3
    ae2e:	3b01      	subs	r3, #1
    ae30:	7819      	ldrb	r1, [r3, #0]
    ae32:	2930      	cmp	r1, #48	; 0x30
    ae34:	d0fa      	beq.n	ae2c <_dtoa_r+0xab0>
    ae36:	e5bb      	b.n	a9b0 <_dtoa_r+0x634>
    ae38:	0013      	movs	r3, r2
    ae3a:	e5cc      	b.n	a9d6 <_dtoa_r+0x65a>
    ae3c:	0031      	movs	r1, r6
    ae3e:	2205      	movs	r2, #5
    ae40:	4658      	mov	r0, fp
    ae42:	f001 fb6d 	bl	c520 <__multadd>
    ae46:	0006      	movs	r6, r0
    ae48:	0001      	movs	r1, r0
    ae4a:	4650      	mov	r0, sl
    ae4c:	f001 fe56 	bl	cafc <__mcmp>
    ae50:	2800      	cmp	r0, #0
    ae52:	dc00      	bgt.n	ae56 <_dtoa_r+0xada>
    ae54:	e624      	b.n	aaa0 <_dtoa_r+0x724>
    ae56:	2331      	movs	r3, #49	; 0x31
    ae58:	9a03      	ldr	r2, [sp, #12]
    ae5a:	9d06      	ldr	r5, [sp, #24]
    ae5c:	7013      	strb	r3, [r2, #0]
    ae5e:	1c53      	adds	r3, r2, #1
    ae60:	0014      	movs	r4, r2
    ae62:	9303      	str	r3, [sp, #12]
    ae64:	3501      	adds	r5, #1
    ae66:	e61e      	b.n	aaa6 <_dtoa_r+0x72a>
    ae68:	9b06      	ldr	r3, [sp, #24]
    ae6a:	3301      	adds	r3, #1
    ae6c:	9306      	str	r3, [sp, #24]
    ae6e:	9b03      	ldr	r3, [sp, #12]
    ae70:	1e5d      	subs	r5, r3, #1
    ae72:	9b0a      	ldr	r3, [sp, #40]	; 0x28
    ae74:	4657      	mov	r7, sl
    ae76:	46a9      	mov	r9, r5
    ae78:	2401      	movs	r4, #1
    ae7a:	469a      	mov	sl, r3
    ae7c:	465d      	mov	r5, fp
    ae7e:	e007      	b.n	ae90 <_dtoa_r+0xb14>
    ae80:	0039      	movs	r1, r7
    ae82:	2300      	movs	r3, #0
    ae84:	220a      	movs	r2, #10
    ae86:	0028      	movs	r0, r5
    ae88:	f001 fb4a 	bl	c520 <__multadd>
    ae8c:	0007      	movs	r7, r0
    ae8e:	3401      	adds	r4, #1
    ae90:	0031      	movs	r1, r6
    ae92:	0038      	movs	r0, r7
    ae94:	f7ff f9cc 	bl	a230 <quorem>
    ae98:	464b      	mov	r3, r9
    ae9a:	3030      	adds	r0, #48	; 0x30
    ae9c:	5518      	strb	r0, [r3, r4]
    ae9e:	4554      	cmp	r4, sl
    aea0:	dbee      	blt.n	ae80 <_dtoa_r+0xb04>
    aea2:	9b0a      	ldr	r3, [sp, #40]	; 0x28
    aea4:	46ba      	mov	sl, r7
    aea6:	46ab      	mov	fp, r5
    aea8:	2701      	movs	r7, #1
    aeaa:	9007      	str	r0, [sp, #28]
    aeac:	2b00      	cmp	r3, #0
    aeae:	dd00      	ble.n	aeb2 <_dtoa_r+0xb36>
    aeb0:	001f      	movs	r7, r3
    aeb2:	9b03      	ldr	r3, [sp, #12]
    aeb4:	469c      	mov	ip, r3
    aeb6:	2400      	movs	r4, #0
    aeb8:	4467      	add	r7, ip
    aeba:	4651      	mov	r1, sl
    aebc:	2201      	movs	r2, #1
    aebe:	4658      	mov	r0, fp
    aec0:	f001 fd9c 	bl	c9fc <__lshift>
    aec4:	0031      	movs	r1, r6
    aec6:	4682      	mov	sl, r0
    aec8:	f001 fe18 	bl	cafc <__mcmp>
    aecc:	2800      	cmp	r0, #0
    aece:	dc00      	bgt.n	aed2 <_dtoa_r+0xb56>
    aed0:	e10c      	b.n	b0ec <_dtoa_r+0xd70>
    aed2:	1e7d      	subs	r5, r7, #1
    aed4:	782a      	ldrb	r2, [r5, #0]
    aed6:	002b      	movs	r3, r5
    aed8:	9903      	ldr	r1, [sp, #12]
    aeda:	e006      	b.n	aeea <_dtoa_r+0xb6e>
    aedc:	3b01      	subs	r3, #1
    aede:	428d      	cmp	r5, r1
    aee0:	d100      	bne.n	aee4 <_dtoa_r+0xb68>
    aee2:	e113      	b.n	b10c <_dtoa_r+0xd90>
    aee4:	781a      	ldrb	r2, [r3, #0]
    aee6:	002f      	movs	r7, r5
    aee8:	3d01      	subs	r5, #1
    aeea:	2a39      	cmp	r2, #57	; 0x39
    aeec:	d0f6      	beq.n	aedc <_dtoa_r+0xb60>
    aeee:	3201      	adds	r2, #1
    aef0:	702a      	strb	r2, [r5, #0]
    aef2:	0031      	movs	r1, r6
    aef4:	4658      	mov	r0, fp
    aef6:	f001 fb09 	bl	c50c <_Bfree>
    aefa:	4643      	mov	r3, r8
    aefc:	2b00      	cmp	r3, #0
    aefe:	d100      	bne.n	af02 <_dtoa_r+0xb86>
    af00:	e101      	b.n	b106 <_dtoa_r+0xd8a>
    af02:	2c00      	cmp	r4, #0
    af04:	d100      	bne.n	af08 <_dtoa_r+0xb8c>
    af06:	e226      	b.n	b356 <_dtoa_r+0xfda>
    af08:	4544      	cmp	r4, r8
    af0a:	d100      	bne.n	af0e <_dtoa_r+0xb92>
    af0c:	e223      	b.n	b356 <_dtoa_r+0xfda>
    af0e:	0021      	movs	r1, r4
    af10:	4658      	mov	r0, fp
    af12:	f001 fafb 	bl	c50c <_Bfree>
    af16:	9c03      	ldr	r4, [sp, #12]
    af18:	9703      	str	r7, [sp, #12]
    af1a:	e5cd      	b.n	aab8 <_dtoa_r+0x73c>
    af1c:	2302      	movs	r3, #2
    af1e:	9c08      	ldr	r4, [sp, #32]
    af20:	9d09      	ldr	r5, [sp, #36]	; 0x24
    af22:	4698      	mov	r8, r3
    af24:	f7ff fb72 	bl	a60c <_dtoa_r+0x290>
    af28:	9b04      	ldr	r3, [sp, #16]
    af2a:	2b00      	cmp	r3, #0
    af2c:	d000      	beq.n	af30 <_dtoa_r+0xbb4>
    af2e:	e6d7      	b.n	ace0 <_dtoa_r+0x964>
    af30:	9904      	ldr	r1, [sp, #16]
    af32:	9a05      	ldr	r2, [sp, #20]
    af34:	0013      	movs	r3, r2
    af36:	0312      	lsls	r2, r2, #12
    af38:	d000      	beq.n	af3c <_dtoa_r+0xbc0>
    af3a:	e6d1      	b.n	ace0 <_dtoa_r+0x964>
    af3c:	4a1a      	ldr	r2, [pc, #104]	; (afa8 <_dtoa_r+0xc2c>)
    af3e:	2500      	movs	r5, #0
    af40:	4213      	tst	r3, r2
    af42:	d100      	bne.n	af46 <_dtoa_r+0xbca>
    af44:	e569      	b.n	aa1a <_dtoa_r+0x69e>
    af46:	9b0b      	ldr	r3, [sp, #44]	; 0x2c
    af48:	3301      	adds	r3, #1
    af4a:	930b      	str	r3, [sp, #44]	; 0x2c
    af4c:	9b07      	ldr	r3, [sp, #28]
    af4e:	3301      	adds	r3, #1
    af50:	9307      	str	r3, [sp, #28]
    af52:	3501      	adds	r5, #1
    af54:	e561      	b.n	aa1a <_dtoa_r+0x69e>
    af56:	2300      	movs	r3, #0
    af58:	2600      	movs	r6, #0
    af5a:	4698      	mov	r8, r3
    af5c:	e5a0      	b.n	aaa0 <_dtoa_r+0x724>
    af5e:	4641      	mov	r1, r8
    af60:	002a      	movs	r2, r5
    af62:	4658      	mov	r0, fp
    af64:	f001 fcdc 	bl	c920 <__pow5mult>
    af68:	4652      	mov	r2, sl
    af6a:	0001      	movs	r1, r0
    af6c:	4680      	mov	r8, r0
    af6e:	4658      	mov	r0, fp
    af70:	f001 fc02 	bl	c778 <__multiply>
    af74:	0006      	movs	r6, r0
    af76:	4651      	mov	r1, sl
    af78:	4658      	mov	r0, fp
    af7a:	f001 fac7 	bl	c50c <_Bfree>
    af7e:	46b2      	mov	sl, r6
    af80:	e539      	b.n	a9f6 <_dtoa_r+0x67a>
    af82:	1b5d      	subs	r5, r3, r5
    af84:	f7ff fba0 	bl	a6c8 <_dtoa_r+0x34c>
    af88:	4658      	mov	r0, fp
    af8a:	f001 fabf 	bl	c50c <_Bfree>
    af8e:	2301      	movs	r3, #1
    af90:	9304      	str	r3, [sp, #16]
    af92:	e614      	b.n	abbe <_dtoa_r+0x842>
    af94:	00010df0 	.word	0x00010df0
    af98:	00010dc8 	.word	0x00010dc8
    af9c:	40140000 	.word	0x40140000
    afa0:	40240000 	.word	0x40240000
    afa4:	3fe00000 	.word	0x3fe00000
    afa8:	7ff00000 	.word	0x7ff00000
    afac:	f001 fab8 	bl	c520 <__multadd>
    afb0:	46a1      	mov	r9, r4
    afb2:	0006      	movs	r6, r0
    afb4:	0007      	movs	r7, r0
    afb6:	e5db      	b.n	ab70 <_dtoa_r+0x7f4>
    afb8:	2301      	movs	r3, #1
    afba:	930c      	str	r3, [sp, #48]	; 0x30
    afbc:	f7ff fabf 	bl	a53e <_dtoa_r+0x1c2>
    afc0:	9904      	ldr	r1, [sp, #16]
    afc2:	9a05      	ldr	r2, [sp, #20]
    afc4:	2900      	cmp	r1, #0
    afc6:	d000      	beq.n	afca <_dtoa_r+0xc4e>
    afc8:	e527      	b.n	aa1a <_dtoa_r+0x69e>
    afca:	0013      	movs	r3, r2
    afcc:	0312      	lsls	r2, r2, #12
    afce:	d000      	beq.n	afd2 <_dtoa_r+0xc56>
    afd0:	e523      	b.n	aa1a <_dtoa_r+0x69e>
    afd2:	e7b3      	b.n	af3c <_dtoa_r+0xbc0>
    afd4:	2300      	movs	r3, #0
    afd6:	9310      	str	r3, [sp, #64]	; 0x40
    afd8:	f7ff fc14 	bl	a804 <_dtoa_r+0x488>
    afdc:	9b11      	ldr	r3, [sp, #68]	; 0x44
    afde:	2b00      	cmp	r3, #0
    afe0:	d100      	bne.n	afe4 <_dtoa_r+0xc68>
    afe2:	e0b1      	b.n	b148 <_dtoa_r+0xdcc>
    afe4:	4bde      	ldr	r3, [pc, #888]	; (b360 <_dtoa_r+0xfe4>)
    afe6:	469c      	mov	ip, r3
    afe8:	9b07      	ldr	r3, [sp, #28]
    afea:	4462      	add	r2, ip
    afec:	469c      	mov	ip, r3
    afee:	4494      	add	ip, r2
    aff0:	4663      	mov	r3, ip
    aff2:	9307      	str	r3, [sp, #28]
    aff4:	9b0b      	ldr	r3, [sp, #44]	; 0x2c
    aff6:	469c      	mov	ip, r3
    aff8:	4494      	add	ip, r2
    affa:	001c      	movs	r4, r3
    affc:	4663      	mov	r3, ip
    affe:	9d0d      	ldr	r5, [sp, #52]	; 0x34
    b000:	930b      	str	r3, [sp, #44]	; 0x2c
    b002:	f7ff fb6d 	bl	a6e0 <_dtoa_r+0x364>
    b006:	2300      	movs	r3, #0
    b008:	2600      	movs	r6, #0
    b00a:	4698      	mov	r8, r3
    b00c:	e723      	b.n	ae56 <_dtoa_r+0xada>
    b00e:	9b06      	ldr	r3, [sp, #24]
    b010:	00da      	lsls	r2, r3, #3
    b012:	4bd4      	ldr	r3, [pc, #848]	; (b364 <_dtoa_r+0xfe8>)
    b014:	189b      	adds	r3, r3, r2
    b016:	681e      	ldr	r6, [r3, #0]
    b018:	685f      	ldr	r7, [r3, #4]
    b01a:	2301      	movs	r3, #1
    b01c:	425b      	negs	r3, r3
    b01e:	930a      	str	r3, [sp, #40]	; 0x28
    b020:	9c08      	ldr	r4, [sp, #32]
    b022:	9d09      	ldr	r5, [sp, #36]	; 0x24
    b024:	0032      	movs	r2, r6
    b026:	003b      	movs	r3, r7
    b028:	0020      	movs	r0, r4
    b02a:	0029      	movs	r1, r5
    b02c:	f005 fd1e 	bl	10a6c <____aeabi_ddiv_from_thumb>
    b030:	f005 fd20 	bl	10a74 <____aeabi_d2iz_from_thumb>
    b034:	4681      	mov	r9, r0
    b036:	f005 fced 	bl	10a14 <____aeabi_i2d_from_thumb>
    b03a:	0032      	movs	r2, r6
    b03c:	003b      	movs	r3, r7
    b03e:	f005 fcd3 	bl	109e8 <____aeabi_dmul_from_thumb>
    b042:	0002      	movs	r2, r0
    b044:	000b      	movs	r3, r1
    b046:	0020      	movs	r0, r4
    b048:	0029      	movs	r1, r5
    b04a:	f005 fcc1 	bl	109d0 <____aeabi_dsub_from_thumb>
    b04e:	9a03      	ldr	r2, [sp, #12]
    b050:	1c53      	adds	r3, r2, #1
    b052:	4698      	mov	r8, r3
    b054:	464b      	mov	r3, r9
    b056:	3330      	adds	r3, #48	; 0x30
    b058:	7013      	strb	r3, [r2, #0]
    b05a:	2301      	movs	r3, #1
    b05c:	001c      	movs	r4, r3
    b05e:	1e53      	subs	r3, r2, #1
    b060:	9304      	str	r3, [sp, #16]
    b062:	9b0a      	ldr	r3, [sp, #40]	; 0x28
    b064:	2b01      	cmp	r3, #1
    b066:	d100      	bne.n	b06a <_dtoa_r+0xcee>
    b068:	e0cc      	b.n	b204 <_dtoa_r+0xe88>
    b06a:	465b      	mov	r3, fp
    b06c:	46d3      	mov	fp, sl
    b06e:	9307      	str	r3, [sp, #28]
    b070:	46c2      	mov	sl, r8
    b072:	46a0      	mov	r8, r4
    b074:	e023      	b.n	b0be <_dtoa_r+0xd42>
    b076:	2301      	movs	r3, #1
    b078:	469c      	mov	ip, r3
    b07a:	0032      	movs	r2, r6
    b07c:	003b      	movs	r3, r7
    b07e:	0020      	movs	r0, r4
    b080:	0029      	movs	r1, r5
    b082:	44e0      	add	r8, ip
    b084:	f005 fcf2 	bl	10a6c <____aeabi_ddiv_from_thumb>
    b088:	f005 fcf4 	bl	10a74 <____aeabi_d2iz_from_thumb>
    b08c:	4681      	mov	r9, r0
    b08e:	f005 fcc1 	bl	10a14 <____aeabi_i2d_from_thumb>
    b092:	0032      	movs	r2, r6
    b094:	003b      	movs	r3, r7
    b096:	f005 fca7 	bl	109e8 <____aeabi_dmul_from_thumb>
    b09a:	0002      	movs	r2, r0
    b09c:	000b      	movs	r3, r1
    b09e:	0020      	movs	r0, r4
    b0a0:	0029      	movs	r1, r5
    b0a2:	f005 fc95 	bl	109d0 <____aeabi_dsub_from_thumb>
    b0a6:	2301      	movs	r3, #1
    b0a8:	469c      	mov	ip, r3
    b0aa:	464b      	mov	r3, r9
    b0ac:	4644      	mov	r4, r8
    b0ae:	9a04      	ldr	r2, [sp, #16]
    b0b0:	3330      	adds	r3, #48	; 0x30
    b0b2:	5513      	strb	r3, [r2, r4]
    b0b4:	9b0a      	ldr	r3, [sp, #40]	; 0x28
    b0b6:	44e2      	add	sl, ip
    b0b8:	4598      	cmp	r8, r3
    b0ba:	d100      	bne.n	b0be <_dtoa_r+0xd42>
    b0bc:	e09e      	b.n	b1fc <_dtoa_r+0xe80>
    b0be:	2200      	movs	r2, #0
    b0c0:	4ba9      	ldr	r3, [pc, #676]	; (b368 <_dtoa_r+0xfec>)
    b0c2:	f005 fc91 	bl	109e8 <____aeabi_dmul_from_thumb>
    b0c6:	2200      	movs	r2, #0
    b0c8:	2300      	movs	r3, #0
    b0ca:	0004      	movs	r4, r0
    b0cc:	000d      	movs	r5, r1
    b0ce:	f005 fc87 	bl	109e0 <____aeabi_dcmpeq_from_thumb>
    b0d2:	2800      	cmp	r0, #0
    b0d4:	d0cf      	beq.n	b076 <_dtoa_r+0xcfa>
    b0d6:	9b07      	ldr	r3, [sp, #28]
    b0d8:	46d0      	mov	r8, sl
    b0da:	46da      	mov	sl, fp
    b0dc:	469b      	mov	fp, r3
    b0de:	9b06      	ldr	r3, [sp, #24]
    b0e0:	3301      	adds	r3, #1
    b0e2:	9306      	str	r3, [sp, #24]
    b0e4:	4643      	mov	r3, r8
    b0e6:	9c03      	ldr	r4, [sp, #12]
    b0e8:	9303      	str	r3, [sp, #12]
    b0ea:	e4e9      	b.n	aac0 <_dtoa_r+0x744>
    b0ec:	2800      	cmp	r0, #0
    b0ee:	d103      	bne.n	b0f8 <_dtoa_r+0xd7c>
    b0f0:	9b07      	ldr	r3, [sp, #28]
    b0f2:	07db      	lsls	r3, r3, #31
    b0f4:	d500      	bpl.n	b0f8 <_dtoa_r+0xd7c>
    b0f6:	e6ec      	b.n	aed2 <_dtoa_r+0xb56>
    b0f8:	003b      	movs	r3, r7
    b0fa:	001f      	movs	r7, r3
    b0fc:	3b01      	subs	r3, #1
    b0fe:	781a      	ldrb	r2, [r3, #0]
    b100:	2a30      	cmp	r2, #48	; 0x30
    b102:	d0fa      	beq.n	b0fa <_dtoa_r+0xd7e>
    b104:	e6f5      	b.n	aef2 <_dtoa_r+0xb76>
    b106:	9c03      	ldr	r4, [sp, #12]
    b108:	9703      	str	r7, [sp, #12]
    b10a:	e4d9      	b.n	aac0 <_dtoa_r+0x744>
    b10c:	2331      	movs	r3, #49	; 0x31
    b10e:	9a03      	ldr	r2, [sp, #12]
    b110:	7013      	strb	r3, [r2, #0]
    b112:	9b06      	ldr	r3, [sp, #24]
    b114:	3301      	adds	r3, #1
    b116:	9306      	str	r3, [sp, #24]
    b118:	e6eb      	b.n	aef2 <_dtoa_r+0xb76>
    b11a:	4640      	mov	r0, r8
    b11c:	f005 fc7a 	bl	10a14 <____aeabi_i2d_from_thumb>
    b120:	0022      	movs	r2, r4
    b122:	002b      	movs	r3, r5
    b124:	f005 fc60 	bl	109e8 <____aeabi_dmul_from_thumb>
    b128:	4b90      	ldr	r3, [pc, #576]	; (b36c <_dtoa_r+0xff0>)
    b12a:	2200      	movs	r2, #0
    b12c:	f005 fc9a 	bl	10a64 <____aeabi_dadd_from_thumb>
    b130:	4b8f      	ldr	r3, [pc, #572]	; (b370 <_dtoa_r+0xff4>)
    b132:	0006      	movs	r6, r0
    b134:	18cf      	adds	r7, r1, r3
    b136:	f7ff fa8a 	bl	a64e <_dtoa_r+0x2d2>
    b13a:	9b12      	ldr	r3, [sp, #72]	; 0x48
    b13c:	3301      	adds	r3, #1
    b13e:	9312      	str	r3, [sp, #72]	; 0x48
    b140:	4688      	mov	r8, r1
    b142:	2331      	movs	r3, #49	; 0x31
    b144:	9003      	str	r0, [sp, #12]
    b146:	e431      	b.n	a9ac <_dtoa_r+0x630>
    b148:	2336      	movs	r3, #54	; 0x36
    b14a:	9a18      	ldr	r2, [sp, #96]	; 0x60
    b14c:	1a9b      	subs	r3, r3, r2
    b14e:	9a07      	ldr	r2, [sp, #28]
    b150:	4694      	mov	ip, r2
    b152:	449c      	add	ip, r3
    b154:	4662      	mov	r2, ip
    b156:	9207      	str	r2, [sp, #28]
    b158:	9a0b      	ldr	r2, [sp, #44]	; 0x2c
    b15a:	4694      	mov	ip, r2
    b15c:	449c      	add	ip, r3
    b15e:	4663      	mov	r3, ip
    b160:	0014      	movs	r4, r2
    b162:	9d0d      	ldr	r5, [sp, #52]	; 0x34
    b164:	930b      	str	r3, [sp, #44]	; 0x2c
    b166:	f7ff fabb 	bl	a6e0 <_dtoa_r+0x364>
    b16a:	9b04      	ldr	r3, [sp, #16]
    b16c:	46b0      	mov	r8, r6
    b16e:	4656      	mov	r6, sl
    b170:	46aa      	mov	sl, r5
    b172:	464d      	mov	r5, r9
    b174:	46b9      	mov	r9, r7
    b176:	2b00      	cmp	r3, #0
    b178:	dd11      	ble.n	b19e <_dtoa_r+0xe22>
    b17a:	4651      	mov	r1, sl
    b17c:	2201      	movs	r2, #1
    b17e:	4658      	mov	r0, fp
    b180:	f001 fc3c 	bl	c9fc <__lshift>
    b184:	0031      	movs	r1, r6
    b186:	4682      	mov	sl, r0
    b188:	f001 fcb8 	bl	cafc <__mcmp>
    b18c:	2800      	cmp	r0, #0
    b18e:	dc00      	bgt.n	b192 <_dtoa_r+0xe16>
    b190:	e0a2      	b.n	b2d8 <_dtoa_r+0xf5c>
    b192:	9b07      	ldr	r3, [sp, #28]
    b194:	2b39      	cmp	r3, #57	; 0x39
    b196:	d06c      	beq.n	b272 <_dtoa_r+0xef6>
    b198:	9b0b      	ldr	r3, [sp, #44]	; 0x2c
    b19a:	3331      	adds	r3, #49	; 0x31
    b19c:	9307      	str	r3, [sp, #28]
    b19e:	9b07      	ldr	r3, [sp, #28]
    b1a0:	702b      	strb	r3, [r5, #0]
    b1a2:	1c6f      	adds	r7, r5, #1
    b1a4:	9b06      	ldr	r3, [sp, #24]
    b1a6:	3301      	adds	r3, #1
    b1a8:	4644      	mov	r4, r8
    b1aa:	9306      	str	r3, [sp, #24]
    b1ac:	46c8      	mov	r8, r9
    b1ae:	e6a0      	b.n	aef2 <_dtoa_r+0xb76>
    b1b0:	9b14      	ldr	r3, [sp, #80]	; 0x50
    b1b2:	469a      	mov	sl, r3
    b1b4:	9b12      	ldr	r3, [sp, #72]	; 0x48
    b1b6:	e793      	b.n	b0e0 <_dtoa_r+0xd64>
    b1b8:	4641      	mov	r1, r8
    b1ba:	9803      	ldr	r0, [sp, #12]
    b1bc:	f7ff fbec 	bl	a998 <_dtoa_r+0x61c>
    b1c0:	4643      	mov	r3, r8
    b1c2:	4658      	mov	r0, fp
    b1c4:	6859      	ldr	r1, [r3, #4]
    b1c6:	f001 f977 	bl	c4b8 <_Balloc>
    b1ca:	1e04      	subs	r4, r0, #0
    b1cc:	d100      	bne.n	b1d0 <_dtoa_r+0xe54>
    b1ce:	e0b5      	b.n	b33c <_dtoa_r+0xfc0>
    b1d0:	4643      	mov	r3, r8
    b1d2:	4641      	mov	r1, r8
    b1d4:	691b      	ldr	r3, [r3, #16]
    b1d6:	1c9a      	adds	r2, r3, #2
    b1d8:	0092      	lsls	r2, r2, #2
    b1da:	310c      	adds	r1, #12
    b1dc:	300c      	adds	r0, #12
    b1de:	f001 f903 	bl	c3e8 <memcpy>
    b1e2:	2201      	movs	r2, #1
    b1e4:	0021      	movs	r1, r4
    b1e6:	4658      	mov	r0, fp
    b1e8:	f001 fc08 	bl	c9fc <__lshift>
    b1ec:	4681      	mov	r9, r0
    b1ee:	e4ae      	b.n	ab4e <_dtoa_r+0x7d2>
    b1f0:	9b17      	ldr	r3, [sp, #92]	; 0x5c
    b1f2:	4699      	mov	r9, r3
    b1f4:	9b14      	ldr	r3, [sp, #80]	; 0x50
    b1f6:	469a      	mov	sl, r3
    b1f8:	f7ff fa45 	bl	a686 <_dtoa_r+0x30a>
    b1fc:	9b07      	ldr	r3, [sp, #28]
    b1fe:	46d0      	mov	r8, sl
    b200:	46da      	mov	sl, fp
    b202:	469b      	mov	fp, r3
    b204:	0002      	movs	r2, r0
    b206:	000b      	movs	r3, r1
    b208:	f005 fc2c 	bl	10a64 <____aeabi_dadd_from_thumb>
    b20c:	0032      	movs	r2, r6
    b20e:	003b      	movs	r3, r7
    b210:	0004      	movs	r4, r0
    b212:	000d      	movs	r5, r1
    b214:	f005 fc32 	bl	10a7c <____aeabi_dcmpgt_from_thumb>
    b218:	2800      	cmp	r0, #0
    b21a:	d10c      	bne.n	b236 <_dtoa_r+0xeba>
    b21c:	0032      	movs	r2, r6
    b21e:	003b      	movs	r3, r7
    b220:	0020      	movs	r0, r4
    b222:	0029      	movs	r1, r5
    b224:	f005 fbdc 	bl	109e0 <____aeabi_dcmpeq_from_thumb>
    b228:	2800      	cmp	r0, #0
    b22a:	d100      	bne.n	b22e <_dtoa_r+0xeb2>
    b22c:	e757      	b.n	b0de <_dtoa_r+0xd62>
    b22e:	464b      	mov	r3, r9
    b230:	07db      	lsls	r3, r3, #31
    b232:	d400      	bmi.n	b236 <_dtoa_r+0xeba>
    b234:	e753      	b.n	b0de <_dtoa_r+0xd62>
    b236:	9b06      	ldr	r3, [sp, #24]
    b238:	4641      	mov	r1, r8
    b23a:	9312      	str	r3, [sp, #72]	; 0x48
    b23c:	9803      	ldr	r0, [sp, #12]
    b23e:	f7ff fbab 	bl	a998 <_dtoa_r+0x61c>
    b242:	9b07      	ldr	r3, [sp, #28]
    b244:	46b0      	mov	r8, r6
    b246:	4656      	mov	r6, sl
    b248:	46aa      	mov	sl, r5
    b24a:	464d      	mov	r5, r9
    b24c:	46b9      	mov	r9, r7
    b24e:	2b39      	cmp	r3, #57	; 0x39
    b250:	d00f      	beq.n	b272 <_dtoa_r+0xef6>
    b252:	9807      	ldr	r0, [sp, #28]
    b254:	3001      	adds	r0, #1
    b256:	7028      	strb	r0, [r5, #0]
    b258:	1c6f      	adds	r7, r5, #1
    b25a:	e7a3      	b.n	b1a4 <_dtoa_r+0xe28>
    b25c:	46b0      	mov	r8, r6
    b25e:	46b9      	mov	r9, r7
    b260:	9b06      	ldr	r3, [sp, #24]
    b262:	3301      	adds	r3, #1
    b264:	0027      	movs	r7, r4
    b266:	4656      	mov	r6, sl
    b268:	4644      	mov	r4, r8
    b26a:	46aa      	mov	sl, r5
    b26c:	46c8      	mov	r8, r9
    b26e:	9306      	str	r3, [sp, #24]
    b270:	e623      	b.n	aeba <_dtoa_r+0xb3e>
    b272:	2339      	movs	r3, #57	; 0x39
    b274:	702b      	strb	r3, [r5, #0]
    b276:	9b06      	ldr	r3, [sp, #24]
    b278:	3301      	adds	r3, #1
    b27a:	4644      	mov	r4, r8
    b27c:	2239      	movs	r2, #57	; 0x39
    b27e:	46c8      	mov	r8, r9
    b280:	9306      	str	r3, [sp, #24]
    b282:	1c6f      	adds	r7, r5, #1
    b284:	e627      	b.n	aed6 <_dtoa_r+0xb5a>
    b286:	9b07      	ldr	r3, [sp, #28]
    b288:	46b0      	mov	r8, r6
    b28a:	4656      	mov	r6, sl
    b28c:	46aa      	mov	sl, r5
    b28e:	464d      	mov	r5, r9
    b290:	46b9      	mov	r9, r7
    b292:	2b39      	cmp	r3, #57	; 0x39
    b294:	d0ed      	beq.n	b272 <_dtoa_r+0xef6>
    b296:	2c00      	cmp	r4, #0
    b298:	dd00      	ble.n	b29c <_dtoa_r+0xf20>
    b29a:	e77d      	b.n	b198 <_dtoa_r+0xe1c>
    b29c:	e77f      	b.n	b19e <_dtoa_r+0xe22>
    b29e:	9b16      	ldr	r3, [sp, #88]	; 0x58
    b2a0:	930a      	str	r3, [sp, #40]	; 0x28
    b2a2:	e5e4      	b.n	ae6e <_dtoa_r+0xaf2>
    b2a4:	2300      	movs	r3, #0
    b2a6:	4641      	mov	r1, r8
    b2a8:	220a      	movs	r2, #10
    b2aa:	4658      	mov	r0, fp
    b2ac:	f001 f938 	bl	c520 <__multadd>
    b2b0:	9b16      	ldr	r3, [sp, #88]	; 0x58
    b2b2:	4680      	mov	r8, r0
    b2b4:	2b00      	cmp	r3, #0
    b2b6:	dc0b      	bgt.n	b2d0 <_dtoa_r+0xf54>
    b2b8:	9a24      	ldr	r2, [sp, #144]	; 0x90
    b2ba:	2301      	movs	r3, #1
    b2bc:	2a02      	cmp	r2, #2
    b2be:	dc00      	bgt.n	b2c2 <_dtoa_r+0xf46>
    b2c0:	2300      	movs	r3, #0
    b2c2:	9a16      	ldr	r2, [sp, #88]	; 0x58
    b2c4:	9706      	str	r7, [sp, #24]
    b2c6:	920a      	str	r2, [sp, #40]	; 0x28
    b2c8:	061b      	lsls	r3, r3, #24
    b2ca:	d001      	beq.n	b2d0 <_dtoa_r+0xf54>
    b2cc:	f7ff fbe4 	bl	aa98 <_dtoa_r+0x71c>
    b2d0:	9b16      	ldr	r3, [sp, #88]	; 0x58
    b2d2:	9706      	str	r7, [sp, #24]
    b2d4:	930a      	str	r3, [sp, #40]	; 0x28
    b2d6:	e42e      	b.n	ab36 <_dtoa_r+0x7ba>
    b2d8:	2800      	cmp	r0, #0
    b2da:	d000      	beq.n	b2de <_dtoa_r+0xf62>
    b2dc:	e75f      	b.n	b19e <_dtoa_r+0xe22>
    b2de:	9b07      	ldr	r3, [sp, #28]
    b2e0:	07db      	lsls	r3, r3, #31
    b2e2:	d500      	bpl.n	b2e6 <_dtoa_r+0xf6a>
    b2e4:	e755      	b.n	b192 <_dtoa_r+0xe16>
    b2e6:	e75a      	b.n	b19e <_dtoa_r+0xe22>
    b2e8:	2302      	movs	r3, #2
    b2ea:	9c12      	ldr	r4, [sp, #72]	; 0x48
    b2ec:	9d13      	ldr	r5, [sp, #76]	; 0x4c
    b2ee:	4698      	mov	r8, r3
    b2f0:	f7ff f98c 	bl	a60c <_dtoa_r+0x290>
    b2f4:	465b      	mov	r3, fp
    b2f6:	9a0c      	ldr	r2, [sp, #48]	; 0x30
    b2f8:	2100      	movs	r1, #0
    b2fa:	4658      	mov	r0, fp
    b2fc:	645a      	str	r2, [r3, #68]	; 0x44
    b2fe:	f001 f8db 	bl	c4b8 <_Balloc>
    b302:	9003      	str	r0, [sp, #12]
    b304:	2800      	cmp	r0, #0
    b306:	d01f      	beq.n	b348 <_dtoa_r+0xfcc>
    b308:	465b      	mov	r3, fp
    b30a:	210e      	movs	r1, #14
    b30c:	9a03      	ldr	r2, [sp, #12]
    b30e:	9806      	ldr	r0, [sp, #24]
    b310:	9c0c      	ldr	r4, [sp, #48]	; 0x30
    b312:	641a      	str	r2, [r3, #64]	; 0x40
    b314:	0fc3      	lsrs	r3, r0, #31
    b316:	4281      	cmp	r1, r0
    b318:	4163      	adcs	r3, r4
    b31a:	061b      	lsls	r3, r3, #24
    b31c:	9a19      	ldr	r2, [sp, #100]	; 0x64
    b31e:	0e1b      	lsrs	r3, r3, #24
    b320:	d002      	beq.n	b328 <_dtoa_r+0xfac>
    b322:	2a00      	cmp	r2, #0
    b324:	db00      	blt.n	b328 <_dtoa_r+0xfac>
    b326:	e672      	b.n	b00e <_dtoa_r+0xc92>
    b328:	2100      	movs	r1, #0
    b32a:	2301      	movs	r3, #1
    b32c:	9125      	str	r1, [sp, #148]	; 0x94
    b32e:	425b      	negs	r3, r3
    b330:	3101      	adds	r1, #1
    b332:	930a      	str	r3, [sp, #40]	; 0x28
    b334:	910c      	str	r1, [sp, #48]	; 0x30
    b336:	9316      	str	r3, [sp, #88]	; 0x58
    b338:	f7ff f9b5 	bl	a6a6 <_dtoa_r+0x32a>
    b33c:	2200      	movs	r2, #0
    b33e:	4b0d      	ldr	r3, [pc, #52]	; (b374 <_dtoa_r+0xff8>)
    b340:	490d      	ldr	r1, [pc, #52]	; (b378 <_dtoa_r+0xffc>)
    b342:	480e      	ldr	r0, [pc, #56]	; (b37c <_dtoa_r+0x1000>)
    b344:	f002 ff56 	bl	e1f4 <__assert_func>
    b348:	21d5      	movs	r1, #213	; 0xd5
    b34a:	2200      	movs	r2, #0
    b34c:	4b09      	ldr	r3, [pc, #36]	; (b374 <_dtoa_r+0xff8>)
    b34e:	480b      	ldr	r0, [pc, #44]	; (b37c <_dtoa_r+0x1000>)
    b350:	0049      	lsls	r1, r1, #1
    b352:	f002 ff4f 	bl	e1f4 <__assert_func>
    b356:	9c03      	ldr	r4, [sp, #12]
    b358:	9703      	str	r7, [sp, #12]
    b35a:	f7ff fbad 	bl	aab8 <_dtoa_r+0x73c>
    b35e:	46c0      	nop			; (mov r8, r8)
    b360:	00000433 	.word	0x00000433
    b364:	00010df0 	.word	0x00010df0
    b368:	40240000 	.word	0x40240000
    b36c:	401c0000 	.word	0x401c0000
    b370:	fcc00000 	.word	0xfcc00000
    b374:	00010cb4 	.word	0x00010cb4
    b378:	000002ea 	.word	0x000002ea
    b37c:	00010cc8 	.word	0x00010cc8
    b380:	2b04      	cmp	r3, #4
    b382:	d101      	bne.n	b388 <_dtoa_r+0x100c>
    b384:	f7ff fb68 	bl	aa58 <_dtoa_r+0x6dc>
    b388:	233c      	movs	r3, #60	; 0x3c
    b38a:	1a9b      	subs	r3, r3, r2
    b38c:	f7ff fbc3 	bl	ab16 <_dtoa_r+0x79a>
    b390:	2100      	movs	r1, #0
    b392:	f7ff f8ee 	bl	a572 <_dtoa_r+0x1f6>
    b396:	46c0      	nop			; (mov r8, r8)

0000b398 <__sflush_r>:
    b398:	b5f0      	push	{r4, r5, r6, r7, lr}
    b39a:	46c6      	mov	lr, r8
    b39c:	b500      	push	{lr}
    b39e:	000c      	movs	r4, r1
    b3a0:	230c      	movs	r3, #12
    b3a2:	5ec9      	ldrsh	r1, [r1, r3]
    b3a4:	040a      	lsls	r2, r1, #16
    b3a6:	4680      	mov	r8, r0
    b3a8:	0c13      	lsrs	r3, r2, #16
    b3aa:	0312      	lsls	r2, r2, #12
    b3ac:	d439      	bmi.n	b422 <__sflush_r+0x8a>
    b3ae:	2380      	movs	r3, #128	; 0x80
    b3b0:	6862      	ldr	r2, [r4, #4]
    b3b2:	011b      	lsls	r3, r3, #4
    b3b4:	430b      	orrs	r3, r1
    b3b6:	81a3      	strh	r3, [r4, #12]
    b3b8:	2a00      	cmp	r2, #0
    b3ba:	dc00      	bgt.n	b3be <__sflush_r+0x26>
    b3bc:	e074      	b.n	b4a8 <__sflush_r+0x110>
    b3be:	6aa5      	ldr	r5, [r4, #40]	; 0x28
    b3c0:	2d00      	cmp	r5, #0
    b3c2:	d06b      	beq.n	b49c <__sflush_r+0x104>
    b3c4:	4642      	mov	r2, r8
    b3c6:	4641      	mov	r1, r8
    b3c8:	6816      	ldr	r6, [r2, #0]
    b3ca:	2200      	movs	r2, #0
    b3cc:	041b      	lsls	r3, r3, #16
    b3ce:	600a      	str	r2, [r1, #0]
    b3d0:	0c1a      	lsrs	r2, r3, #16
    b3d2:	00db      	lsls	r3, r3, #3
    b3d4:	d500      	bpl.n	b3d8 <__sflush_r+0x40>
    b3d6:	e06c      	b.n	b4b2 <__sflush_r+0x11a>
    b3d8:	2301      	movs	r3, #1
    b3da:	2200      	movs	r2, #0
    b3dc:	4640      	mov	r0, r8
    b3de:	69e1      	ldr	r1, [r4, #28]
    b3e0:	f000 f88e 	bl	b500 <__sflush_r+0x168>
    b3e4:	1c43      	adds	r3, r0, #1
    b3e6:	d100      	bne.n	b3ea <__sflush_r+0x52>
    b3e8:	e078      	b.n	b4dc <__sflush_r+0x144>
    b3ea:	89a2      	ldrh	r2, [r4, #12]
    b3ec:	6aa5      	ldr	r5, [r4, #40]	; 0x28
    b3ee:	0753      	lsls	r3, r2, #29
    b3f0:	d506      	bpl.n	b400 <__sflush_r+0x68>
    b3f2:	6863      	ldr	r3, [r4, #4]
    b3f4:	1ac0      	subs	r0, r0, r3
    b3f6:	6b23      	ldr	r3, [r4, #48]	; 0x30
    b3f8:	2b00      	cmp	r3, #0
    b3fa:	d001      	beq.n	b400 <__sflush_r+0x68>
    b3fc:	6be3      	ldr	r3, [r4, #60]	; 0x3c
    b3fe:	1ac0      	subs	r0, r0, r3
    b400:	2300      	movs	r3, #0
    b402:	0002      	movs	r2, r0
    b404:	69e1      	ldr	r1, [r4, #28]
    b406:	4640      	mov	r0, r8
    b408:	f000 f87a 	bl	b500 <__sflush_r+0x168>
    b40c:	1c43      	adds	r3, r0, #1
    b40e:	d12a      	bne.n	b466 <__sflush_r+0xce>
    b410:	4643      	mov	r3, r8
    b412:	6819      	ldr	r1, [r3, #0]
    b414:	291d      	cmp	r1, #29
    b416:	d94e      	bls.n	b4b6 <__sflush_r+0x11e>
    b418:	2240      	movs	r2, #64	; 0x40
    b41a:	89a3      	ldrh	r3, [r4, #12]
    b41c:	4313      	orrs	r3, r2
    b41e:	81a3      	strh	r3, [r4, #12]
    b420:	e03d      	b.n	b49e <__sflush_r+0x106>
    b422:	6926      	ldr	r6, [r4, #16]
    b424:	2e00      	cmp	r6, #0
    b426:	d039      	beq.n	b49c <__sflush_r+0x104>
    b428:	6822      	ldr	r2, [r4, #0]
    b42a:	6026      	str	r6, [r4, #0]
    b42c:	1b95      	subs	r5, r2, r6
    b42e:	2200      	movs	r2, #0
    b430:	079b      	lsls	r3, r3, #30
    b432:	d100      	bne.n	b436 <__sflush_r+0x9e>
    b434:	6962      	ldr	r2, [r4, #20]
    b436:	60a2      	str	r2, [r4, #8]
    b438:	2d00      	cmp	r5, #0
    b43a:	dc04      	bgt.n	b446 <__sflush_r+0xae>
    b43c:	e02e      	b.n	b49c <__sflush_r+0x104>
    b43e:	1836      	adds	r6, r6, r0
    b440:	1a2d      	subs	r5, r5, r0
    b442:	2d00      	cmp	r5, #0
    b444:	dd2a      	ble.n	b49c <__sflush_r+0x104>
    b446:	002b      	movs	r3, r5
    b448:	0032      	movs	r2, r6
    b44a:	4640      	mov	r0, r8
    b44c:	69e1      	ldr	r1, [r4, #28]
    b44e:	6a67      	ldr	r7, [r4, #36]	; 0x24
    b450:	f000 f857 	bl	b502 <__sflush_r+0x16a>
    b454:	2800      	cmp	r0, #0
    b456:	dcf2      	bgt.n	b43e <__sflush_r+0xa6>
    b458:	2240      	movs	r2, #64	; 0x40
    b45a:	2001      	movs	r0, #1
    b45c:	89a3      	ldrh	r3, [r4, #12]
    b45e:	4313      	orrs	r3, r2
    b460:	81a3      	strh	r3, [r4, #12]
    b462:	4240      	negs	r0, r0
    b464:	e01b      	b.n	b49e <__sflush_r+0x106>
    b466:	89a3      	ldrh	r3, [r4, #12]
    b468:	4a23      	ldr	r2, [pc, #140]	; (b4f8 <__sflush_r+0x160>)
    b46a:	4013      	ands	r3, r2
    b46c:	2200      	movs	r2, #0
    b46e:	041b      	lsls	r3, r3, #16
    b470:	6062      	str	r2, [r4, #4]
    b472:	6922      	ldr	r2, [r4, #16]
    b474:	141b      	asrs	r3, r3, #16
    b476:	81a3      	strh	r3, [r4, #12]
    b478:	6022      	str	r2, [r4, #0]
    b47a:	04db      	lsls	r3, r3, #19
    b47c:	d500      	bpl.n	b480 <__sflush_r+0xe8>
    b47e:	6520      	str	r0, [r4, #80]	; 0x50
    b480:	4643      	mov	r3, r8
    b482:	6b21      	ldr	r1, [r4, #48]	; 0x30
    b484:	601e      	str	r6, [r3, #0]
    b486:	2900      	cmp	r1, #0
    b488:	d008      	beq.n	b49c <__sflush_r+0x104>
    b48a:	0023      	movs	r3, r4
    b48c:	3340      	adds	r3, #64	; 0x40
    b48e:	4299      	cmp	r1, r3
    b490:	d002      	beq.n	b498 <__sflush_r+0x100>
    b492:	4640      	mov	r0, r8
    b494:	f000 fab2 	bl	b9fc <_free_r>
    b498:	2300      	movs	r3, #0
    b49a:	6323      	str	r3, [r4, #48]	; 0x30
    b49c:	2000      	movs	r0, #0
    b49e:	bc80      	pop	{r7}
    b4a0:	46b8      	mov	r8, r7
    b4a2:	bcf0      	pop	{r4, r5, r6, r7}
    b4a4:	bc02      	pop	{r1}
    b4a6:	4708      	bx	r1
    b4a8:	6be2      	ldr	r2, [r4, #60]	; 0x3c
    b4aa:	2a00      	cmp	r2, #0
    b4ac:	dd00      	ble.n	b4b0 <__sflush_r+0x118>
    b4ae:	e786      	b.n	b3be <__sflush_r+0x26>
    b4b0:	e7f4      	b.n	b49c <__sflush_r+0x104>
    b4b2:	6d20      	ldr	r0, [r4, #80]	; 0x50
    b4b4:	e79b      	b.n	b3ee <__sflush_r+0x56>
    b4b6:	4b11      	ldr	r3, [pc, #68]	; (b4fc <__sflush_r+0x164>)
    b4b8:	2201      	movs	r2, #1
    b4ba:	40cb      	lsrs	r3, r1
    b4bc:	439a      	bics	r2, r3
    b4be:	d1ab      	bne.n	b418 <__sflush_r+0x80>
    b4c0:	89a3      	ldrh	r3, [r4, #12]
    b4c2:	4d0d      	ldr	r5, [pc, #52]	; (b4f8 <__sflush_r+0x160>)
    b4c4:	402b      	ands	r3, r5
    b4c6:	6062      	str	r2, [r4, #4]
    b4c8:	041b      	lsls	r3, r3, #16
    b4ca:	6922      	ldr	r2, [r4, #16]
    b4cc:	141b      	asrs	r3, r3, #16
    b4ce:	81a3      	strh	r3, [r4, #12]
    b4d0:	6022      	str	r2, [r4, #0]
    b4d2:	04db      	lsls	r3, r3, #19
    b4d4:	d5d4      	bpl.n	b480 <__sflush_r+0xe8>
    b4d6:	2900      	cmp	r1, #0
    b4d8:	d1d2      	bne.n	b480 <__sflush_r+0xe8>
    b4da:	e7d0      	b.n	b47e <__sflush_r+0xe6>
    b4dc:	4643      	mov	r3, r8
    b4de:	681b      	ldr	r3, [r3, #0]
    b4e0:	2b00      	cmp	r3, #0
    b4e2:	d100      	bne.n	b4e6 <__sflush_r+0x14e>
    b4e4:	e781      	b.n	b3ea <__sflush_r+0x52>
    b4e6:	2b1d      	cmp	r3, #29
    b4e8:	d002      	beq.n	b4f0 <__sflush_r+0x158>
    b4ea:	2b16      	cmp	r3, #22
    b4ec:	d000      	beq.n	b4f0 <__sflush_r+0x158>
    b4ee:	e793      	b.n	b418 <__sflush_r+0x80>
    b4f0:	4643      	mov	r3, r8
    b4f2:	2000      	movs	r0, #0
    b4f4:	601e      	str	r6, [r3, #0]
    b4f6:	e7d2      	b.n	b49e <__sflush_r+0x106>
    b4f8:	fffff7ff 	.word	0xfffff7ff
    b4fc:	20400001 	.word	0x20400001
    b500:	4728      	bx	r5
    b502:	4738      	bx	r7

0000b504 <_fflush_r>:
    b504:	b570      	push	{r4, r5, r6, lr}
    b506:	0005      	movs	r5, r0
    b508:	000c      	movs	r4, r1
    b50a:	2800      	cmp	r0, #0
    b50c:	d002      	beq.n	b514 <_fflush_r+0x10>
    b50e:	6b83      	ldr	r3, [r0, #56]	; 0x38
    b510:	2b00      	cmp	r3, #0
    b512:	d017      	beq.n	b544 <_fflush_r+0x40>
    b514:	220c      	movs	r2, #12
    b516:	5ea3      	ldrsh	r3, [r4, r2]
    b518:	2b00      	cmp	r3, #0
    b51a:	d019      	beq.n	b550 <_fflush_r+0x4c>
    b51c:	6e62      	ldr	r2, [r4, #100]	; 0x64
    b51e:	07d2      	lsls	r2, r2, #31
    b520:	d401      	bmi.n	b526 <_fflush_r+0x22>
    b522:	059b      	lsls	r3, r3, #22
    b524:	d516      	bpl.n	b554 <_fflush_r+0x50>
    b526:	0028      	movs	r0, r5
    b528:	0021      	movs	r1, r4
    b52a:	f7ff ff35 	bl	b398 <__sflush_r>
    b52e:	6e63      	ldr	r3, [r4, #100]	; 0x64
    b530:	0005      	movs	r5, r0
    b532:	07db      	lsls	r3, r3, #31
    b534:	d402      	bmi.n	b53c <_fflush_r+0x38>
    b536:	89a3      	ldrh	r3, [r4, #12]
    b538:	059b      	lsls	r3, r3, #22
    b53a:	d517      	bpl.n	b56c <_fflush_r+0x68>
    b53c:	0028      	movs	r0, r5
    b53e:	bc70      	pop	{r4, r5, r6}
    b540:	bc02      	pop	{r1}
    b542:	4708      	bx	r1
    b544:	f000 f8a6 	bl	b694 <__sinit>
    b548:	220c      	movs	r2, #12
    b54a:	5ea3      	ldrsh	r3, [r4, r2]
    b54c:	2b00      	cmp	r3, #0
    b54e:	d1e5      	bne.n	b51c <_fflush_r+0x18>
    b550:	2500      	movs	r5, #0
    b552:	e7f3      	b.n	b53c <_fflush_r+0x38>
    b554:	6da0      	ldr	r0, [r4, #88]	; 0x58
    b556:	f000 fb95 	bl	bc84 <__retarget_lock_acquire_recursive>
    b55a:	0028      	movs	r0, r5
    b55c:	0021      	movs	r1, r4
    b55e:	f7ff ff1b 	bl	b398 <__sflush_r>
    b562:	6e63      	ldr	r3, [r4, #100]	; 0x64
    b564:	0005      	movs	r5, r0
    b566:	07db      	lsls	r3, r3, #31
    b568:	d4e8      	bmi.n	b53c <_fflush_r+0x38>
    b56a:	e7e4      	b.n	b536 <_fflush_r+0x32>
    b56c:	6da0      	ldr	r0, [r4, #88]	; 0x58
    b56e:	f000 fb91 	bl	bc94 <__retarget_lock_release_recursive>
    b572:	e7e3      	b.n	b53c <_fflush_r+0x38>

0000b574 <fflush>:
    b574:	b570      	push	{r4, r5, r6, lr}
    b576:	1e04      	subs	r4, r0, #0
    b578:	d02c      	beq.n	b5d4 <fflush+0x60>
    b57a:	4b1a      	ldr	r3, [pc, #104]	; (b5e4 <fflush+0x70>)
    b57c:	681d      	ldr	r5, [r3, #0]
    b57e:	2d00      	cmp	r5, #0
    b580:	d002      	beq.n	b588 <fflush+0x14>
    b582:	6bab      	ldr	r3, [r5, #56]	; 0x38
    b584:	2b00      	cmp	r3, #0
    b586:	d019      	beq.n	b5bc <fflush+0x48>
    b588:	220c      	movs	r2, #12
    b58a:	5ea3      	ldrsh	r3, [r4, r2]
    b58c:	2b00      	cmp	r3, #0
    b58e:	d013      	beq.n	b5b8 <fflush+0x44>
    b590:	6e62      	ldr	r2, [r4, #100]	; 0x64
    b592:	07d2      	lsls	r2, r2, #31
    b594:	d401      	bmi.n	b59a <fflush+0x26>
    b596:	059b      	lsls	r3, r3, #22
    b598:	d514      	bpl.n	b5c4 <fflush+0x50>
    b59a:	0028      	movs	r0, r5
    b59c:	0021      	movs	r1, r4
    b59e:	f7ff fefb 	bl	b398 <__sflush_r>
    b5a2:	6e63      	ldr	r3, [r4, #100]	; 0x64
    b5a4:	0005      	movs	r5, r0
    b5a6:	07db      	lsls	r3, r3, #31
    b5a8:	d402      	bmi.n	b5b0 <fflush+0x3c>
    b5aa:	89a3      	ldrh	r3, [r4, #12]
    b5ac:	059b      	lsls	r3, r3, #22
    b5ae:	d50d      	bpl.n	b5cc <fflush+0x58>
    b5b0:	0028      	movs	r0, r5
    b5b2:	bc70      	pop	{r4, r5, r6}
    b5b4:	bc02      	pop	{r1}
    b5b6:	4708      	bx	r1
    b5b8:	2500      	movs	r5, #0
    b5ba:	e7f9      	b.n	b5b0 <fflush+0x3c>
    b5bc:	0028      	movs	r0, r5
    b5be:	f000 f869 	bl	b694 <__sinit>
    b5c2:	e7e1      	b.n	b588 <fflush+0x14>
    b5c4:	6da0      	ldr	r0, [r4, #88]	; 0x58
    b5c6:	f000 fb5d 	bl	bc84 <__retarget_lock_acquire_recursive>
    b5ca:	e7e6      	b.n	b59a <fflush+0x26>
    b5cc:	6da0      	ldr	r0, [r4, #88]	; 0x58
    b5ce:	f000 fb61 	bl	bc94 <__retarget_lock_release_recursive>
    b5d2:	e7ed      	b.n	b5b0 <fflush+0x3c>
    b5d4:	4b04      	ldr	r3, [pc, #16]	; (b5e8 <fflush+0x74>)
    b5d6:	4905      	ldr	r1, [pc, #20]	; (b5ec <fflush+0x78>)
    b5d8:	6818      	ldr	r0, [r3, #0]
    b5da:	f000 fb17 	bl	bc0c <_fwalk_reent>
    b5de:	0005      	movs	r5, r0
    b5e0:	e7e6      	b.n	b5b0 <fflush+0x3c>
    b5e2:	46c0      	nop			; (mov r8, r8)
    b5e4:	0002120c 	.word	0x0002120c
    b5e8:	00010ad0 	.word	0x00010ad0
    b5ec:	0000b505 	.word	0x0000b505

0000b5f0 <_cleanup_r>:
    b5f0:	b510      	push	{r4, lr}
    b5f2:	4903      	ldr	r1, [pc, #12]	; (b600 <_cleanup_r+0x10>)
    b5f4:	f000 fb0a 	bl	bc0c <_fwalk_reent>
    b5f8:	bc10      	pop	{r4}
    b5fa:	bc01      	pop	{r0}
    b5fc:	4700      	bx	r0
    b5fe:	46c0      	nop			; (mov r8, r8)
    b600:	0000e325 	.word	0x0000e325

0000b604 <__fp_lock>:
    b604:	6e43      	ldr	r3, [r0, #100]	; 0x64
    b606:	b510      	push	{r4, lr}
    b608:	07db      	lsls	r3, r3, #31
    b60a:	d402      	bmi.n	b612 <__fp_lock+0xe>
    b60c:	8983      	ldrh	r3, [r0, #12]
    b60e:	059b      	lsls	r3, r3, #22
    b610:	d503      	bpl.n	b61a <__fp_lock+0x16>
    b612:	2000      	movs	r0, #0
    b614:	bc10      	pop	{r4}
    b616:	bc02      	pop	{r1}
    b618:	4708      	bx	r1
    b61a:	6d80      	ldr	r0, [r0, #88]	; 0x58
    b61c:	f000 fb32 	bl	bc84 <__retarget_lock_acquire_recursive>
    b620:	e7f7      	b.n	b612 <__fp_lock+0xe>
    b622:	46c0      	nop			; (mov r8, r8)

0000b624 <__fp_unlock>:
    b624:	6e43      	ldr	r3, [r0, #100]	; 0x64
    b626:	b510      	push	{r4, lr}
    b628:	07db      	lsls	r3, r3, #31
    b62a:	d402      	bmi.n	b632 <__fp_unlock+0xe>
    b62c:	8983      	ldrh	r3, [r0, #12]
    b62e:	059b      	lsls	r3, r3, #22
    b630:	d503      	bpl.n	b63a <__fp_unlock+0x16>
    b632:	2000      	movs	r0, #0
    b634:	bc10      	pop	{r4}
    b636:	bc02      	pop	{r1}
    b638:	4708      	bx	r1
    b63a:	6d80      	ldr	r0, [r0, #88]	; 0x58
    b63c:	f000 fb2a 	bl	bc94 <__retarget_lock_release_recursive>
    b640:	e7f7      	b.n	b632 <__fp_unlock+0xe>
    b642:	46c0      	nop			; (mov r8, r8)

0000b644 <__sfmoreglue>:
    b644:	b570      	push	{r4, r5, r6, lr}
    b646:	2568      	movs	r5, #104	; 0x68
    b648:	1e4a      	subs	r2, r1, #1
    b64a:	4355      	muls	r5, r2
    b64c:	000e      	movs	r6, r1
    b64e:	0029      	movs	r1, r5
    b650:	3174      	adds	r1, #116	; 0x74
    b652:	f000 fbc9 	bl	bde8 <_malloc_r>
    b656:	1e04      	subs	r4, r0, #0
    b658:	d009      	beq.n	b66e <__sfmoreglue+0x2a>
    b65a:	2300      	movs	r3, #0
    b65c:	002a      	movs	r2, r5
    b65e:	6003      	str	r3, [r0, #0]
    b660:	6046      	str	r6, [r0, #4]
    b662:	300c      	adds	r0, #12
    b664:	2100      	movs	r1, #0
    b666:	60a0      	str	r0, [r4, #8]
    b668:	3268      	adds	r2, #104	; 0x68
    b66a:	f7fc fddd 	bl	8228 <memset>
    b66e:	0020      	movs	r0, r4
    b670:	bc70      	pop	{r4, r5, r6}
    b672:	bc02      	pop	{r1}
    b674:	4708      	bx	r1
    b676:	46c0      	nop			; (mov r8, r8)

0000b678 <_cleanup>:
    b678:	b510      	push	{r4, lr}
    b67a:	4b04      	ldr	r3, [pc, #16]	; (b68c <_cleanup+0x14>)
    b67c:	6818      	ldr	r0, [r3, #0]
    b67e:	4904      	ldr	r1, [pc, #16]	; (b690 <_cleanup+0x18>)
    b680:	f000 fac4 	bl	bc0c <_fwalk_reent>
    b684:	bc10      	pop	{r4}
    b686:	bc01      	pop	{r0}
    b688:	4700      	bx	r0
    b68a:	46c0      	nop			; (mov r8, r8)
    b68c:	00010ad0 	.word	0x00010ad0
    b690:	0000e325 	.word	0x0000e325

0000b694 <__sinit>:
    b694:	b5f8      	push	{r3, r4, r5, r6, r7, lr}
    b696:	46de      	mov	lr, fp
    b698:	4657      	mov	r7, sl
    b69a:	464e      	mov	r6, r9
    b69c:	4645      	mov	r5, r8
    b69e:	b5e0      	push	{r5, r6, r7, lr}
    b6a0:	0006      	movs	r6, r0
    b6a2:	4f3d      	ldr	r7, [pc, #244]	; (b798 <__sinit+0x104>)
    b6a4:	0038      	movs	r0, r7
    b6a6:	f000 faed 	bl	bc84 <__retarget_lock_acquire_recursive>
    b6aa:	6bb4      	ldr	r4, [r6, #56]	; 0x38
    b6ac:	2c00      	cmp	r4, #0
    b6ae:	d168      	bne.n	b782 <__sinit+0xee>
    b6b0:	4b3a      	ldr	r3, [pc, #232]	; (b79c <__sinit+0x108>)
    b6b2:	63f3      	str	r3, [r6, #60]	; 0x3c
    b6b4:	23b8      	movs	r3, #184	; 0xb8
    b6b6:	2203      	movs	r2, #3
    b6b8:	009b      	lsls	r3, r3, #2
    b6ba:	50f4      	str	r4, [r6, r3]
    b6bc:	3304      	adds	r3, #4
    b6be:	6875      	ldr	r5, [r6, #4]
    b6c0:	50f2      	str	r2, [r6, r3]
    b6c2:	3308      	adds	r3, #8
    b6c4:	18f2      	adds	r2, r6, r3
    b6c6:	3b04      	subs	r3, #4
    b6c8:	50f2      	str	r2, [r6, r3]
    b6ca:	0028      	movs	r0, r5
    b6cc:	2304      	movs	r3, #4
    b6ce:	2208      	movs	r2, #8
    b6d0:	2100      	movs	r1, #0
    b6d2:	60eb      	str	r3, [r5, #12]
    b6d4:	666c      	str	r4, [r5, #100]	; 0x64
    b6d6:	602c      	str	r4, [r5, #0]
    b6d8:	606c      	str	r4, [r5, #4]
    b6da:	60ac      	str	r4, [r5, #8]
    b6dc:	612c      	str	r4, [r5, #16]
    b6de:	616c      	str	r4, [r5, #20]
    b6e0:	61ac      	str	r4, [r5, #24]
    b6e2:	305c      	adds	r0, #92	; 0x5c
    b6e4:	f7fc fda0 	bl	8228 <memset>
    b6e8:	0028      	movs	r0, r5
    b6ea:	4b2d      	ldr	r3, [pc, #180]	; (b7a0 <__sinit+0x10c>)
    b6ec:	469b      	mov	fp, r3
    b6ee:	622b      	str	r3, [r5, #32]
    b6f0:	4b2c      	ldr	r3, [pc, #176]	; (b7a4 <__sinit+0x110>)
    b6f2:	469a      	mov	sl, r3
    b6f4:	626b      	str	r3, [r5, #36]	; 0x24
    b6f6:	4b2c      	ldr	r3, [pc, #176]	; (b7a8 <__sinit+0x114>)
    b6f8:	4699      	mov	r9, r3
    b6fa:	62ab      	str	r3, [r5, #40]	; 0x28
    b6fc:	4b2b      	ldr	r3, [pc, #172]	; (b7ac <__sinit+0x118>)
    b6fe:	61ed      	str	r5, [r5, #28]
    b700:	62eb      	str	r3, [r5, #44]	; 0x2c
    b702:	3058      	adds	r0, #88	; 0x58
    b704:	4698      	mov	r8, r3
    b706:	f000 fab5 	bl	bc74 <__retarget_lock_init_recursive>
    b70a:	68b5      	ldr	r5, [r6, #8]
    b70c:	0028      	movs	r0, r5
    b70e:	4b28      	ldr	r3, [pc, #160]	; (b7b0 <__sinit+0x11c>)
    b710:	2208      	movs	r2, #8
    b712:	2100      	movs	r1, #0
    b714:	60eb      	str	r3, [r5, #12]
    b716:	666c      	str	r4, [r5, #100]	; 0x64
    b718:	602c      	str	r4, [r5, #0]
    b71a:	606c      	str	r4, [r5, #4]
    b71c:	60ac      	str	r4, [r5, #8]
    b71e:	612c      	str	r4, [r5, #16]
    b720:	616c      	str	r4, [r5, #20]
    b722:	61ac      	str	r4, [r5, #24]
    b724:	305c      	adds	r0, #92	; 0x5c
    b726:	f7fc fd7f 	bl	8228 <memset>
    b72a:	465b      	mov	r3, fp
    b72c:	622b      	str	r3, [r5, #32]
    b72e:	4653      	mov	r3, sl
    b730:	626b      	str	r3, [r5, #36]	; 0x24
    b732:	464b      	mov	r3, r9
    b734:	0028      	movs	r0, r5
    b736:	62ab      	str	r3, [r5, #40]	; 0x28
    b738:	4643      	mov	r3, r8
    b73a:	61ed      	str	r5, [r5, #28]
    b73c:	62eb      	str	r3, [r5, #44]	; 0x2c
    b73e:	3058      	adds	r0, #88	; 0x58
    b740:	f000 fa98 	bl	bc74 <__retarget_lock_init_recursive>
    b744:	68f5      	ldr	r5, [r6, #12]
    b746:	0028      	movs	r0, r5
    b748:	4b1a      	ldr	r3, [pc, #104]	; (b7b4 <__sinit+0x120>)
    b74a:	2208      	movs	r2, #8
    b74c:	2100      	movs	r1, #0
    b74e:	60eb      	str	r3, [r5, #12]
    b750:	666c      	str	r4, [r5, #100]	; 0x64
    b752:	602c      	str	r4, [r5, #0]
    b754:	606c      	str	r4, [r5, #4]
    b756:	60ac      	str	r4, [r5, #8]
    b758:	612c      	str	r4, [r5, #16]
    b75a:	616c      	str	r4, [r5, #20]
    b75c:	61ac      	str	r4, [r5, #24]
    b75e:	305c      	adds	r0, #92	; 0x5c
    b760:	f7fc fd62 	bl	8228 <memset>
    b764:	465b      	mov	r3, fp
    b766:	622b      	str	r3, [r5, #32]
    b768:	4653      	mov	r3, sl
    b76a:	626b      	str	r3, [r5, #36]	; 0x24
    b76c:	464b      	mov	r3, r9
    b76e:	0028      	movs	r0, r5
    b770:	62ab      	str	r3, [r5, #40]	; 0x28
    b772:	4643      	mov	r3, r8
    b774:	61ed      	str	r5, [r5, #28]
    b776:	62eb      	str	r3, [r5, #44]	; 0x2c
    b778:	3058      	adds	r0, #88	; 0x58
    b77a:	f000 fa7b 	bl	bc74 <__retarget_lock_init_recursive>
    b77e:	2301      	movs	r3, #1
    b780:	63b3      	str	r3, [r6, #56]	; 0x38
    b782:	0038      	movs	r0, r7
    b784:	f000 fa86 	bl	bc94 <__retarget_lock_release_recursive>
    b788:	bcf0      	pop	{r4, r5, r6, r7}
    b78a:	46bb      	mov	fp, r7
    b78c:	46b2      	mov	sl, r6
    b78e:	46a9      	mov	r9, r5
    b790:	46a0      	mov	r8, r4
    b792:	bcf8      	pop	{r3, r4, r5, r6, r7}
    b794:	bc01      	pop	{r0}
    b796:	4700      	bx	r0
    b798:	00021bf0 	.word	0x00021bf0
    b79c:	0000b5f1 	.word	0x0000b5f1
    b7a0:	0000d081 	.word	0x0000d081
    b7a4:	0000d0b1 	.word	0x0000d0b1
    b7a8:	0000d0f5 	.word	0x0000d0f5
    b7ac:	0000d125 	.word	0x0000d125
    b7b0:	00010009 	.word	0x00010009
    b7b4:	00020012 	.word	0x00020012

0000b7b8 <__sfp>:
    b7b8:	b5f8      	push	{r3, r4, r5, r6, r7, lr}
    b7ba:	4647      	mov	r7, r8
    b7bc:	46ce      	mov	lr, r9
    b7be:	b580      	push	{r7, lr}
    b7c0:	4f31      	ldr	r7, [pc, #196]	; (b888 <__sfp+0xd0>)
    b7c2:	4680      	mov	r8, r0
    b7c4:	0038      	movs	r0, r7
    b7c6:	f000 fa5d 	bl	bc84 <__retarget_lock_acquire_recursive>
    b7ca:	4b30      	ldr	r3, [pc, #192]	; (b88c <__sfp+0xd4>)
    b7cc:	681e      	ldr	r6, [r3, #0]
    b7ce:	6bb3      	ldr	r3, [r6, #56]	; 0x38
    b7d0:	2b00      	cmp	r3, #0
    b7d2:	d037      	beq.n	b844 <__sfp+0x8c>
    b7d4:	23b8      	movs	r3, #184	; 0xb8
    b7d6:	009b      	lsls	r3, r3, #2
    b7d8:	469c      	mov	ip, r3
    b7da:	2304      	movs	r3, #4
    b7dc:	4699      	mov	r9, r3
    b7de:	4466      	add	r6, ip
    b7e0:	6873      	ldr	r3, [r6, #4]
    b7e2:	68b4      	ldr	r4, [r6, #8]
    b7e4:	3b01      	subs	r3, #1
    b7e6:	d503      	bpl.n	b7f0 <__sfp+0x38>
    b7e8:	e027      	b.n	b83a <__sfp+0x82>
    b7ea:	3468      	adds	r4, #104	; 0x68
    b7ec:	3b01      	subs	r3, #1
    b7ee:	d324      	bcc.n	b83a <__sfp+0x82>
    b7f0:	220c      	movs	r2, #12
    b7f2:	5ea5      	ldrsh	r5, [r4, r2]
    b7f4:	2d00      	cmp	r5, #0
    b7f6:	d1f8      	bne.n	b7ea <__sfp+0x32>
    b7f8:	0020      	movs	r0, r4
    b7fa:	4b25      	ldr	r3, [pc, #148]	; (b890 <__sfp+0xd8>)
    b7fc:	3058      	adds	r0, #88	; 0x58
    b7fe:	60e3      	str	r3, [r4, #12]
    b800:	6665      	str	r5, [r4, #100]	; 0x64
    b802:	f000 fa37 	bl	bc74 <__retarget_lock_init_recursive>
    b806:	0038      	movs	r0, r7
    b808:	f000 fa44 	bl	bc94 <__retarget_lock_release_recursive>
    b80c:	0020      	movs	r0, r4
    b80e:	2208      	movs	r2, #8
    b810:	2100      	movs	r1, #0
    b812:	6025      	str	r5, [r4, #0]
    b814:	60a5      	str	r5, [r4, #8]
    b816:	6065      	str	r5, [r4, #4]
    b818:	6125      	str	r5, [r4, #16]
    b81a:	6165      	str	r5, [r4, #20]
    b81c:	61a5      	str	r5, [r4, #24]
    b81e:	305c      	adds	r0, #92	; 0x5c
    b820:	f7fc fd02 	bl	8228 <memset>
    b824:	6325      	str	r5, [r4, #48]	; 0x30
    b826:	6365      	str	r5, [r4, #52]	; 0x34
    b828:	6465      	str	r5, [r4, #68]	; 0x44
    b82a:	64a5      	str	r5, [r4, #72]	; 0x48
    b82c:	0020      	movs	r0, r4
    b82e:	bcc0      	pop	{r6, r7}
    b830:	46b9      	mov	r9, r7
    b832:	46b0      	mov	r8, r6
    b834:	bcf8      	pop	{r3, r4, r5, r6, r7}
    b836:	bc02      	pop	{r1}
    b838:	4708      	bx	r1
    b83a:	6835      	ldr	r5, [r6, #0]
    b83c:	2d00      	cmp	r5, #0
    b83e:	d005      	beq.n	b84c <__sfp+0x94>
    b840:	002e      	movs	r6, r5
    b842:	e7cd      	b.n	b7e0 <__sfp+0x28>
    b844:	0030      	movs	r0, r6
    b846:	f7ff ff25 	bl	b694 <__sinit>
    b84a:	e7c3      	b.n	b7d4 <__sfp+0x1c>
    b84c:	21d6      	movs	r1, #214	; 0xd6
    b84e:	4640      	mov	r0, r8
    b850:	0049      	lsls	r1, r1, #1
    b852:	f000 fac9 	bl	bde8 <_malloc_r>
    b856:	1e04      	subs	r4, r0, #0
    b858:	d00d      	beq.n	b876 <__sfp+0xbe>
    b85a:	464b      	mov	r3, r9
    b85c:	22d0      	movs	r2, #208	; 0xd0
    b85e:	6005      	str	r5, [r0, #0]
    b860:	0025      	movs	r5, r4
    b862:	6043      	str	r3, [r0, #4]
    b864:	300c      	adds	r0, #12
    b866:	2100      	movs	r1, #0
    b868:	60a0      	str	r0, [r4, #8]
    b86a:	0052      	lsls	r2, r2, #1
    b86c:	f7fc fcdc 	bl	8228 <memset>
    b870:	6034      	str	r4, [r6, #0]
    b872:	002e      	movs	r6, r5
    b874:	e7b4      	b.n	b7e0 <__sfp+0x28>
    b876:	6030      	str	r0, [r6, #0]
    b878:	0038      	movs	r0, r7
    b87a:	f000 fa0b 	bl	bc94 <__retarget_lock_release_recursive>
    b87e:	230c      	movs	r3, #12
    b880:	4642      	mov	r2, r8
    b882:	6013      	str	r3, [r2, #0]
    b884:	e7d2      	b.n	b82c <__sfp+0x74>
    b886:	46c0      	nop			; (mov r8, r8)
    b888:	00021bec 	.word	0x00021bec
    b88c:	00010ad0 	.word	0x00010ad0
    b890:	ffff0001 	.word	0xffff0001

0000b894 <__sfp_lock_acquire>:
    b894:	b510      	push	{r4, lr}
    b896:	4803      	ldr	r0, [pc, #12]	; (b8a4 <__sfp_lock_acquire+0x10>)
    b898:	f000 f9f4 	bl	bc84 <__retarget_lock_acquire_recursive>
    b89c:	bc10      	pop	{r4}
    b89e:	bc01      	pop	{r0}
    b8a0:	4700      	bx	r0
    b8a2:	46c0      	nop			; (mov r8, r8)
    b8a4:	00021bec 	.word	0x00021bec

0000b8a8 <__sfp_lock_release>:
    b8a8:	b510      	push	{r4, lr}
    b8aa:	4803      	ldr	r0, [pc, #12]	; (b8b8 <__sfp_lock_release+0x10>)
    b8ac:	f000 f9f2 	bl	bc94 <__retarget_lock_release_recursive>
    b8b0:	bc10      	pop	{r4}
    b8b2:	bc01      	pop	{r0}
    b8b4:	4700      	bx	r0
    b8b6:	46c0      	nop			; (mov r8, r8)
    b8b8:	00021bec 	.word	0x00021bec

0000b8bc <__sinit_lock_acquire>:
    b8bc:	b510      	push	{r4, lr}
    b8be:	4803      	ldr	r0, [pc, #12]	; (b8cc <__sinit_lock_acquire+0x10>)
    b8c0:	f000 f9e0 	bl	bc84 <__retarget_lock_acquire_recursive>
    b8c4:	bc10      	pop	{r4}
    b8c6:	bc01      	pop	{r0}
    b8c8:	4700      	bx	r0
    b8ca:	46c0      	nop			; (mov r8, r8)
    b8cc:	00021bf0 	.word	0x00021bf0

0000b8d0 <__sinit_lock_release>:
    b8d0:	b510      	push	{r4, lr}
    b8d2:	4803      	ldr	r0, [pc, #12]	; (b8e0 <__sinit_lock_release+0x10>)
    b8d4:	f000 f9de 	bl	bc94 <__retarget_lock_release_recursive>
    b8d8:	bc10      	pop	{r4}
    b8da:	bc01      	pop	{r0}
    b8dc:	4700      	bx	r0
    b8de:	46c0      	nop			; (mov r8, r8)
    b8e0:	00021bf0 	.word	0x00021bf0

0000b8e4 <__fp_lock_all>:
    b8e4:	b510      	push	{r4, lr}
    b8e6:	4805      	ldr	r0, [pc, #20]	; (b8fc <__fp_lock_all+0x18>)
    b8e8:	f000 f9cc 	bl	bc84 <__retarget_lock_acquire_recursive>
    b8ec:	4b04      	ldr	r3, [pc, #16]	; (b900 <__fp_lock_all+0x1c>)
    b8ee:	4905      	ldr	r1, [pc, #20]	; (b904 <__fp_lock_all+0x20>)
    b8f0:	6818      	ldr	r0, [r3, #0]
    b8f2:	f000 f967 	bl	bbc4 <_fwalk>
    b8f6:	bc10      	pop	{r4}
    b8f8:	bc01      	pop	{r0}
    b8fa:	4700      	bx	r0
    b8fc:	00021bec 	.word	0x00021bec
    b900:	0002120c 	.word	0x0002120c
    b904:	0000b605 	.word	0x0000b605

0000b908 <__fp_unlock_all>:
    b908:	b510      	push	{r4, lr}
    b90a:	4b05      	ldr	r3, [pc, #20]	; (b920 <__fp_unlock_all+0x18>)
    b90c:	6818      	ldr	r0, [r3, #0]
    b90e:	4905      	ldr	r1, [pc, #20]	; (b924 <__fp_unlock_all+0x1c>)
    b910:	f000 f958 	bl	bbc4 <_fwalk>
    b914:	4804      	ldr	r0, [pc, #16]	; (b928 <__fp_unlock_all+0x20>)
    b916:	f000 f9bd 	bl	bc94 <__retarget_lock_release_recursive>
    b91a:	bc10      	pop	{r4}
    b91c:	bc01      	pop	{r0}
    b91e:	4700      	bx	r0
    b920:	0002120c 	.word	0x0002120c
    b924:	0000b625 	.word	0x0000b625
    b928:	00021bec 	.word	0x00021bec

0000b92c <__libc_fini_array>:
    b92c:	b570      	push	{r4, r5, r6, lr}
    b92e:	4d08      	ldr	r5, [pc, #32]	; (b950 <__libc_fini_array+0x24>)
    b930:	4c08      	ldr	r4, [pc, #32]	; (b954 <__libc_fini_array+0x28>)
    b932:	1b64      	subs	r4, r4, r5
    b934:	10a4      	asrs	r4, r4, #2
    b936:	d006      	beq.n	b946 <__libc_fini_array+0x1a>
    b938:	3c01      	subs	r4, #1
    b93a:	00a3      	lsls	r3, r4, #2
    b93c:	58eb      	ldr	r3, [r5, r3]
    b93e:	f000 f80b 	bl	b958 <__libc_fini_array+0x2c>
    b942:	2c00      	cmp	r4, #0
    b944:	d1f8      	bne.n	b938 <__libc_fini_array+0xc>
    b946:	f005 f8a3 	bl	10a90 <_fini>
    b94a:	bc70      	pop	{r4, r5, r6}
    b94c:	bc01      	pop	{r0}
    b94e:	4700      	bx	r0
    b950:	00021204 	.word	0x00021204
    b954:	00021208 	.word	0x00021208
    b958:	4718      	bx	r3
    b95a:	46c0      	nop			; (mov r8, r8)

0000b95c <_malloc_trim_r>:
    b95c:	b5f8      	push	{r3, r4, r5, r6, r7, lr}
    b95e:	000c      	movs	r4, r1
    b960:	0005      	movs	r5, r0
    b962:	f000 fd95 	bl	c490 <__malloc_lock>
    b966:	4f21      	ldr	r7, [pc, #132]	; (b9ec <_malloc_trim_r+0x90>)
    b968:	68bb      	ldr	r3, [r7, #8]
    b96a:	685e      	ldr	r6, [r3, #4]
    b96c:	2303      	movs	r3, #3
    b96e:	439e      	bics	r6, r3
    b970:	4b1f      	ldr	r3, [pc, #124]	; (b9f0 <_malloc_trim_r+0x94>)
    b972:	469c      	mov	ip, r3
    b974:	1b34      	subs	r4, r6, r4
    b976:	4464      	add	r4, ip
    b978:	0b24      	lsrs	r4, r4, #12
    b97a:	3c01      	subs	r4, #1
    b97c:	3311      	adds	r3, #17
    b97e:	0324      	lsls	r4, r4, #12
    b980:	429c      	cmp	r4, r3
    b982:	db07      	blt.n	b994 <_malloc_trim_r+0x38>
    b984:	2100      	movs	r1, #0
    b986:	0028      	movs	r0, r5
    b988:	f001 fb66 	bl	d058 <_sbrk_r>
    b98c:	68bb      	ldr	r3, [r7, #8]
    b98e:	199b      	adds	r3, r3, r6
    b990:	4298      	cmp	r0, r3
    b992:	d006      	beq.n	b9a2 <_malloc_trim_r+0x46>
    b994:	0028      	movs	r0, r5
    b996:	f000 fd85 	bl	c4a4 <__malloc_unlock>
    b99a:	2000      	movs	r0, #0
    b99c:	bcf8      	pop	{r3, r4, r5, r6, r7}
    b99e:	bc02      	pop	{r1}
    b9a0:	4708      	bx	r1
    b9a2:	0028      	movs	r0, r5
    b9a4:	4261      	negs	r1, r4
    b9a6:	f001 fb57 	bl	d058 <_sbrk_r>
    b9aa:	1c43      	adds	r3, r0, #1
    b9ac:	d00d      	beq.n	b9ca <_malloc_trim_r+0x6e>
    b9ae:	2201      	movs	r2, #1
    b9b0:	68bb      	ldr	r3, [r7, #8]
    b9b2:	1b36      	subs	r6, r6, r4
    b9b4:	4316      	orrs	r6, r2
    b9b6:	605e      	str	r6, [r3, #4]
    b9b8:	4b0e      	ldr	r3, [pc, #56]	; (b9f4 <_malloc_trim_r+0x98>)
    b9ba:	681a      	ldr	r2, [r3, #0]
    b9bc:	0028      	movs	r0, r5
    b9be:	1b14      	subs	r4, r2, r4
    b9c0:	601c      	str	r4, [r3, #0]
    b9c2:	f000 fd6f 	bl	c4a4 <__malloc_unlock>
    b9c6:	2001      	movs	r0, #1
    b9c8:	e7e8      	b.n	b99c <_malloc_trim_r+0x40>
    b9ca:	2100      	movs	r1, #0
    b9cc:	0028      	movs	r0, r5
    b9ce:	f001 fb43 	bl	d058 <_sbrk_r>
    b9d2:	68ba      	ldr	r2, [r7, #8]
    b9d4:	1a83      	subs	r3, r0, r2
    b9d6:	2b0f      	cmp	r3, #15
    b9d8:	dddc      	ble.n	b994 <_malloc_trim_r+0x38>
    b9da:	4907      	ldr	r1, [pc, #28]	; (b9f8 <_malloc_trim_r+0x9c>)
    b9dc:	6809      	ldr	r1, [r1, #0]
    b9de:	1a40      	subs	r0, r0, r1
    b9e0:	4904      	ldr	r1, [pc, #16]	; (b9f4 <_malloc_trim_r+0x98>)
    b9e2:	6008      	str	r0, [r1, #0]
    b9e4:	2101      	movs	r1, #1
    b9e6:	430b      	orrs	r3, r1
    b9e8:	6053      	str	r3, [r2, #4]
    b9ea:	e7d3      	b.n	b994 <_malloc_trim_r+0x38>
    b9ec:	0002163c 	.word	0x0002163c
    b9f0:	00000fef 	.word	0x00000fef
    b9f4:	00021bf8 	.word	0x00021bf8
    b9f8:	00021a44 	.word	0x00021a44

0000b9fc <_free_r>:
    b9fc:	b5f0      	push	{r4, r5, r6, r7, lr}
    b9fe:	46c6      	mov	lr, r8
    ba00:	0005      	movs	r5, r0
    ba02:	000c      	movs	r4, r1
    ba04:	b500      	push	{lr}
    ba06:	2900      	cmp	r1, #0
    ba08:	d04f      	beq.n	baaa <_free_r+0xae>
    ba0a:	f000 fd41 	bl	c490 <__malloc_lock>
    ba0e:	0021      	movs	r1, r4
    ba10:	3908      	subs	r1, #8
    ba12:	684c      	ldr	r4, [r1, #4]
    ba14:	2601      	movs	r6, #1
    ba16:	0022      	movs	r2, r4
    ba18:	2003      	movs	r0, #3
    ba1a:	43b2      	bics	r2, r6
    ba1c:	188f      	adds	r7, r1, r2
    ba1e:	687b      	ldr	r3, [r7, #4]
    ba20:	4383      	bics	r3, r0
    ba22:	4863      	ldr	r0, [pc, #396]	; (bbb0 <_free_r+0x1b4>)
    ba24:	4698      	mov	r8, r3
    ba26:	6883      	ldr	r3, [r0, #8]
    ba28:	42bb      	cmp	r3, r7
    ba2a:	d06c      	beq.n	bb06 <_free_r+0x10a>
    ba2c:	4643      	mov	r3, r8
    ba2e:	607b      	str	r3, [r7, #4]
    ba30:	4226      	tst	r6, r4
    ba32:	d11e      	bne.n	ba72 <_free_r+0x76>
    ba34:	2308      	movs	r3, #8
    ba36:	469c      	mov	ip, r3
    ba38:	680c      	ldr	r4, [r1, #0]
    ba3a:	1b09      	subs	r1, r1, r4
    ba3c:	1912      	adds	r2, r2, r4
    ba3e:	688c      	ldr	r4, [r1, #8]
    ba40:	4484      	add	ip, r0
    ba42:	4564      	cmp	r4, ip
    ba44:	d051      	beq.n	baea <_free_r+0xee>
    ba46:	68cb      	ldr	r3, [r1, #12]
    ba48:	60e3      	str	r3, [r4, #12]
    ba4a:	609c      	str	r4, [r3, #8]
    ba4c:	4643      	mov	r3, r8
    ba4e:	18fc      	adds	r4, r7, r3
    ba50:	6864      	ldr	r4, [r4, #4]
    ba52:	4234      	tst	r4, r6
    ba54:	d111      	bne.n	ba7a <_free_r+0x7e>
    ba56:	68bb      	ldr	r3, [r7, #8]
    ba58:	4c56      	ldr	r4, [pc, #344]	; (bbb4 <_free_r+0x1b8>)
    ba5a:	4442      	add	r2, r8
    ba5c:	42a3      	cmp	r3, r4
    ba5e:	d100      	bne.n	ba62 <_free_r+0x66>
    ba60:	e080      	b.n	bb64 <_free_r+0x168>
    ba62:	68fc      	ldr	r4, [r7, #12]
    ba64:	60dc      	str	r4, [r3, #12]
    ba66:	60a3      	str	r3, [r4, #8]
    ba68:	2301      	movs	r3, #1
    ba6a:	4313      	orrs	r3, r2
    ba6c:	604b      	str	r3, [r1, #4]
    ba6e:	508a      	str	r2, [r1, r2]
    ba70:	e006      	b.n	ba80 <_free_r+0x84>
    ba72:	18fc      	adds	r4, r7, r3
    ba74:	6864      	ldr	r4, [r4, #4]
    ba76:	4234      	tst	r4, r6
    ba78:	d0ed      	beq.n	ba56 <_free_r+0x5a>
    ba7a:	4316      	orrs	r6, r2
    ba7c:	604e      	str	r6, [r1, #4]
    ba7e:	603a      	str	r2, [r7, #0]
    ba80:	2380      	movs	r3, #128	; 0x80
    ba82:	009b      	lsls	r3, r3, #2
    ba84:	429a      	cmp	r2, r3
    ba86:	d215      	bcs.n	bab4 <_free_r+0xb8>
    ba88:	0954      	lsrs	r4, r2, #5
    ba8a:	08d3      	lsrs	r3, r2, #3
    ba8c:	2201      	movs	r2, #1
    ba8e:	40a2      	lsls	r2, r4
    ba90:	6844      	ldr	r4, [r0, #4]
    ba92:	00db      	lsls	r3, r3, #3
    ba94:	4322      	orrs	r2, r4
    ba96:	6042      	str	r2, [r0, #4]
    ba98:	1818      	adds	r0, r3, r0
    ba9a:	6883      	ldr	r3, [r0, #8]
    ba9c:	60c8      	str	r0, [r1, #12]
    ba9e:	608b      	str	r3, [r1, #8]
    baa0:	6081      	str	r1, [r0, #8]
    baa2:	60d9      	str	r1, [r3, #12]
    baa4:	0028      	movs	r0, r5
    baa6:	f000 fcfd 	bl	c4a4 <__malloc_unlock>
    baaa:	bc80      	pop	{r7}
    baac:	46b8      	mov	r8, r7
    baae:	bcf0      	pop	{r4, r5, r6, r7}
    bab0:	bc01      	pop	{r0}
    bab2:	4700      	bx	r0
    bab4:	0a53      	lsrs	r3, r2, #9
    bab6:	2b04      	cmp	r3, #4
    bab8:	d83e      	bhi.n	bb38 <_free_r+0x13c>
    baba:	0994      	lsrs	r4, r2, #6
    babc:	0026      	movs	r6, r4
    babe:	3439      	adds	r4, #57	; 0x39
    bac0:	3638      	adds	r6, #56	; 0x38
    bac2:	00e4      	lsls	r4, r4, #3
    bac4:	1904      	adds	r4, r0, r4
    bac6:	6823      	ldr	r3, [r4, #0]
    bac8:	3c08      	subs	r4, #8
    baca:	2703      	movs	r7, #3
    bacc:	429c      	cmp	r4, r3
    bace:	d042      	beq.n	bb56 <_free_r+0x15a>
    bad0:	6858      	ldr	r0, [r3, #4]
    bad2:	43b8      	bics	r0, r7
    bad4:	4290      	cmp	r0, r2
    bad6:	d902      	bls.n	bade <_free_r+0xe2>
    bad8:	689b      	ldr	r3, [r3, #8]
    bada:	429c      	cmp	r4, r3
    badc:	d1f8      	bne.n	bad0 <_free_r+0xd4>
    bade:	68dc      	ldr	r4, [r3, #12]
    bae0:	60cc      	str	r4, [r1, #12]
    bae2:	608b      	str	r3, [r1, #8]
    bae4:	60a1      	str	r1, [r4, #8]
    bae6:	60d9      	str	r1, [r3, #12]
    bae8:	e7dc      	b.n	baa4 <_free_r+0xa8>
    baea:	4643      	mov	r3, r8
    baec:	18f8      	adds	r0, r7, r3
    baee:	6840      	ldr	r0, [r0, #4]
    baf0:	4230      	tst	r0, r6
    baf2:	d157      	bne.n	bba4 <_free_r+0x1a8>
    baf4:	3708      	adds	r7, #8
    baf6:	cf09      	ldmia	r7!, {r0, r3}
    baf8:	4442      	add	r2, r8
    bafa:	4316      	orrs	r6, r2
    bafc:	60c3      	str	r3, [r0, #12]
    bafe:	6098      	str	r0, [r3, #8]
    bb00:	604e      	str	r6, [r1, #4]
    bb02:	508a      	str	r2, [r1, r2]
    bb04:	e7ce      	b.n	baa4 <_free_r+0xa8>
    bb06:	0013      	movs	r3, r2
    bb08:	4443      	add	r3, r8
    bb0a:	4226      	tst	r6, r4
    bb0c:	d106      	bne.n	bb1c <_free_r+0x120>
    bb0e:	680a      	ldr	r2, [r1, #0]
    bb10:	1a89      	subs	r1, r1, r2
    bb12:	688c      	ldr	r4, [r1, #8]
    bb14:	189b      	adds	r3, r3, r2
    bb16:	68ca      	ldr	r2, [r1, #12]
    bb18:	60e2      	str	r2, [r4, #12]
    bb1a:	6094      	str	r4, [r2, #8]
    bb1c:	2201      	movs	r2, #1
    bb1e:	431a      	orrs	r2, r3
    bb20:	604a      	str	r2, [r1, #4]
    bb22:	4a25      	ldr	r2, [pc, #148]	; (bbb8 <_free_r+0x1bc>)
    bb24:	6812      	ldr	r2, [r2, #0]
    bb26:	6081      	str	r1, [r0, #8]
    bb28:	429a      	cmp	r2, r3
    bb2a:	d8bb      	bhi.n	baa4 <_free_r+0xa8>
    bb2c:	4b23      	ldr	r3, [pc, #140]	; (bbbc <_free_r+0x1c0>)
    bb2e:	0028      	movs	r0, r5
    bb30:	6819      	ldr	r1, [r3, #0]
    bb32:	f7ff ff13 	bl	b95c <_malloc_trim_r>
    bb36:	e7b5      	b.n	baa4 <_free_r+0xa8>
    bb38:	2b14      	cmp	r3, #20
    bb3a:	d907      	bls.n	bb4c <_free_r+0x150>
    bb3c:	2b54      	cmp	r3, #84	; 0x54
    bb3e:	d81a      	bhi.n	bb76 <_free_r+0x17a>
    bb40:	0b14      	lsrs	r4, r2, #12
    bb42:	0026      	movs	r6, r4
    bb44:	346f      	adds	r4, #111	; 0x6f
    bb46:	366e      	adds	r6, #110	; 0x6e
    bb48:	00e4      	lsls	r4, r4, #3
    bb4a:	e7bb      	b.n	bac4 <_free_r+0xc8>
    bb4c:	001e      	movs	r6, r3
    bb4e:	335c      	adds	r3, #92	; 0x5c
    bb50:	365b      	adds	r6, #91	; 0x5b
    bb52:	00dc      	lsls	r4, r3, #3
    bb54:	e7b6      	b.n	bac4 <_free_r+0xc8>
    bb56:	2201      	movs	r2, #1
    bb58:	10b6      	asrs	r6, r6, #2
    bb5a:	40b2      	lsls	r2, r6
    bb5c:	6846      	ldr	r6, [r0, #4]
    bb5e:	4332      	orrs	r2, r6
    bb60:	6042      	str	r2, [r0, #4]
    bb62:	e7bd      	b.n	bae0 <_free_r+0xe4>
    bb64:	60d9      	str	r1, [r3, #12]
    bb66:	6099      	str	r1, [r3, #8]
    bb68:	60cb      	str	r3, [r1, #12]
    bb6a:	608b      	str	r3, [r1, #8]
    bb6c:	2301      	movs	r3, #1
    bb6e:	4313      	orrs	r3, r2
    bb70:	604b      	str	r3, [r1, #4]
    bb72:	508a      	str	r2, [r1, r2]
    bb74:	e796      	b.n	baa4 <_free_r+0xa8>
    bb76:	24aa      	movs	r4, #170	; 0xaa
    bb78:	0064      	lsls	r4, r4, #1
    bb7a:	42a3      	cmp	r3, r4
    bb7c:	d805      	bhi.n	bb8a <_free_r+0x18e>
    bb7e:	0bd4      	lsrs	r4, r2, #15
    bb80:	0026      	movs	r6, r4
    bb82:	3478      	adds	r4, #120	; 0x78
    bb84:	3677      	adds	r6, #119	; 0x77
    bb86:	00e4      	lsls	r4, r4, #3
    bb88:	e79c      	b.n	bac4 <_free_r+0xc8>
    bb8a:	4c0d      	ldr	r4, [pc, #52]	; (bbc0 <_free_r+0x1c4>)
    bb8c:	42a3      	cmp	r3, r4
    bb8e:	d805      	bhi.n	bb9c <_free_r+0x1a0>
    bb90:	0c94      	lsrs	r4, r2, #18
    bb92:	0026      	movs	r6, r4
    bb94:	347d      	adds	r4, #125	; 0x7d
    bb96:	367c      	adds	r6, #124	; 0x7c
    bb98:	00e4      	lsls	r4, r4, #3
    bb9a:	e793      	b.n	bac4 <_free_r+0xc8>
    bb9c:	24fe      	movs	r4, #254	; 0xfe
    bb9e:	267e      	movs	r6, #126	; 0x7e
    bba0:	00a4      	lsls	r4, r4, #2
    bba2:	e78f      	b.n	bac4 <_free_r+0xc8>
    bba4:	0033      	movs	r3, r6
    bba6:	4313      	orrs	r3, r2
    bba8:	604b      	str	r3, [r1, #4]
    bbaa:	603a      	str	r2, [r7, #0]
    bbac:	e77a      	b.n	baa4 <_free_r+0xa8>
    bbae:	46c0      	nop			; (mov r8, r8)
    bbb0:	0002163c 	.word	0x0002163c
    bbb4:	00021644 	.word	0x00021644
    bbb8:	00021a48 	.word	0x00021a48
    bbbc:	00021c28 	.word	0x00021c28
    bbc0:	00000554 	.word	0x00000554

0000bbc4 <_fwalk>:
    bbc4:	b5f0      	push	{r4, r5, r6, r7, lr}
    bbc6:	46c6      	mov	lr, r8
    bbc8:	23b8      	movs	r3, #184	; 0xb8
    bbca:	4688      	mov	r8, r1
    bbcc:	2600      	movs	r6, #0
    bbce:	b500      	push	{lr}
    bbd0:	009b      	lsls	r3, r3, #2
    bbd2:	18c7      	adds	r7, r0, r3
    bbd4:	687b      	ldr	r3, [r7, #4]
    bbd6:	68bc      	ldr	r4, [r7, #8]
    bbd8:	1e5d      	subs	r5, r3, #1
    bbda:	d40d      	bmi.n	bbf8 <_fwalk+0x34>
    bbdc:	89a3      	ldrh	r3, [r4, #12]
    bbde:	2b01      	cmp	r3, #1
    bbe0:	d907      	bls.n	bbf2 <_fwalk+0x2e>
    bbe2:	220e      	movs	r2, #14
    bbe4:	5ea3      	ldrsh	r3, [r4, r2]
    bbe6:	3301      	adds	r3, #1
    bbe8:	d003      	beq.n	bbf2 <_fwalk+0x2e>
    bbea:	0020      	movs	r0, r4
    bbec:	f000 f80d 	bl	bc0a <_fwalk+0x46>
    bbf0:	4306      	orrs	r6, r0
    bbf2:	3468      	adds	r4, #104	; 0x68
    bbf4:	3d01      	subs	r5, #1
    bbf6:	d2f1      	bcs.n	bbdc <_fwalk+0x18>
    bbf8:	683f      	ldr	r7, [r7, #0]
    bbfa:	2f00      	cmp	r7, #0
    bbfc:	d1ea      	bne.n	bbd4 <_fwalk+0x10>
    bbfe:	0030      	movs	r0, r6
    bc00:	bc80      	pop	{r7}
    bc02:	46b8      	mov	r8, r7
    bc04:	bcf0      	pop	{r4, r5, r6, r7}
    bc06:	bc02      	pop	{r1}
    bc08:	4708      	bx	r1
    bc0a:	4740      	bx	r8

0000bc0c <_fwalk_reent>:
    bc0c:	b5f8      	push	{r3, r4, r5, r6, r7, lr}
    bc0e:	4647      	mov	r7, r8
    bc10:	46ce      	mov	lr, r9
    bc12:	b580      	push	{r7, lr}
    bc14:	27b8      	movs	r7, #184	; 0xb8
    bc16:	4680      	mov	r8, r0
    bc18:	4689      	mov	r9, r1
    bc1a:	2600      	movs	r6, #0
    bc1c:	00bf      	lsls	r7, r7, #2
    bc1e:	4447      	add	r7, r8
    bc20:	687b      	ldr	r3, [r7, #4]
    bc22:	68bc      	ldr	r4, [r7, #8]
    bc24:	1e5d      	subs	r5, r3, #1
    bc26:	d40e      	bmi.n	bc46 <_fwalk_reent+0x3a>
    bc28:	89a3      	ldrh	r3, [r4, #12]
    bc2a:	2b01      	cmp	r3, #1
    bc2c:	d908      	bls.n	bc40 <_fwalk_reent+0x34>
    bc2e:	220e      	movs	r2, #14
    bc30:	5ea3      	ldrsh	r3, [r4, r2]
    bc32:	3301      	adds	r3, #1
    bc34:	d004      	beq.n	bc40 <_fwalk_reent+0x34>
    bc36:	0021      	movs	r1, r4
    bc38:	4640      	mov	r0, r8
    bc3a:	f000 f80e 	bl	bc5a <_fwalk_reent+0x4e>
    bc3e:	4306      	orrs	r6, r0
    bc40:	3468      	adds	r4, #104	; 0x68
    bc42:	3d01      	subs	r5, #1
    bc44:	d2f0      	bcs.n	bc28 <_fwalk_reent+0x1c>
    bc46:	683f      	ldr	r7, [r7, #0]
    bc48:	2f00      	cmp	r7, #0
    bc4a:	d1e9      	bne.n	bc20 <_fwalk_reent+0x14>
    bc4c:	0030      	movs	r0, r6
    bc4e:	bcc0      	pop	{r6, r7}
    bc50:	46b9      	mov	r9, r7
    bc52:	46b0      	mov	r8, r6
    bc54:	bcf8      	pop	{r3, r4, r5, r6, r7}
    bc56:	bc02      	pop	{r1}
    bc58:	4708      	bx	r1
    bc5a:	4748      	bx	r9

0000bc5c <__localeconv_l>:
    bc5c:	30f0      	adds	r0, #240	; 0xf0
    bc5e:	4770      	bx	lr

0000bc60 <_localeconv_r>:
    bc60:	4800      	ldr	r0, [pc, #0]	; (bc64 <_localeconv_r+0x4>)
    bc62:	4770      	bx	lr
    bc64:	00021b3c 	.word	0x00021b3c

0000bc68 <localeconv>:
    bc68:	4800      	ldr	r0, [pc, #0]	; (bc6c <localeconv+0x4>)
    bc6a:	4770      	bx	lr
    bc6c:	00021b3c 	.word	0x00021b3c

0000bc70 <__retarget_lock_init>:
    bc70:	4770      	bx	lr
    bc72:	46c0      	nop			; (mov r8, r8)

0000bc74 <__retarget_lock_init_recursive>:
    bc74:	4770      	bx	lr
    bc76:	46c0      	nop			; (mov r8, r8)

0000bc78 <__retarget_lock_close>:
    bc78:	4770      	bx	lr
    bc7a:	46c0      	nop			; (mov r8, r8)

0000bc7c <__retarget_lock_close_recursive>:
    bc7c:	4770      	bx	lr
    bc7e:	46c0      	nop			; (mov r8, r8)

0000bc80 <__retarget_lock_acquire>:
    bc80:	4770      	bx	lr
    bc82:	46c0      	nop			; (mov r8, r8)

0000bc84 <__retarget_lock_acquire_recursive>:
    bc84:	4770      	bx	lr
    bc86:	46c0      	nop			; (mov r8, r8)

0000bc88 <__retarget_lock_try_acquire>:
    bc88:	2001      	movs	r0, #1
    bc8a:	4770      	bx	lr

0000bc8c <__retarget_lock_try_acquire_recursive>:
    bc8c:	2001      	movs	r0, #1
    bc8e:	4770      	bx	lr

0000bc90 <__retarget_lock_release>:
    bc90:	4770      	bx	lr
    bc92:	46c0      	nop			; (mov r8, r8)

0000bc94 <__retarget_lock_release_recursive>:
    bc94:	4770      	bx	lr
    bc96:	46c0      	nop			; (mov r8, r8)

0000bc98 <__smakebuf_r>:
    bc98:	b5f0      	push	{r4, r5, r6, r7, lr}
    bc9a:	46c6      	mov	lr, r8
    bc9c:	b500      	push	{lr}
    bc9e:	898b      	ldrh	r3, [r1, #12]
    bca0:	0006      	movs	r6, r0
    bca2:	000c      	movs	r4, r1
    bca4:	b096      	sub	sp, #88	; 0x58
    bca6:	079a      	lsls	r2, r3, #30
    bca8:	d50b      	bpl.n	bcc2 <__smakebuf_r+0x2a>
    bcaa:	0023      	movs	r3, r4
    bcac:	3343      	adds	r3, #67	; 0x43
    bcae:	6023      	str	r3, [r4, #0]
    bcb0:	6123      	str	r3, [r4, #16]
    bcb2:	2301      	movs	r3, #1
    bcb4:	6163      	str	r3, [r4, #20]
    bcb6:	b016      	add	sp, #88	; 0x58
    bcb8:	bc80      	pop	{r7}
    bcba:	46b8      	mov	r8, r7
    bcbc:	bcf0      	pop	{r4, r5, r6, r7}
    bcbe:	bc01      	pop	{r0}
    bcc0:	4700      	bx	r0
    bcc2:	220e      	movs	r2, #14
    bcc4:	5e89      	ldrsh	r1, [r1, r2]
    bcc6:	2900      	cmp	r1, #0
    bcc8:	db2a      	blt.n	bd20 <__smakebuf_r+0x88>
    bcca:	466a      	mov	r2, sp
    bccc:	f002 fc90 	bl	e5f0 <_fstat_r>
    bcd0:	2800      	cmp	r0, #0
    bcd2:	db24      	blt.n	bd1e <__smakebuf_r+0x86>
    bcd4:	23f0      	movs	r3, #240	; 0xf0
    bcd6:	9f01      	ldr	r7, [sp, #4]
    bcd8:	021b      	lsls	r3, r3, #8
    bcda:	401f      	ands	r7, r3
    bcdc:	4b27      	ldr	r3, [pc, #156]	; (bd7c <__smakebuf_r+0xe4>)
    bcde:	469c      	mov	ip, r3
    bce0:	4467      	add	r7, ip
    bce2:	427b      	negs	r3, r7
    bce4:	415f      	adcs	r7, r3
    bce6:	2380      	movs	r3, #128	; 0x80
    bce8:	2580      	movs	r5, #128	; 0x80
    bcea:	00db      	lsls	r3, r3, #3
    bcec:	4698      	mov	r8, r3
    bcee:	012d      	lsls	r5, r5, #4
    bcf0:	4641      	mov	r1, r8
    bcf2:	0030      	movs	r0, r6
    bcf4:	f000 f878 	bl	bde8 <_malloc_r>
    bcf8:	2800      	cmp	r0, #0
    bcfa:	d01d      	beq.n	bd38 <__smakebuf_r+0xa0>
    bcfc:	2280      	movs	r2, #128	; 0x80
    bcfe:	4b20      	ldr	r3, [pc, #128]	; (bd80 <__smakebuf_r+0xe8>)
    bd00:	63f3      	str	r3, [r6, #60]	; 0x3c
    bd02:	89a3      	ldrh	r3, [r4, #12]
    bd04:	4313      	orrs	r3, r2
    bd06:	4642      	mov	r2, r8
    bd08:	041b      	lsls	r3, r3, #16
    bd0a:	141b      	asrs	r3, r3, #16
    bd0c:	81a3      	strh	r3, [r4, #12]
    bd0e:	6020      	str	r0, [r4, #0]
    bd10:	6120      	str	r0, [r4, #16]
    bd12:	6162      	str	r2, [r4, #20]
    bd14:	2f00      	cmp	r7, #0
    bd16:	d11e      	bne.n	bd56 <__smakebuf_r+0xbe>
    bd18:	432b      	orrs	r3, r5
    bd1a:	81a3      	strh	r3, [r4, #12]
    bd1c:	e7cb      	b.n	bcb6 <__smakebuf_r+0x1e>
    bd1e:	89a3      	ldrh	r3, [r4, #12]
    bd20:	2700      	movs	r7, #0
    bd22:	061b      	lsls	r3, r3, #24
    bd24:	d512      	bpl.n	bd4c <__smakebuf_r+0xb4>
    bd26:	2340      	movs	r3, #64	; 0x40
    bd28:	4698      	mov	r8, r3
    bd2a:	0030      	movs	r0, r6
    bd2c:	4641      	mov	r1, r8
    bd2e:	2500      	movs	r5, #0
    bd30:	f000 f85a 	bl	bde8 <_malloc_r>
    bd34:	2800      	cmp	r0, #0
    bd36:	d1e1      	bne.n	bcfc <__smakebuf_r+0x64>
    bd38:	220c      	movs	r2, #12
    bd3a:	5ea3      	ldrsh	r3, [r4, r2]
    bd3c:	059a      	lsls	r2, r3, #22
    bd3e:	d4ba      	bmi.n	bcb6 <__smakebuf_r+0x1e>
    bd40:	2203      	movs	r2, #3
    bd42:	4393      	bics	r3, r2
    bd44:	2202      	movs	r2, #2
    bd46:	4313      	orrs	r3, r2
    bd48:	81a3      	strh	r3, [r4, #12]
    bd4a:	e7ae      	b.n	bcaa <__smakebuf_r+0x12>
    bd4c:	2380      	movs	r3, #128	; 0x80
    bd4e:	00db      	lsls	r3, r3, #3
    bd50:	4698      	mov	r8, r3
    bd52:	2500      	movs	r5, #0
    bd54:	e7cc      	b.n	bcf0 <__smakebuf_r+0x58>
    bd56:	0030      	movs	r0, r6
    bd58:	230e      	movs	r3, #14
    bd5a:	5ee1      	ldrsh	r1, [r4, r3]
    bd5c:	f002 fdec 	bl	e938 <_isatty_r>
    bd60:	2800      	cmp	r0, #0
    bd62:	d102      	bne.n	bd6a <__smakebuf_r+0xd2>
    bd64:	220c      	movs	r2, #12
    bd66:	5ea3      	ldrsh	r3, [r4, r2]
    bd68:	e7d6      	b.n	bd18 <__smakebuf_r+0x80>
    bd6a:	2203      	movs	r2, #3
    bd6c:	89a3      	ldrh	r3, [r4, #12]
    bd6e:	4393      	bics	r3, r2
    bd70:	2201      	movs	r2, #1
    bd72:	4313      	orrs	r3, r2
    bd74:	041b      	lsls	r3, r3, #16
    bd76:	141b      	asrs	r3, r3, #16
    bd78:	e7ce      	b.n	bd18 <__smakebuf_r+0x80>
    bd7a:	46c0      	nop			; (mov r8, r8)
    bd7c:	ffffe000 	.word	0xffffe000
    bd80:	0000b5f1 	.word	0x0000b5f1

0000bd84 <__swhatbuf_r>:
    bd84:	b570      	push	{r4, r5, r6, lr}
    bd86:	000c      	movs	r4, r1
    bd88:	001e      	movs	r6, r3
    bd8a:	230e      	movs	r3, #14
    bd8c:	5ec9      	ldrsh	r1, [r1, r3]
    bd8e:	0015      	movs	r5, r2
    bd90:	b096      	sub	sp, #88	; 0x58
    bd92:	2900      	cmp	r1, #0
    bd94:	db17      	blt.n	bdc6 <__swhatbuf_r+0x42>
    bd96:	466a      	mov	r2, sp
    bd98:	f002 fc2a 	bl	e5f0 <_fstat_r>
    bd9c:	2800      	cmp	r0, #0
    bd9e:	db12      	blt.n	bdc6 <__swhatbuf_r+0x42>
    bda0:	22f0      	movs	r2, #240	; 0xf0
    bda2:	9b01      	ldr	r3, [sp, #4]
    bda4:	0212      	lsls	r2, r2, #8
    bda6:	4013      	ands	r3, r2
    bda8:	4a0e      	ldr	r2, [pc, #56]	; (bde4 <__swhatbuf_r+0x60>)
    bdaa:	4694      	mov	ip, r2
    bdac:	4463      	add	r3, ip
    bdae:	425a      	negs	r2, r3
    bdb0:	4153      	adcs	r3, r2
    bdb2:	6033      	str	r3, [r6, #0]
    bdb4:	2380      	movs	r3, #128	; 0x80
    bdb6:	2080      	movs	r0, #128	; 0x80
    bdb8:	00db      	lsls	r3, r3, #3
    bdba:	602b      	str	r3, [r5, #0]
    bdbc:	0100      	lsls	r0, r0, #4
    bdbe:	b016      	add	sp, #88	; 0x58
    bdc0:	bc70      	pop	{r4, r5, r6}
    bdc2:	bc02      	pop	{r1}
    bdc4:	4708      	bx	r1
    bdc6:	220c      	movs	r2, #12
    bdc8:	5ea3      	ldrsh	r3, [r4, r2]
    bdca:	2200      	movs	r2, #0
    bdcc:	6032      	str	r2, [r6, #0]
    bdce:	061b      	lsls	r3, r3, #24
    bdd0:	d503      	bpl.n	bdda <__swhatbuf_r+0x56>
    bdd2:	2340      	movs	r3, #64	; 0x40
    bdd4:	2000      	movs	r0, #0
    bdd6:	602b      	str	r3, [r5, #0]
    bdd8:	e7f1      	b.n	bdbe <__swhatbuf_r+0x3a>
    bdda:	2380      	movs	r3, #128	; 0x80
    bddc:	00db      	lsls	r3, r3, #3
    bdde:	2000      	movs	r0, #0
    bde0:	602b      	str	r3, [r5, #0]
    bde2:	e7ec      	b.n	bdbe <__swhatbuf_r+0x3a>
    bde4:	ffffe000 	.word	0xffffe000

0000bde8 <_malloc_r>:
    bde8:	b5f0      	push	{r4, r5, r6, r7, lr}
    bdea:	464e      	mov	r6, r9
    bdec:	4645      	mov	r5, r8
    bdee:	46de      	mov	lr, fp
    bdf0:	4657      	mov	r7, sl
    bdf2:	b5e0      	push	{r5, r6, r7, lr}
    bdf4:	000d      	movs	r5, r1
    bdf6:	350b      	adds	r5, #11
    bdf8:	0006      	movs	r6, r0
    bdfa:	b083      	sub	sp, #12
    bdfc:	2d16      	cmp	r5, #22
    bdfe:	d822      	bhi.n	be46 <_malloc_r+0x5e>
    be00:	2910      	cmp	r1, #16
    be02:	d900      	bls.n	be06 <_malloc_r+0x1e>
    be04:	e109      	b.n	c01a <_malloc_r+0x232>
    be06:	f000 fb43 	bl	c490 <__malloc_lock>
    be0a:	2510      	movs	r5, #16
    be0c:	2318      	movs	r3, #24
    be0e:	2002      	movs	r0, #2
    be10:	4fc6      	ldr	r7, [pc, #792]	; (c12c <_malloc_r+0x344>)
    be12:	18fb      	adds	r3, r7, r3
    be14:	001a      	movs	r2, r3
    be16:	685c      	ldr	r4, [r3, #4]
    be18:	3a08      	subs	r2, #8
    be1a:	4294      	cmp	r4, r2
    be1c:	d100      	bne.n	be20 <_malloc_r+0x38>
    be1e:	e108      	b.n	c032 <_malloc_r+0x24a>
    be20:	2303      	movs	r3, #3
    be22:	6862      	ldr	r2, [r4, #4]
    be24:	439a      	bics	r2, r3
    be26:	0013      	movs	r3, r2
    be28:	68e2      	ldr	r2, [r4, #12]
    be2a:	68a1      	ldr	r1, [r4, #8]
    be2c:	60ca      	str	r2, [r1, #12]
    be2e:	6091      	str	r1, [r2, #8]
    be30:	2201      	movs	r2, #1
    be32:	18e3      	adds	r3, r4, r3
    be34:	6859      	ldr	r1, [r3, #4]
    be36:	430a      	orrs	r2, r1
    be38:	0030      	movs	r0, r6
    be3a:	605a      	str	r2, [r3, #4]
    be3c:	f000 fb32 	bl	c4a4 <__malloc_unlock>
    be40:	0020      	movs	r0, r4
    be42:	3008      	adds	r0, #8
    be44:	e0ec      	b.n	c020 <_malloc_r+0x238>
    be46:	2307      	movs	r3, #7
    be48:	439d      	bics	r5, r3
    be4a:	d500      	bpl.n	be4e <_malloc_r+0x66>
    be4c:	e0e5      	b.n	c01a <_malloc_r+0x232>
    be4e:	428d      	cmp	r5, r1
    be50:	d200      	bcs.n	be54 <_malloc_r+0x6c>
    be52:	e0e2      	b.n	c01a <_malloc_r+0x232>
    be54:	f000 fb1c 	bl	c490 <__malloc_lock>
    be58:	23fc      	movs	r3, #252	; 0xfc
    be5a:	005b      	lsls	r3, r3, #1
    be5c:	429d      	cmp	r5, r3
    be5e:	d200      	bcs.n	be62 <_malloc_r+0x7a>
    be60:	e1c2      	b.n	c1e8 <_malloc_r+0x400>
    be62:	0a68      	lsrs	r0, r5, #9
    be64:	d100      	bne.n	be68 <_malloc_r+0x80>
    be66:	e14d      	b.n	c104 <_malloc_r+0x31c>
    be68:	2804      	cmp	r0, #4
    be6a:	d900      	bls.n	be6e <_malloc_r+0x86>
    be6c:	e195      	b.n	c19a <_malloc_r+0x3b2>
    be6e:	2338      	movs	r3, #56	; 0x38
    be70:	4698      	mov	r8, r3
    be72:	09a8      	lsrs	r0, r5, #6
    be74:	4480      	add	r8, r0
    be76:	3039      	adds	r0, #57	; 0x39
    be78:	00c1      	lsls	r1, r0, #3
    be7a:	4fac      	ldr	r7, [pc, #688]	; (c12c <_malloc_r+0x344>)
    be7c:	1879      	adds	r1, r7, r1
    be7e:	684c      	ldr	r4, [r1, #4]
    be80:	3908      	subs	r1, #8
    be82:	42a1      	cmp	r1, r4
    be84:	d100      	bne.n	be88 <_malloc_r+0xa0>
    be86:	e0d9      	b.n	c03c <_malloc_r+0x254>
    be88:	2303      	movs	r3, #3
    be8a:	469c      	mov	ip, r3
    be8c:	e005      	b.n	be9a <_malloc_r+0xb2>
    be8e:	2a00      	cmp	r2, #0
    be90:	daca      	bge.n	be28 <_malloc_r+0x40>
    be92:	68e4      	ldr	r4, [r4, #12]
    be94:	42a1      	cmp	r1, r4
    be96:	d100      	bne.n	be9a <_malloc_r+0xb2>
    be98:	e0d0      	b.n	c03c <_malloc_r+0x254>
    be9a:	4662      	mov	r2, ip
    be9c:	6863      	ldr	r3, [r4, #4]
    be9e:	4393      	bics	r3, r2
    bea0:	1b5a      	subs	r2, r3, r5
    bea2:	2a0f      	cmp	r2, #15
    bea4:	ddf3      	ble.n	be8e <_malloc_r+0xa6>
    bea6:	003a      	movs	r2, r7
    bea8:	693c      	ldr	r4, [r7, #16]
    beaa:	3208      	adds	r2, #8
    beac:	4640      	mov	r0, r8
    beae:	4294      	cmp	r4, r2
    beb0:	d000      	beq.n	beb4 <_malloc_r+0xcc>
    beb2:	e0c9      	b.n	c048 <_malloc_r+0x260>
    beb4:	2101      	movs	r1, #1
    beb6:	687b      	ldr	r3, [r7, #4]
    beb8:	1082      	asrs	r2, r0, #2
    beba:	4091      	lsls	r1, r2
    bebc:	4299      	cmp	r1, r3
    bebe:	d800      	bhi.n	bec2 <_malloc_r+0xda>
    bec0:	e0e8      	b.n	c094 <_malloc_r+0x2ac>
    bec2:	2303      	movs	r3, #3
    bec4:	210f      	movs	r1, #15
    bec6:	2000      	movs	r0, #0
    bec8:	68bc      	ldr	r4, [r7, #8]
    beca:	6862      	ldr	r2, [r4, #4]
    becc:	439a      	bics	r2, r3
    bece:	1b53      	subs	r3, r2, r5
    bed0:	4691      	mov	r9, r2
    bed2:	0fda      	lsrs	r2, r3, #31
    bed4:	4299      	cmp	r1, r3
    bed6:	4142      	adcs	r2, r0
    bed8:	0612      	lsls	r2, r2, #24
    beda:	d102      	bne.n	bee2 <_malloc_r+0xfa>
    bedc:	45a9      	cmp	r9, r5
    bede:	d300      	bcc.n	bee2 <_malloc_r+0xfa>
    bee0:	e116      	b.n	c110 <_malloc_r+0x328>
    bee2:	0023      	movs	r3, r4
    bee4:	444b      	add	r3, r9
    bee6:	4a92      	ldr	r2, [pc, #584]	; (c130 <_malloc_r+0x348>)
    bee8:	9301      	str	r3, [sp, #4]
    beea:	4b92      	ldr	r3, [pc, #584]	; (c134 <_malloc_r+0x34c>)
    beec:	4693      	mov	fp, r2
    beee:	681b      	ldr	r3, [r3, #0]
    bef0:	6812      	ldr	r2, [r2, #0]
    bef2:	18eb      	adds	r3, r5, r3
    bef4:	3201      	adds	r2, #1
    bef6:	d100      	bne.n	befa <_malloc_r+0x112>
    bef8:	e1c8      	b.n	c28c <_malloc_r+0x4a4>
    befa:	4a8f      	ldr	r2, [pc, #572]	; (c138 <_malloc_r+0x350>)
    befc:	4694      	mov	ip, r2
    befe:	4463      	add	r3, ip
    bf00:	0b1b      	lsrs	r3, r3, #12
    bf02:	031b      	lsls	r3, r3, #12
    bf04:	9300      	str	r3, [sp, #0]
    bf06:	0030      	movs	r0, r6
    bf08:	9900      	ldr	r1, [sp, #0]
    bf0a:	f001 f8a5 	bl	d058 <_sbrk_r>
    bf0e:	0003      	movs	r3, r0
    bf10:	4680      	mov	r8, r0
    bf12:	3301      	adds	r3, #1
    bf14:	d100      	bne.n	bf18 <_malloc_r+0x130>
    bf16:	e1a8      	b.n	c26a <_malloc_r+0x482>
    bf18:	42bc      	cmp	r4, r7
    bf1a:	d003      	beq.n	bf24 <_malloc_r+0x13c>
    bf1c:	9b01      	ldr	r3, [sp, #4]
    bf1e:	4298      	cmp	r0, r3
    bf20:	d200      	bcs.n	bf24 <_malloc_r+0x13c>
    bf22:	e1a2      	b.n	c26a <_malloc_r+0x482>
    bf24:	4b85      	ldr	r3, [pc, #532]	; (c13c <_malloc_r+0x354>)
    bf26:	001a      	movs	r2, r3
    bf28:	469a      	mov	sl, r3
    bf2a:	6812      	ldr	r2, [r2, #0]
    bf2c:	4694      	mov	ip, r2
    bf2e:	4652      	mov	r2, sl
    bf30:	9b00      	ldr	r3, [sp, #0]
    bf32:	4463      	add	r3, ip
    bf34:	6013      	str	r3, [r2, #0]
    bf36:	9a01      	ldr	r2, [sp, #4]
    bf38:	4542      	cmp	r2, r8
    bf3a:	d100      	bne.n	bf3e <_malloc_r+0x156>
    bf3c:	e198      	b.n	c270 <_malloc_r+0x488>
    bf3e:	465a      	mov	r2, fp
    bf40:	6812      	ldr	r2, [r2, #0]
    bf42:	3201      	adds	r2, #1
    bf44:	d100      	bne.n	bf48 <_malloc_r+0x160>
    bf46:	e19d      	b.n	c284 <_malloc_r+0x49c>
    bf48:	4642      	mov	r2, r8
    bf4a:	9901      	ldr	r1, [sp, #4]
    bf4c:	1a52      	subs	r2, r2, r1
    bf4e:	18d3      	adds	r3, r2, r3
    bf50:	4652      	mov	r2, sl
    bf52:	6013      	str	r3, [r2, #0]
    bf54:	2307      	movs	r3, #7
    bf56:	4642      	mov	r2, r8
    bf58:	4641      	mov	r1, r8
    bf5a:	401a      	ands	r2, r3
    bf5c:	9201      	str	r2, [sp, #4]
    bf5e:	4219      	tst	r1, r3
    bf60:	d100      	bne.n	bf64 <_malloc_r+0x17c>
    bf62:	e19d      	b.n	c2a0 <_malloc_r+0x4b8>
    bf64:	2308      	movs	r3, #8
    bf66:	4698      	mov	r8, r3
    bf68:	1a88      	subs	r0, r1, r2
    bf6a:	4b75      	ldr	r3, [pc, #468]	; (c140 <_malloc_r+0x358>)
    bf6c:	9900      	ldr	r1, [sp, #0]
    bf6e:	4480      	add	r8, r0
    bf70:	4441      	add	r1, r8
    bf72:	1a9b      	subs	r3, r3, r2
    bf74:	1a5b      	subs	r3, r3, r1
    bf76:	051b      	lsls	r3, r3, #20
    bf78:	0d1b      	lsrs	r3, r3, #20
    bf7a:	9100      	str	r1, [sp, #0]
    bf7c:	0030      	movs	r0, r6
    bf7e:	0019      	movs	r1, r3
    bf80:	469b      	mov	fp, r3
    bf82:	f001 f869 	bl	d058 <_sbrk_r>
    bf86:	1c43      	adds	r3, r0, #1
    bf88:	d100      	bne.n	bf8c <_malloc_r+0x1a4>
    bf8a:	e1ce      	b.n	c32a <_malloc_r+0x542>
    bf8c:	4643      	mov	r3, r8
    bf8e:	1ac0      	subs	r0, r0, r3
    bf90:	0003      	movs	r3, r0
    bf92:	445b      	add	r3, fp
    bf94:	9300      	str	r3, [sp, #0]
    bf96:	4653      	mov	r3, sl
    bf98:	4652      	mov	r2, sl
    bf9a:	681b      	ldr	r3, [r3, #0]
    bf9c:	445b      	add	r3, fp
    bf9e:	6013      	str	r3, [r2, #0]
    bfa0:	4642      	mov	r2, r8
    bfa2:	2101      	movs	r1, #1
    bfa4:	4640      	mov	r0, r8
    bfa6:	60ba      	str	r2, [r7, #8]
    bfa8:	9a00      	ldr	r2, [sp, #0]
    bfaa:	430a      	orrs	r2, r1
    bfac:	6042      	str	r2, [r0, #4]
    bfae:	42bc      	cmp	r4, r7
    bfb0:	d100      	bne.n	bfb4 <_malloc_r+0x1cc>
    bfb2:	e198      	b.n	c2e6 <_malloc_r+0x4fe>
    bfb4:	464a      	mov	r2, r9
    bfb6:	2a0f      	cmp	r2, #15
    bfb8:	d800      	bhi.n	bfbc <_malloc_r+0x1d4>
    bfba:	e196      	b.n	c2ea <_malloc_r+0x502>
    bfbc:	2007      	movs	r0, #7
    bfbe:	3a0c      	subs	r2, #12
    bfc0:	4382      	bics	r2, r0
    bfc2:	6860      	ldr	r0, [r4, #4]
    bfc4:	4001      	ands	r1, r0
    bfc6:	2005      	movs	r0, #5
    bfc8:	4311      	orrs	r1, r2
    bfca:	6061      	str	r1, [r4, #4]
    bfcc:	18a1      	adds	r1, r4, r2
    bfce:	6048      	str	r0, [r1, #4]
    bfd0:	6088      	str	r0, [r1, #8]
    bfd2:	2a0f      	cmp	r2, #15
    bfd4:	d900      	bls.n	bfd8 <_malloc_r+0x1f0>
    bfd6:	e19e      	b.n	c316 <_malloc_r+0x52e>
    bfd8:	4642      	mov	r2, r8
    bfda:	4644      	mov	r4, r8
    bfdc:	6852      	ldr	r2, [r2, #4]
    bfde:	4959      	ldr	r1, [pc, #356]	; (c144 <_malloc_r+0x35c>)
    bfe0:	6808      	ldr	r0, [r1, #0]
    bfe2:	4298      	cmp	r0, r3
    bfe4:	d200      	bcs.n	bfe8 <_malloc_r+0x200>
    bfe6:	600b      	str	r3, [r1, #0]
    bfe8:	4957      	ldr	r1, [pc, #348]	; (c148 <_malloc_r+0x360>)
    bfea:	6808      	ldr	r0, [r1, #0]
    bfec:	4298      	cmp	r0, r3
    bfee:	d200      	bcs.n	bff2 <_malloc_r+0x20a>
    bff0:	600b      	str	r3, [r1, #0]
    bff2:	2303      	movs	r3, #3
    bff4:	439a      	bics	r2, r3
    bff6:	42aa      	cmp	r2, r5
    bff8:	4189      	sbcs	r1, r1
    bffa:	1b53      	subs	r3, r2, r5
    bffc:	4249      	negs	r1, r1
    bffe:	42aa      	cmp	r2, r5
    c000:	d306      	bcc.n	c010 <_malloc_r+0x228>
    c002:	200f      	movs	r0, #15
    c004:	0fda      	lsrs	r2, r3, #31
    c006:	4298      	cmp	r0, r3
    c008:	414a      	adcs	r2, r1
    c00a:	0612      	lsls	r2, r2, #24
    c00c:	d100      	bne.n	c010 <_malloc_r+0x228>
    c00e:	e07f      	b.n	c110 <_malloc_r+0x328>
    c010:	0030      	movs	r0, r6
    c012:	f000 fa47 	bl	c4a4 <__malloc_unlock>
    c016:	2000      	movs	r0, #0
    c018:	e002      	b.n	c020 <_malloc_r+0x238>
    c01a:	230c      	movs	r3, #12
    c01c:	2000      	movs	r0, #0
    c01e:	6033      	str	r3, [r6, #0]
    c020:	b003      	add	sp, #12
    c022:	bcf0      	pop	{r4, r5, r6, r7}
    c024:	46bb      	mov	fp, r7
    c026:	46b2      	mov	sl, r6
    c028:	46a9      	mov	r9, r5
    c02a:	46a0      	mov	r8, r4
    c02c:	bcf0      	pop	{r4, r5, r6, r7}
    c02e:	bc02      	pop	{r1}
    c030:	4708      	bx	r1
    c032:	68dc      	ldr	r4, [r3, #12]
    c034:	3002      	adds	r0, #2
    c036:	42a3      	cmp	r3, r4
    c038:	d000      	beq.n	c03c <_malloc_r+0x254>
    c03a:	e6f1      	b.n	be20 <_malloc_r+0x38>
    c03c:	003a      	movs	r2, r7
    c03e:	693c      	ldr	r4, [r7, #16]
    c040:	3208      	adds	r2, #8
    c042:	4294      	cmp	r4, r2
    c044:	d100      	bne.n	c048 <_malloc_r+0x260>
    c046:	e735      	b.n	beb4 <_malloc_r+0xcc>
    c048:	2303      	movs	r3, #3
    c04a:	6861      	ldr	r1, [r4, #4]
    c04c:	4399      	bics	r1, r3
    c04e:	4689      	mov	r9, r1
    c050:	000b      	movs	r3, r1
    c052:	1b49      	subs	r1, r1, r5
    c054:	290f      	cmp	r1, #15
    c056:	dd00      	ble.n	c05a <_malloc_r+0x272>
    c058:	e0ca      	b.n	c1f0 <_malloc_r+0x408>
    c05a:	617a      	str	r2, [r7, #20]
    c05c:	613a      	str	r2, [r7, #16]
    c05e:	2900      	cmp	r1, #0
    c060:	db00      	blt.n	c064 <_malloc_r+0x27c>
    c062:	e6e5      	b.n	be30 <_malloc_r+0x48>
    c064:	2280      	movs	r2, #128	; 0x80
    c066:	0092      	lsls	r2, r2, #2
    c068:	4591      	cmp	r9, r2
    c06a:	d26f      	bcs.n	c14c <_malloc_r+0x364>
    c06c:	0959      	lsrs	r1, r3, #5
    c06e:	08da      	lsrs	r2, r3, #3
    c070:	2301      	movs	r3, #1
    c072:	408b      	lsls	r3, r1
    c074:	00d2      	lsls	r2, r2, #3
    c076:	6879      	ldr	r1, [r7, #4]
    c078:	19d2      	adds	r2, r2, r7
    c07a:	430b      	orrs	r3, r1
    c07c:	6891      	ldr	r1, [r2, #8]
    c07e:	607b      	str	r3, [r7, #4]
    c080:	60e2      	str	r2, [r4, #12]
    c082:	60a1      	str	r1, [r4, #8]
    c084:	6094      	str	r4, [r2, #8]
    c086:	60cc      	str	r4, [r1, #12]
    c088:	2101      	movs	r1, #1
    c08a:	1082      	asrs	r2, r0, #2
    c08c:	4091      	lsls	r1, r2
    c08e:	4299      	cmp	r1, r3
    c090:	d900      	bls.n	c094 <_malloc_r+0x2ac>
    c092:	e716      	b.n	bec2 <_malloc_r+0xda>
    c094:	420b      	tst	r3, r1
    c096:	d105      	bne.n	c0a4 <_malloc_r+0x2bc>
    c098:	2203      	movs	r2, #3
    c09a:	4390      	bics	r0, r2
    c09c:	0049      	lsls	r1, r1, #1
    c09e:	3004      	adds	r0, #4
    c0a0:	420b      	tst	r3, r1
    c0a2:	d0fb      	beq.n	c09c <_malloc_r+0x2b4>
    c0a4:	2303      	movs	r3, #3
    c0a6:	4698      	mov	r8, r3
    c0a8:	00c3      	lsls	r3, r0, #3
    c0aa:	4699      	mov	r9, r3
    c0ac:	44b9      	add	r9, r7
    c0ae:	46cc      	mov	ip, r9
    c0b0:	4682      	mov	sl, r0
    c0b2:	4663      	mov	r3, ip
    c0b4:	68dc      	ldr	r4, [r3, #12]
    c0b6:	45a4      	cmp	ip, r4
    c0b8:	d106      	bne.n	c0c8 <_malloc_r+0x2e0>
    c0ba:	e07a      	b.n	c1b2 <_malloc_r+0x3ca>
    c0bc:	2a00      	cmp	r2, #0
    c0be:	db00      	blt.n	c0c2 <_malloc_r+0x2da>
    c0c0:	e083      	b.n	c1ca <_malloc_r+0x3e2>
    c0c2:	68e4      	ldr	r4, [r4, #12]
    c0c4:	45a4      	cmp	ip, r4
    c0c6:	d074      	beq.n	c1b2 <_malloc_r+0x3ca>
    c0c8:	4642      	mov	r2, r8
    c0ca:	6863      	ldr	r3, [r4, #4]
    c0cc:	4393      	bics	r3, r2
    c0ce:	1b5a      	subs	r2, r3, r5
    c0d0:	2a0f      	cmp	r2, #15
    c0d2:	ddf3      	ble.n	c0bc <_malloc_r+0x2d4>
    c0d4:	2001      	movs	r0, #1
    c0d6:	4680      	mov	r8, r0
    c0d8:	1961      	adds	r1, r4, r5
    c0da:	4305      	orrs	r5, r0
    c0dc:	6065      	str	r5, [r4, #4]
    c0de:	68a0      	ldr	r0, [r4, #8]
    c0e0:	68e5      	ldr	r5, [r4, #12]
    c0e2:	60c5      	str	r5, [r0, #12]
    c0e4:	60a8      	str	r0, [r5, #8]
    c0e6:	4640      	mov	r0, r8
    c0e8:	6179      	str	r1, [r7, #20]
    c0ea:	6139      	str	r1, [r7, #16]
    c0ec:	4310      	orrs	r0, r2
    c0ee:	3708      	adds	r7, #8
    c0f0:	6048      	str	r0, [r1, #4]
    c0f2:	60cf      	str	r7, [r1, #12]
    c0f4:	0030      	movs	r0, r6
    c0f6:	608f      	str	r7, [r1, #8]
    c0f8:	50e2      	str	r2, [r4, r3]
    c0fa:	f000 f9d3 	bl	c4a4 <__malloc_unlock>
    c0fe:	0020      	movs	r0, r4
    c100:	3008      	adds	r0, #8
    c102:	e78d      	b.n	c020 <_malloc_r+0x238>
    c104:	2180      	movs	r1, #128	; 0x80
    c106:	233f      	movs	r3, #63	; 0x3f
    c108:	2040      	movs	r0, #64	; 0x40
    c10a:	4698      	mov	r8, r3
    c10c:	0089      	lsls	r1, r1, #2
    c10e:	e6b4      	b.n	be7a <_malloc_r+0x92>
    c110:	2201      	movs	r2, #1
    c112:	0029      	movs	r1, r5
    c114:	4313      	orrs	r3, r2
    c116:	4311      	orrs	r1, r2
    c118:	1965      	adds	r5, r4, r5
    c11a:	6061      	str	r1, [r4, #4]
    c11c:	0030      	movs	r0, r6
    c11e:	60bd      	str	r5, [r7, #8]
    c120:	606b      	str	r3, [r5, #4]
    c122:	f000 f9bf 	bl	c4a4 <__malloc_unlock>
    c126:	0020      	movs	r0, r4
    c128:	3008      	adds	r0, #8
    c12a:	e779      	b.n	c020 <_malloc_r+0x238>
    c12c:	0002163c 	.word	0x0002163c
    c130:	00021a44 	.word	0x00021a44
    c134:	00021c28 	.word	0x00021c28
    c138:	0000100f 	.word	0x0000100f
    c13c:	00021bf8 	.word	0x00021bf8
    c140:	00001008 	.word	0x00001008
    c144:	00021c20 	.word	0x00021c20
    c148:	00021c24 	.word	0x00021c24
    c14c:	0a5a      	lsrs	r2, r3, #9
    c14e:	2a04      	cmp	r2, #4
    c150:	d961      	bls.n	c216 <_malloc_r+0x42e>
    c152:	2a14      	cmp	r2, #20
    c154:	d900      	bls.n	c158 <_malloc_r+0x370>
    c156:	e0b3      	b.n	c2c0 <_malloc_r+0x4d8>
    c158:	0011      	movs	r1, r2
    c15a:	325c      	adds	r2, #92	; 0x5c
    c15c:	315b      	adds	r1, #91	; 0x5b
    c15e:	00d2      	lsls	r2, r2, #3
    c160:	2308      	movs	r3, #8
    c162:	425b      	negs	r3, r3
    c164:	469c      	mov	ip, r3
    c166:	18ba      	adds	r2, r7, r2
    c168:	4494      	add	ip, r2
    c16a:	4663      	mov	r3, ip
    c16c:	689a      	ldr	r2, [r3, #8]
    c16e:	2303      	movs	r3, #3
    c170:	4698      	mov	r8, r3
    c172:	4594      	cmp	ip, r2
    c174:	d100      	bne.n	c178 <_malloc_r+0x390>
    c176:	e08c      	b.n	c292 <_malloc_r+0x4aa>
    c178:	4643      	mov	r3, r8
    c17a:	6851      	ldr	r1, [r2, #4]
    c17c:	4399      	bics	r1, r3
    c17e:	4549      	cmp	r1, r9
    c180:	d902      	bls.n	c188 <_malloc_r+0x3a0>
    c182:	6892      	ldr	r2, [r2, #8]
    c184:	4594      	cmp	ip, r2
    c186:	d1f7      	bne.n	c178 <_malloc_r+0x390>
    c188:	68d3      	ldr	r3, [r2, #12]
    c18a:	469c      	mov	ip, r3
    c18c:	687b      	ldr	r3, [r7, #4]
    c18e:	4661      	mov	r1, ip
    c190:	60a2      	str	r2, [r4, #8]
    c192:	60e1      	str	r1, [r4, #12]
    c194:	608c      	str	r4, [r1, #8]
    c196:	60d4      	str	r4, [r2, #12]
    c198:	e776      	b.n	c088 <_malloc_r+0x2a0>
    c19a:	2814      	cmp	r0, #20
    c19c:	d941      	bls.n	c222 <_malloc_r+0x43a>
    c19e:	2854      	cmp	r0, #84	; 0x54
    c1a0:	d900      	bls.n	c1a4 <_malloc_r+0x3bc>
    c1a2:	e095      	b.n	c2d0 <_malloc_r+0x4e8>
    c1a4:	236e      	movs	r3, #110	; 0x6e
    c1a6:	4698      	mov	r8, r3
    c1a8:	0b28      	lsrs	r0, r5, #12
    c1aa:	4480      	add	r8, r0
    c1ac:	306f      	adds	r0, #111	; 0x6f
    c1ae:	00c1      	lsls	r1, r0, #3
    c1b0:	e663      	b.n	be7a <_malloc_r+0x92>
    c1b2:	2308      	movs	r3, #8
    c1b4:	469b      	mov	fp, r3
    c1b6:	3b07      	subs	r3, #7
    c1b8:	44dc      	add	ip, fp
    c1ba:	469b      	mov	fp, r3
    c1bc:	44da      	add	sl, fp
    c1be:	4643      	mov	r3, r8
    c1c0:	4652      	mov	r2, sl
    c1c2:	4213      	tst	r3, r2
    c1c4:	d000      	beq.n	c1c8 <_malloc_r+0x3e0>
    c1c6:	e774      	b.n	c0b2 <_malloc_r+0x2ca>
    c1c8:	e03b      	b.n	c242 <_malloc_r+0x45a>
    c1ca:	2201      	movs	r2, #1
    c1cc:	18e3      	adds	r3, r4, r3
    c1ce:	6859      	ldr	r1, [r3, #4]
    c1d0:	430a      	orrs	r2, r1
    c1d2:	605a      	str	r2, [r3, #4]
    c1d4:	68e3      	ldr	r3, [r4, #12]
    c1d6:	68a2      	ldr	r2, [r4, #8]
    c1d8:	0030      	movs	r0, r6
    c1da:	60d3      	str	r3, [r2, #12]
    c1dc:	609a      	str	r2, [r3, #8]
    c1de:	f000 f961 	bl	c4a4 <__malloc_unlock>
    c1e2:	0020      	movs	r0, r4
    c1e4:	3008      	adds	r0, #8
    c1e6:	e71b      	b.n	c020 <_malloc_r+0x238>
    c1e8:	002b      	movs	r3, r5
    c1ea:	08e8      	lsrs	r0, r5, #3
    c1ec:	3308      	adds	r3, #8
    c1ee:	e60f      	b.n	be10 <_malloc_r+0x28>
    c1f0:	2301      	movs	r3, #1
    c1f2:	1960      	adds	r0, r4, r5
    c1f4:	431d      	orrs	r5, r3
    c1f6:	6065      	str	r5, [r4, #4]
    c1f8:	6178      	str	r0, [r7, #20]
    c1fa:	6138      	str	r0, [r7, #16]
    c1fc:	60c2      	str	r2, [r0, #12]
    c1fe:	6082      	str	r2, [r0, #8]
    c200:	001a      	movs	r2, r3
    c202:	464b      	mov	r3, r9
    c204:	430a      	orrs	r2, r1
    c206:	6042      	str	r2, [r0, #4]
    c208:	0030      	movs	r0, r6
    c20a:	50e1      	str	r1, [r4, r3]
    c20c:	f000 f94a 	bl	c4a4 <__malloc_unlock>
    c210:	0020      	movs	r0, r4
    c212:	3008      	adds	r0, #8
    c214:	e704      	b.n	c020 <_malloc_r+0x238>
    c216:	099a      	lsrs	r2, r3, #6
    c218:	0011      	movs	r1, r2
    c21a:	3239      	adds	r2, #57	; 0x39
    c21c:	3138      	adds	r1, #56	; 0x38
    c21e:	00d2      	lsls	r2, r2, #3
    c220:	e79e      	b.n	c160 <_malloc_r+0x378>
    c222:	235b      	movs	r3, #91	; 0x5b
    c224:	4698      	mov	r8, r3
    c226:	4480      	add	r8, r0
    c228:	305c      	adds	r0, #92	; 0x5c
    c22a:	00c1      	lsls	r1, r0, #3
    c22c:	e625      	b.n	be7a <_malloc_r+0x92>
    c22e:	2308      	movs	r3, #8
    c230:	425b      	negs	r3, r3
    c232:	469c      	mov	ip, r3
    c234:	44e1      	add	r9, ip
    c236:	464b      	mov	r3, r9
    c238:	689b      	ldr	r3, [r3, #8]
    c23a:	3801      	subs	r0, #1
    c23c:	454b      	cmp	r3, r9
    c23e:	d000      	beq.n	c242 <_malloc_r+0x45a>
    c240:	e091      	b.n	c366 <_malloc_r+0x57e>
    c242:	4643      	mov	r3, r8
    c244:	4203      	tst	r3, r0
    c246:	d1f2      	bne.n	c22e <_malloc_r+0x446>
    c248:	687b      	ldr	r3, [r7, #4]
    c24a:	438b      	bics	r3, r1
    c24c:	607b      	str	r3, [r7, #4]
    c24e:	0049      	lsls	r1, r1, #1
    c250:	d100      	bne.n	c254 <_malloc_r+0x46c>
    c252:	e636      	b.n	bec2 <_malloc_r+0xda>
    c254:	428b      	cmp	r3, r1
    c256:	d204      	bcs.n	c262 <_malloc_r+0x47a>
    c258:	e633      	b.n	bec2 <_malloc_r+0xda>
    c25a:	2204      	movs	r2, #4
    c25c:	4694      	mov	ip, r2
    c25e:	0049      	lsls	r1, r1, #1
    c260:	44e2      	add	sl, ip
    c262:	420b      	tst	r3, r1
    c264:	d0f9      	beq.n	c25a <_malloc_r+0x472>
    c266:	4650      	mov	r0, sl
    c268:	e71e      	b.n	c0a8 <_malloc_r+0x2c0>
    c26a:	68bc      	ldr	r4, [r7, #8]
    c26c:	6862      	ldr	r2, [r4, #4]
    c26e:	e6c0      	b.n	bff2 <_malloc_r+0x20a>
    c270:	0512      	lsls	r2, r2, #20
    c272:	d000      	beq.n	c276 <_malloc_r+0x48e>
    c274:	e663      	b.n	bf3e <_malloc_r+0x156>
    c276:	2101      	movs	r1, #1
    c278:	9a00      	ldr	r2, [sp, #0]
    c27a:	68bc      	ldr	r4, [r7, #8]
    c27c:	444a      	add	r2, r9
    c27e:	430a      	orrs	r2, r1
    c280:	6062      	str	r2, [r4, #4]
    c282:	e6ac      	b.n	bfde <_malloc_r+0x1f6>
    c284:	465b      	mov	r3, fp
    c286:	4642      	mov	r2, r8
    c288:	601a      	str	r2, [r3, #0]
    c28a:	e663      	b.n	bf54 <_malloc_r+0x16c>
    c28c:	3310      	adds	r3, #16
    c28e:	9300      	str	r3, [sp, #0]
    c290:	e639      	b.n	bf06 <_malloc_r+0x11e>
    c292:	1089      	asrs	r1, r1, #2
    c294:	3b02      	subs	r3, #2
    c296:	408b      	lsls	r3, r1
    c298:	6879      	ldr	r1, [r7, #4]
    c29a:	430b      	orrs	r3, r1
    c29c:	607b      	str	r3, [r7, #4]
    c29e:	e776      	b.n	c18e <_malloc_r+0x3a6>
    c2a0:	9b00      	ldr	r3, [sp, #0]
    c2a2:	4443      	add	r3, r8
    c2a4:	425b      	negs	r3, r3
    c2a6:	051b      	lsls	r3, r3, #20
    c2a8:	0d1b      	lsrs	r3, r3, #20
    c2aa:	0019      	movs	r1, r3
    c2ac:	0030      	movs	r0, r6
    c2ae:	469b      	mov	fp, r3
    c2b0:	f000 fed2 	bl	d058 <_sbrk_r>
    c2b4:	1c43      	adds	r3, r0, #1
    c2b6:	d000      	beq.n	c2ba <_malloc_r+0x4d2>
    c2b8:	e668      	b.n	bf8c <_malloc_r+0x1a4>
    c2ba:	2300      	movs	r3, #0
    c2bc:	469b      	mov	fp, r3
    c2be:	e66a      	b.n	bf96 <_malloc_r+0x1ae>
    c2c0:	2a54      	cmp	r2, #84	; 0x54
    c2c2:	d814      	bhi.n	c2ee <_malloc_r+0x506>
    c2c4:	0b1a      	lsrs	r2, r3, #12
    c2c6:	0011      	movs	r1, r2
    c2c8:	326f      	adds	r2, #111	; 0x6f
    c2ca:	316e      	adds	r1, #110	; 0x6e
    c2cc:	00d2      	lsls	r2, r2, #3
    c2ce:	e747      	b.n	c160 <_malloc_r+0x378>
    c2d0:	23aa      	movs	r3, #170	; 0xaa
    c2d2:	005b      	lsls	r3, r3, #1
    c2d4:	4298      	cmp	r0, r3
    c2d6:	d814      	bhi.n	c302 <_malloc_r+0x51a>
    c2d8:	3bdd      	subs	r3, #221	; 0xdd
    c2da:	4698      	mov	r8, r3
    c2dc:	0be8      	lsrs	r0, r5, #15
    c2de:	4480      	add	r8, r0
    c2e0:	3078      	adds	r0, #120	; 0x78
    c2e2:	00c1      	lsls	r1, r0, #3
    c2e4:	e5c9      	b.n	be7a <_malloc_r+0x92>
    c2e6:	4644      	mov	r4, r8
    c2e8:	e679      	b.n	bfde <_malloc_r+0x1f6>
    c2ea:	6041      	str	r1, [r0, #4]
    c2ec:	e690      	b.n	c010 <_malloc_r+0x228>
    c2ee:	21aa      	movs	r1, #170	; 0xaa
    c2f0:	0049      	lsls	r1, r1, #1
    c2f2:	428a      	cmp	r2, r1
    c2f4:	d824      	bhi.n	c340 <_malloc_r+0x558>
    c2f6:	0bda      	lsrs	r2, r3, #15
    c2f8:	0011      	movs	r1, r2
    c2fa:	3278      	adds	r2, #120	; 0x78
    c2fc:	3177      	adds	r1, #119	; 0x77
    c2fe:	00d2      	lsls	r2, r2, #3
    c300:	e72e      	b.n	c160 <_malloc_r+0x378>
    c302:	4b1a      	ldr	r3, [pc, #104]	; (c36c <_malloc_r+0x584>)
    c304:	4298      	cmp	r0, r3
    c306:	d824      	bhi.n	c352 <_malloc_r+0x56a>
    c308:	237c      	movs	r3, #124	; 0x7c
    c30a:	4698      	mov	r8, r3
    c30c:	0ca8      	lsrs	r0, r5, #18
    c30e:	4480      	add	r8, r0
    c310:	307d      	adds	r0, #125	; 0x7d
    c312:	00c1      	lsls	r1, r0, #3
    c314:	e5b1      	b.n	be7a <_malloc_r+0x92>
    c316:	0021      	movs	r1, r4
    c318:	0030      	movs	r0, r6
    c31a:	3108      	adds	r1, #8
    c31c:	f7ff fb6e 	bl	b9fc <_free_r>
    c320:	4653      	mov	r3, sl
    c322:	68bc      	ldr	r4, [r7, #8]
    c324:	681b      	ldr	r3, [r3, #0]
    c326:	6862      	ldr	r2, [r4, #4]
    c328:	e659      	b.n	bfde <_malloc_r+0x1f6>
    c32a:	9a00      	ldr	r2, [sp, #0]
    c32c:	4694      	mov	ip, r2
    c32e:	4642      	mov	r2, r8
    c330:	9b01      	ldr	r3, [sp, #4]
    c332:	3b08      	subs	r3, #8
    c334:	4463      	add	r3, ip
    c336:	1a9b      	subs	r3, r3, r2
    c338:	9300      	str	r3, [sp, #0]
    c33a:	2300      	movs	r3, #0
    c33c:	469b      	mov	fp, r3
    c33e:	e62a      	b.n	bf96 <_malloc_r+0x1ae>
    c340:	490a      	ldr	r1, [pc, #40]	; (c36c <_malloc_r+0x584>)
    c342:	428a      	cmp	r2, r1
    c344:	d80b      	bhi.n	c35e <_malloc_r+0x576>
    c346:	0c9a      	lsrs	r2, r3, #18
    c348:	0011      	movs	r1, r2
    c34a:	327d      	adds	r2, #125	; 0x7d
    c34c:	317c      	adds	r1, #124	; 0x7c
    c34e:	00d2      	lsls	r2, r2, #3
    c350:	e706      	b.n	c160 <_malloc_r+0x378>
    c352:	21fe      	movs	r1, #254	; 0xfe
    c354:	237e      	movs	r3, #126	; 0x7e
    c356:	207f      	movs	r0, #127	; 0x7f
    c358:	4698      	mov	r8, r3
    c35a:	0089      	lsls	r1, r1, #2
    c35c:	e58d      	b.n	be7a <_malloc_r+0x92>
    c35e:	22fe      	movs	r2, #254	; 0xfe
    c360:	217e      	movs	r1, #126	; 0x7e
    c362:	0092      	lsls	r2, r2, #2
    c364:	e6fc      	b.n	c160 <_malloc_r+0x378>
    c366:	687b      	ldr	r3, [r7, #4]
    c368:	e771      	b.n	c24e <_malloc_r+0x466>
    c36a:	46c0      	nop			; (mov r8, r8)
    c36c:	00000554 	.word	0x00000554

0000c370 <memchr>:
    c370:	b570      	push	{r4, r5, r6, lr}
    c372:	060c      	lsls	r4, r1, #24
    c374:	0e24      	lsrs	r4, r4, #24
    c376:	0783      	lsls	r3, r0, #30
    c378:	d00f      	beq.n	c39a <memchr+0x2a>
    c37a:	1e53      	subs	r3, r2, #1
    c37c:	2a00      	cmp	r2, #0
    c37e:	d011      	beq.n	c3a4 <memchr+0x34>
    c380:	2503      	movs	r5, #3
    c382:	e004      	b.n	c38e <memchr+0x1e>
    c384:	3001      	adds	r0, #1
    c386:	4228      	tst	r0, r5
    c388:	d008      	beq.n	c39c <memchr+0x2c>
    c38a:	3b01      	subs	r3, #1
    c38c:	d30a      	bcc.n	c3a4 <memchr+0x34>
    c38e:	7802      	ldrb	r2, [r0, #0]
    c390:	42a2      	cmp	r2, r4
    c392:	d1f7      	bne.n	c384 <memchr+0x14>
    c394:	bc70      	pop	{r4, r5, r6}
    c396:	bc02      	pop	{r1}
    c398:	4708      	bx	r1
    c39a:	0013      	movs	r3, r2
    c39c:	2b03      	cmp	r3, #3
    c39e:	d80c      	bhi.n	c3ba <memchr+0x4a>
    c3a0:	2b00      	cmp	r3, #0
    c3a2:	d101      	bne.n	c3a8 <memchr+0x38>
    c3a4:	2000      	movs	r0, #0
    c3a6:	e7f5      	b.n	c394 <memchr+0x24>
    c3a8:	18c3      	adds	r3, r0, r3
    c3aa:	e002      	b.n	c3b2 <memchr+0x42>
    c3ac:	3001      	adds	r0, #1
    c3ae:	4283      	cmp	r3, r0
    c3b0:	d0f8      	beq.n	c3a4 <memchr+0x34>
    c3b2:	7802      	ldrb	r2, [r0, #0]
    c3b4:	42a2      	cmp	r2, r4
    c3b6:	d1f9      	bne.n	c3ac <memchr+0x3c>
    c3b8:	e7ec      	b.n	c394 <memchr+0x24>
    c3ba:	25ff      	movs	r5, #255	; 0xff
    c3bc:	4029      	ands	r1, r5
    c3be:	020d      	lsls	r5, r1, #8
    c3c0:	4329      	orrs	r1, r5
    c3c2:	040d      	lsls	r5, r1, #16
    c3c4:	4e06      	ldr	r6, [pc, #24]	; (c3e0 <memchr+0x70>)
    c3c6:	430d      	orrs	r5, r1
    c3c8:	6802      	ldr	r2, [r0, #0]
    c3ca:	4906      	ldr	r1, [pc, #24]	; (c3e4 <memchr+0x74>)
    c3cc:	406a      	eors	r2, r5
    c3ce:	1851      	adds	r1, r2, r1
    c3d0:	4391      	bics	r1, r2
    c3d2:	4231      	tst	r1, r6
    c3d4:	d1e8      	bne.n	c3a8 <memchr+0x38>
    c3d6:	3b04      	subs	r3, #4
    c3d8:	3004      	adds	r0, #4
    c3da:	2b03      	cmp	r3, #3
    c3dc:	d8f4      	bhi.n	c3c8 <memchr+0x58>
    c3de:	e7df      	b.n	c3a0 <memchr+0x30>
    c3e0:	80808080 	.word	0x80808080
    c3e4:	fefefeff 	.word	0xfefefeff

0000c3e8 <memcpy>:
    c3e8:	b5f0      	push	{r4, r5, r6, r7, lr}
    c3ea:	46c6      	mov	lr, r8
    c3ec:	b500      	push	{lr}
    c3ee:	2a0f      	cmp	r2, #15
    c3f0:	d943      	bls.n	c47a <memcpy+0x92>
    c3f2:	2703      	movs	r7, #3
    c3f4:	000d      	movs	r5, r1
    c3f6:	003e      	movs	r6, r7
    c3f8:	4305      	orrs	r5, r0
    c3fa:	000c      	movs	r4, r1
    c3fc:	0003      	movs	r3, r0
    c3fe:	402e      	ands	r6, r5
    c400:	422f      	tst	r7, r5
    c402:	d13f      	bne.n	c484 <memcpy+0x9c>
    c404:	0015      	movs	r5, r2
    c406:	3d10      	subs	r5, #16
    c408:	092d      	lsrs	r5, r5, #4
    c40a:	46a8      	mov	r8, r5
    c40c:	012d      	lsls	r5, r5, #4
    c40e:	46ac      	mov	ip, r5
    c410:	4484      	add	ip, r0
    c412:	6827      	ldr	r7, [r4, #0]
    c414:	601f      	str	r7, [r3, #0]
    c416:	6867      	ldr	r7, [r4, #4]
    c418:	605f      	str	r7, [r3, #4]
    c41a:	68a7      	ldr	r7, [r4, #8]
    c41c:	609f      	str	r7, [r3, #8]
    c41e:	68e7      	ldr	r7, [r4, #12]
    c420:	001d      	movs	r5, r3
    c422:	60df      	str	r7, [r3, #12]
    c424:	3410      	adds	r4, #16
    c426:	3310      	adds	r3, #16
    c428:	4565      	cmp	r5, ip
    c42a:	d1f2      	bne.n	c412 <memcpy+0x2a>
    c42c:	4645      	mov	r5, r8
    c42e:	230f      	movs	r3, #15
    c430:	240c      	movs	r4, #12
    c432:	3501      	adds	r5, #1
    c434:	012d      	lsls	r5, r5, #4
    c436:	1949      	adds	r1, r1, r5
    c438:	4013      	ands	r3, r2
    c43a:	1945      	adds	r5, r0, r5
    c43c:	4214      	tst	r4, r2
    c43e:	d024      	beq.n	c48a <memcpy+0xa2>
    c440:	598c      	ldr	r4, [r1, r6]
    c442:	51ac      	str	r4, [r5, r6]
    c444:	3604      	adds	r6, #4
    c446:	1b9c      	subs	r4, r3, r6
    c448:	2c03      	cmp	r4, #3
    c44a:	d8f9      	bhi.n	c440 <memcpy+0x58>
    c44c:	3b04      	subs	r3, #4
    c44e:	089b      	lsrs	r3, r3, #2
    c450:	3301      	adds	r3, #1
    c452:	009b      	lsls	r3, r3, #2
    c454:	18ed      	adds	r5, r5, r3
    c456:	18c9      	adds	r1, r1, r3
    c458:	2303      	movs	r3, #3
    c45a:	401a      	ands	r2, r3
    c45c:	1e56      	subs	r6, r2, #1
    c45e:	2a00      	cmp	r2, #0
    c460:	d006      	beq.n	c470 <memcpy+0x88>
    c462:	2300      	movs	r3, #0
    c464:	5ccc      	ldrb	r4, [r1, r3]
    c466:	001a      	movs	r2, r3
    c468:	54ec      	strb	r4, [r5, r3]
    c46a:	3301      	adds	r3, #1
    c46c:	4296      	cmp	r6, r2
    c46e:	d1f9      	bne.n	c464 <memcpy+0x7c>
    c470:	bc80      	pop	{r7}
    c472:	46b8      	mov	r8, r7
    c474:	bcf0      	pop	{r4, r5, r6, r7}
    c476:	bc02      	pop	{r1}
    c478:	4708      	bx	r1
    c47a:	0005      	movs	r5, r0
    c47c:	1e56      	subs	r6, r2, #1
    c47e:	2a00      	cmp	r2, #0
    c480:	d1ef      	bne.n	c462 <memcpy+0x7a>
    c482:	e7f5      	b.n	c470 <memcpy+0x88>
    c484:	0005      	movs	r5, r0
    c486:	1e56      	subs	r6, r2, #1
    c488:	e7eb      	b.n	c462 <memcpy+0x7a>
    c48a:	001a      	movs	r2, r3
    c48c:	e7f6      	b.n	c47c <memcpy+0x94>
    c48e:	46c0      	nop			; (mov r8, r8)

0000c490 <__malloc_lock>:
    c490:	b510      	push	{r4, lr}
    c492:	4803      	ldr	r0, [pc, #12]	; (c4a0 <__malloc_lock+0x10>)
    c494:	f7ff fbf6 	bl	bc84 <__retarget_lock_acquire_recursive>
    c498:	bc10      	pop	{r4}
    c49a:	bc01      	pop	{r0}
    c49c:	4700      	bx	r0
    c49e:	46c0      	nop			; (mov r8, r8)
    c4a0:	00021be8 	.word	0x00021be8

0000c4a4 <__malloc_unlock>:
    c4a4:	b510      	push	{r4, lr}
    c4a6:	4803      	ldr	r0, [pc, #12]	; (c4b4 <__malloc_unlock+0x10>)
    c4a8:	f7ff fbf4 	bl	bc94 <__retarget_lock_release_recursive>
    c4ac:	bc10      	pop	{r4}
    c4ae:	bc01      	pop	{r0}
    c4b0:	4700      	bx	r0
    c4b2:	46c0      	nop			; (mov r8, r8)
    c4b4:	00021be8 	.word	0x00021be8

0000c4b8 <_Balloc>:
    c4b8:	6cc3      	ldr	r3, [r0, #76]	; 0x4c
    c4ba:	b570      	push	{r4, r5, r6, lr}
    c4bc:	0004      	movs	r4, r0
    c4be:	000d      	movs	r5, r1
    c4c0:	2b00      	cmp	r3, #0
    c4c2:	d00c      	beq.n	c4de <_Balloc+0x26>
    c4c4:	00a8      	lsls	r0, r5, #2
    c4c6:	181b      	adds	r3, r3, r0
    c4c8:	6818      	ldr	r0, [r3, #0]
    c4ca:	2800      	cmp	r0, #0
    c4cc:	d010      	beq.n	c4f0 <_Balloc+0x38>
    c4ce:	6802      	ldr	r2, [r0, #0]
    c4d0:	601a      	str	r2, [r3, #0]
    c4d2:	2300      	movs	r3, #0
    c4d4:	6103      	str	r3, [r0, #16]
    c4d6:	60c3      	str	r3, [r0, #12]
    c4d8:	bc70      	pop	{r4, r5, r6}
    c4da:	bc02      	pop	{r1}
    c4dc:	4708      	bx	r1
    c4de:	2221      	movs	r2, #33	; 0x21
    c4e0:	2104      	movs	r1, #4
    c4e2:	f001 fead 	bl	e240 <_calloc_r>
    c4e6:	1e03      	subs	r3, r0, #0
    c4e8:	64e0      	str	r0, [r4, #76]	; 0x4c
    c4ea:	d1eb      	bne.n	c4c4 <_Balloc+0xc>
    c4ec:	2000      	movs	r0, #0
    c4ee:	e7f3      	b.n	c4d8 <_Balloc+0x20>
    c4f0:	2601      	movs	r6, #1
    c4f2:	40ae      	lsls	r6, r5
    c4f4:	1d72      	adds	r2, r6, #5
    c4f6:	2101      	movs	r1, #1
    c4f8:	0020      	movs	r0, r4
    c4fa:	0092      	lsls	r2, r2, #2
    c4fc:	f001 fea0 	bl	e240 <_calloc_r>
    c500:	2800      	cmp	r0, #0
    c502:	d0f3      	beq.n	c4ec <_Balloc+0x34>
    c504:	6045      	str	r5, [r0, #4]
    c506:	6086      	str	r6, [r0, #8]
    c508:	e7e3      	b.n	c4d2 <_Balloc+0x1a>
    c50a:	46c0      	nop			; (mov r8, r8)

0000c50c <_Bfree>:
    c50c:	2900      	cmp	r1, #0
    c50e:	d006      	beq.n	c51e <_Bfree+0x12>
    c510:	684b      	ldr	r3, [r1, #4]
    c512:	009a      	lsls	r2, r3, #2
    c514:	6cc3      	ldr	r3, [r0, #76]	; 0x4c
    c516:	189b      	adds	r3, r3, r2
    c518:	681a      	ldr	r2, [r3, #0]
    c51a:	600a      	str	r2, [r1, #0]
    c51c:	6019      	str	r1, [r3, #0]
    c51e:	4770      	bx	lr

0000c520 <__multadd>:
    c520:	b5f0      	push	{r4, r5, r6, r7, lr}
    c522:	46c6      	mov	lr, r8
    c524:	001f      	movs	r7, r3
    c526:	4680      	mov	r8, r0
    c528:	2300      	movs	r3, #0
    c52a:	b500      	push	{lr}
    c52c:	000e      	movs	r6, r1
    c52e:	690d      	ldr	r5, [r1, #16]
    c530:	3114      	adds	r1, #20
    c532:	680c      	ldr	r4, [r1, #0]
    c534:	0420      	lsls	r0, r4, #16
    c536:	0c00      	lsrs	r0, r0, #16
    c538:	4350      	muls	r0, r2
    c53a:	0c24      	lsrs	r4, r4, #16
    c53c:	4354      	muls	r4, r2
    c53e:	19c0      	adds	r0, r0, r7
    c540:	0c07      	lsrs	r7, r0, #16
    c542:	19e4      	adds	r4, r4, r7
    c544:	0400      	lsls	r0, r0, #16
    c546:	0c27      	lsrs	r7, r4, #16
    c548:	0c00      	lsrs	r0, r0, #16
    c54a:	0424      	lsls	r4, r4, #16
    c54c:	1824      	adds	r4, r4, r0
    c54e:	3301      	adds	r3, #1
    c550:	c110      	stmia	r1!, {r4}
    c552:	429d      	cmp	r5, r3
    c554:	dced      	bgt.n	c532 <__multadd+0x12>
    c556:	2f00      	cmp	r7, #0
    c558:	d008      	beq.n	c56c <__multadd+0x4c>
    c55a:	68b3      	ldr	r3, [r6, #8]
    c55c:	42ab      	cmp	r3, r5
    c55e:	dd0b      	ble.n	c578 <__multadd+0x58>
    c560:	1d2b      	adds	r3, r5, #4
    c562:	009b      	lsls	r3, r3, #2
    c564:	18f3      	adds	r3, r6, r3
    c566:	3501      	adds	r5, #1
    c568:	605f      	str	r7, [r3, #4]
    c56a:	6135      	str	r5, [r6, #16]
    c56c:	0030      	movs	r0, r6
    c56e:	bc80      	pop	{r7}
    c570:	46b8      	mov	r8, r7
    c572:	bcf0      	pop	{r4, r5, r6, r7}
    c574:	bc02      	pop	{r1}
    c576:	4708      	bx	r1
    c578:	6873      	ldr	r3, [r6, #4]
    c57a:	4640      	mov	r0, r8
    c57c:	1c59      	adds	r1, r3, #1
    c57e:	f7ff ff9b 	bl	c4b8 <_Balloc>
    c582:	1e04      	subs	r4, r0, #0
    c584:	d017      	beq.n	c5b6 <__multadd+0x96>
    c586:	0031      	movs	r1, r6
    c588:	6933      	ldr	r3, [r6, #16]
    c58a:	1c9a      	adds	r2, r3, #2
    c58c:	0092      	lsls	r2, r2, #2
    c58e:	310c      	adds	r1, #12
    c590:	300c      	adds	r0, #12
    c592:	f7ff ff29 	bl	c3e8 <memcpy>
    c596:	6873      	ldr	r3, [r6, #4]
    c598:	009a      	lsls	r2, r3, #2
    c59a:	4643      	mov	r3, r8
    c59c:	6cdb      	ldr	r3, [r3, #76]	; 0x4c
    c59e:	189b      	adds	r3, r3, r2
    c5a0:	681a      	ldr	r2, [r3, #0]
    c5a2:	6032      	str	r2, [r6, #0]
    c5a4:	601e      	str	r6, [r3, #0]
    c5a6:	0026      	movs	r6, r4
    c5a8:	1d2b      	adds	r3, r5, #4
    c5aa:	009b      	lsls	r3, r3, #2
    c5ac:	18f3      	adds	r3, r6, r3
    c5ae:	3501      	adds	r5, #1
    c5b0:	605f      	str	r7, [r3, #4]
    c5b2:	6135      	str	r5, [r6, #16]
    c5b4:	e7da      	b.n	c56c <__multadd+0x4c>
    c5b6:	2200      	movs	r2, #0
    c5b8:	21b5      	movs	r1, #181	; 0xb5
    c5ba:	4b02      	ldr	r3, [pc, #8]	; (c5c4 <__multadd+0xa4>)
    c5bc:	4802      	ldr	r0, [pc, #8]	; (c5c8 <__multadd+0xa8>)
    c5be:	f001 fe19 	bl	e1f4 <__assert_func>
    c5c2:	46c0      	nop			; (mov r8, r8)
    c5c4:	00010cb4 	.word	0x00010cb4
    c5c8:	00010d48 	.word	0x00010d48

0000c5cc <__s2b>:
    c5cc:	b5f8      	push	{r3, r4, r5, r6, r7, lr}
    c5ce:	4647      	mov	r7, r8
    c5d0:	46ce      	mov	lr, r9
    c5d2:	0006      	movs	r6, r0
    c5d4:	0018      	movs	r0, r3
    c5d6:	b580      	push	{r7, lr}
    c5d8:	000c      	movs	r4, r1
    c5da:	3008      	adds	r0, #8
    c5dc:	2109      	movs	r1, #9
    c5de:	001f      	movs	r7, r3
    c5e0:	4690      	mov	r8, r2
    c5e2:	f004 fa1b 	bl	10a1c <____aeabi_idiv_from_thumb>
    c5e6:	2f09      	cmp	r7, #9
    c5e8:	dd3d      	ble.n	c666 <__s2b+0x9a>
    c5ea:	2501      	movs	r5, #1
    c5ec:	2100      	movs	r1, #0
    c5ee:	006d      	lsls	r5, r5, #1
    c5f0:	3101      	adds	r1, #1
    c5f2:	42a8      	cmp	r0, r5
    c5f4:	dcfb      	bgt.n	c5ee <__s2b+0x22>
    c5f6:	0030      	movs	r0, r6
    c5f8:	f7ff ff5e 	bl	c4b8 <_Balloc>
    c5fc:	1e01      	subs	r1, r0, #0
    c5fe:	d034      	beq.n	c66a <__s2b+0x9e>
    c600:	9b08      	ldr	r3, [sp, #32]
    c602:	6143      	str	r3, [r0, #20]
    c604:	2301      	movs	r3, #1
    c606:	6103      	str	r3, [r0, #16]
    c608:	4643      	mov	r3, r8
    c60a:	2b09      	cmp	r3, #9
    c60c:	dc18      	bgt.n	c640 <__s2b+0x74>
    c60e:	2309      	movs	r3, #9
    c610:	4698      	mov	r8, r3
    c612:	340a      	adds	r4, #10
    c614:	4547      	cmp	r7, r8
    c616:	dd0c      	ble.n	c632 <__s2b+0x66>
    c618:	4643      	mov	r3, r8
    c61a:	19e7      	adds	r7, r4, r7
    c61c:	1aff      	subs	r7, r7, r3
    c61e:	7823      	ldrb	r3, [r4, #0]
    c620:	220a      	movs	r2, #10
    c622:	0030      	movs	r0, r6
    c624:	3b30      	subs	r3, #48	; 0x30
    c626:	f7ff ff7b 	bl	c520 <__multadd>
    c62a:	3401      	adds	r4, #1
    c62c:	0001      	movs	r1, r0
    c62e:	42bc      	cmp	r4, r7
    c630:	d1f5      	bne.n	c61e <__s2b+0x52>
    c632:	0008      	movs	r0, r1
    c634:	bcc0      	pop	{r6, r7}
    c636:	46b9      	mov	r9, r7
    c638:	46b0      	mov	r8, r6
    c63a:	bcf8      	pop	{r3, r4, r5, r6, r7}
    c63c:	bc02      	pop	{r1}
    c63e:	4708      	bx	r1
    c640:	2309      	movs	r3, #9
    c642:	4699      	mov	r9, r3
    c644:	44a1      	add	r9, r4
    c646:	464d      	mov	r5, r9
    c648:	4444      	add	r4, r8
    c64a:	782b      	ldrb	r3, [r5, #0]
    c64c:	220a      	movs	r2, #10
    c64e:	0030      	movs	r0, r6
    c650:	3b30      	subs	r3, #48	; 0x30
    c652:	f7ff ff65 	bl	c520 <__multadd>
    c656:	3501      	adds	r5, #1
    c658:	0001      	movs	r1, r0
    c65a:	42a5      	cmp	r5, r4
    c65c:	d1f5      	bne.n	c64a <__s2b+0x7e>
    c65e:	4644      	mov	r4, r8
    c660:	3c08      	subs	r4, #8
    c662:	444c      	add	r4, r9
    c664:	e7d6      	b.n	c614 <__s2b+0x48>
    c666:	2100      	movs	r1, #0
    c668:	e7c5      	b.n	c5f6 <__s2b+0x2a>
    c66a:	2200      	movs	r2, #0
    c66c:	4b02      	ldr	r3, [pc, #8]	; (c678 <__s2b+0xac>)
    c66e:	4803      	ldr	r0, [pc, #12]	; (c67c <__s2b+0xb0>)
    c670:	31ce      	adds	r1, #206	; 0xce
    c672:	f001 fdbf 	bl	e1f4 <__assert_func>
    c676:	46c0      	nop			; (mov r8, r8)
    c678:	00010cb4 	.word	0x00010cb4
    c67c:	00010d48 	.word	0x00010d48

0000c680 <__hi0bits>:
    c680:	0003      	movs	r3, r0
    c682:	0c02      	lsrs	r2, r0, #16
    c684:	2000      	movs	r0, #0
    c686:	2a00      	cmp	r2, #0
    c688:	d101      	bne.n	c68e <__hi0bits+0xe>
    c68a:	041b      	lsls	r3, r3, #16
    c68c:	3010      	adds	r0, #16
    c68e:	0e1a      	lsrs	r2, r3, #24
    c690:	d101      	bne.n	c696 <__hi0bits+0x16>
    c692:	3008      	adds	r0, #8
    c694:	021b      	lsls	r3, r3, #8
    c696:	0f1a      	lsrs	r2, r3, #28
    c698:	d101      	bne.n	c69e <__hi0bits+0x1e>
    c69a:	3004      	adds	r0, #4
    c69c:	011b      	lsls	r3, r3, #4
    c69e:	0f9a      	lsrs	r2, r3, #30
    c6a0:	d101      	bne.n	c6a6 <__hi0bits+0x26>
    c6a2:	3002      	adds	r0, #2
    c6a4:	009b      	lsls	r3, r3, #2
    c6a6:	2b00      	cmp	r3, #0
    c6a8:	db02      	blt.n	c6b0 <__hi0bits+0x30>
    c6aa:	3001      	adds	r0, #1
    c6ac:	005b      	lsls	r3, r3, #1
    c6ae:	d500      	bpl.n	c6b2 <__hi0bits+0x32>
    c6b0:	4770      	bx	lr
    c6b2:	2020      	movs	r0, #32
    c6b4:	e7fc      	b.n	c6b0 <__hi0bits+0x30>
    c6b6:	46c0      	nop			; (mov r8, r8)

0000c6b8 <__lo0bits>:
    c6b8:	6803      	ldr	r3, [r0, #0]
    c6ba:	0002      	movs	r2, r0
    c6bc:	0759      	lsls	r1, r3, #29
    c6be:	d007      	beq.n	c6d0 <__lo0bits+0x18>
    c6c0:	07d9      	lsls	r1, r3, #31
    c6c2:	d41e      	bmi.n	c702 <__lo0bits+0x4a>
    c6c4:	0799      	lsls	r1, r3, #30
    c6c6:	d520      	bpl.n	c70a <__lo0bits+0x52>
    c6c8:	085b      	lsrs	r3, r3, #1
    c6ca:	6003      	str	r3, [r0, #0]
    c6cc:	2001      	movs	r0, #1
    c6ce:	4770      	bx	lr
    c6d0:	2000      	movs	r0, #0
    c6d2:	0419      	lsls	r1, r3, #16
    c6d4:	d101      	bne.n	c6da <__lo0bits+0x22>
    c6d6:	0c1b      	lsrs	r3, r3, #16
    c6d8:	3010      	adds	r0, #16
    c6da:	21ff      	movs	r1, #255	; 0xff
    c6dc:	4219      	tst	r1, r3
    c6de:	d101      	bne.n	c6e4 <__lo0bits+0x2c>
    c6e0:	3008      	adds	r0, #8
    c6e2:	0a1b      	lsrs	r3, r3, #8
    c6e4:	0719      	lsls	r1, r3, #28
    c6e6:	d101      	bne.n	c6ec <__lo0bits+0x34>
    c6e8:	3004      	adds	r0, #4
    c6ea:	091b      	lsrs	r3, r3, #4
    c6ec:	0799      	lsls	r1, r3, #30
    c6ee:	d101      	bne.n	c6f4 <__lo0bits+0x3c>
    c6f0:	3002      	adds	r0, #2
    c6f2:	089b      	lsrs	r3, r3, #2
    c6f4:	07d9      	lsls	r1, r3, #31
    c6f6:	d402      	bmi.n	c6fe <__lo0bits+0x46>
    c6f8:	3001      	adds	r0, #1
    c6fa:	085b      	lsrs	r3, r3, #1
    c6fc:	d003      	beq.n	c706 <__lo0bits+0x4e>
    c6fe:	6013      	str	r3, [r2, #0]
    c700:	e7e5      	b.n	c6ce <__lo0bits+0x16>
    c702:	2000      	movs	r0, #0
    c704:	e7e3      	b.n	c6ce <__lo0bits+0x16>
    c706:	2020      	movs	r0, #32
    c708:	e7e1      	b.n	c6ce <__lo0bits+0x16>
    c70a:	089b      	lsrs	r3, r3, #2
    c70c:	6003      	str	r3, [r0, #0]
    c70e:	2002      	movs	r0, #2
    c710:	e7dd      	b.n	c6ce <__lo0bits+0x16>
    c712:	46c0      	nop			; (mov r8, r8)

0000c714 <__i2b>:
    c714:	6cc3      	ldr	r3, [r0, #76]	; 0x4c
    c716:	b570      	push	{r4, r5, r6, lr}
    c718:	0004      	movs	r4, r0
    c71a:	000d      	movs	r5, r1
    c71c:	2b00      	cmp	r3, #0
    c71e:	d00c      	beq.n	c73a <__i2b+0x26>
    c720:	6858      	ldr	r0, [r3, #4]
    c722:	2800      	cmp	r0, #0
    c724:	d017      	beq.n	c756 <__i2b+0x42>
    c726:	6802      	ldr	r2, [r0, #0]
    c728:	605a      	str	r2, [r3, #4]
    c72a:	2300      	movs	r3, #0
    c72c:	60c3      	str	r3, [r0, #12]
    c72e:	3301      	adds	r3, #1
    c730:	6145      	str	r5, [r0, #20]
    c732:	6103      	str	r3, [r0, #16]
    c734:	bc70      	pop	{r4, r5, r6}
    c736:	bc02      	pop	{r1}
    c738:	4708      	bx	r1
    c73a:	2221      	movs	r2, #33	; 0x21
    c73c:	2104      	movs	r1, #4
    c73e:	f001 fd7f 	bl	e240 <_calloc_r>
    c742:	1e03      	subs	r3, r0, #0
    c744:	64e0      	str	r0, [r4, #76]	; 0x4c
    c746:	d1eb      	bne.n	c720 <__i2b+0xc>
    c748:	21a0      	movs	r1, #160	; 0xa0
    c74a:	2200      	movs	r2, #0
    c74c:	4b08      	ldr	r3, [pc, #32]	; (c770 <__i2b+0x5c>)
    c74e:	4809      	ldr	r0, [pc, #36]	; (c774 <__i2b+0x60>)
    c750:	0049      	lsls	r1, r1, #1
    c752:	f001 fd4f 	bl	e1f4 <__assert_func>
    c756:	221c      	movs	r2, #28
    c758:	2101      	movs	r1, #1
    c75a:	0020      	movs	r0, r4
    c75c:	f001 fd70 	bl	e240 <_calloc_r>
    c760:	2800      	cmp	r0, #0
    c762:	d0f1      	beq.n	c748 <__i2b+0x34>
    c764:	2301      	movs	r3, #1
    c766:	6043      	str	r3, [r0, #4]
    c768:	3301      	adds	r3, #1
    c76a:	6083      	str	r3, [r0, #8]
    c76c:	e7dd      	b.n	c72a <__i2b+0x16>
    c76e:	46c0      	nop			; (mov r8, r8)
    c770:	00010cb4 	.word	0x00010cb4
    c774:	00010d48 	.word	0x00010d48

0000c778 <__multiply>:
    c778:	b5f0      	push	{r4, r5, r6, r7, lr}
    c77a:	464e      	mov	r6, r9
    c77c:	4645      	mov	r5, r8
    c77e:	46de      	mov	lr, fp
    c780:	4657      	mov	r7, sl
    c782:	b5e0      	push	{r5, r6, r7, lr}
    c784:	690d      	ldr	r5, [r1, #16]
    c786:	6916      	ldr	r6, [r2, #16]
    c788:	4689      	mov	r9, r1
    c78a:	0014      	movs	r4, r2
    c78c:	b087      	sub	sp, #28
    c78e:	42b5      	cmp	r5, r6
    c790:	db04      	blt.n	c79c <__multiply+0x24>
    c792:	0033      	movs	r3, r6
    c794:	000c      	movs	r4, r1
    c796:	002e      	movs	r6, r5
    c798:	4691      	mov	r9, r2
    c79a:	001d      	movs	r5, r3
    c79c:	68a3      	ldr	r3, [r4, #8]
    c79e:	1977      	adds	r7, r6, r5
    c7a0:	6861      	ldr	r1, [r4, #4]
    c7a2:	42bb      	cmp	r3, r7
    c7a4:	da00      	bge.n	c7a8 <__multiply+0x30>
    c7a6:	3101      	adds	r1, #1
    c7a8:	f7ff fe86 	bl	c4b8 <_Balloc>
    c7ac:	9005      	str	r0, [sp, #20]
    c7ae:	2800      	cmp	r0, #0
    c7b0:	d100      	bne.n	c7b4 <__multiply+0x3c>
    c7b2:	e0a9      	b.n	c908 <__multiply+0x190>
    c7b4:	2214      	movs	r2, #20
    c7b6:	4694      	mov	ip, r2
    c7b8:	9b05      	ldr	r3, [sp, #20]
    c7ba:	4463      	add	r3, ip
    c7bc:	469b      	mov	fp, r3
    c7be:	00bb      	lsls	r3, r7, #2
    c7c0:	445b      	add	r3, fp
    c7c2:	469a      	mov	sl, r3
    c7c4:	2200      	movs	r2, #0
    c7c6:	465b      	mov	r3, fp
    c7c8:	4651      	mov	r1, sl
    c7ca:	45d3      	cmp	fp, sl
    c7cc:	d203      	bcs.n	c7d6 <__multiply+0x5e>
    c7ce:	c304      	stmia	r3!, {r2}
    c7d0:	4299      	cmp	r1, r3
    c7d2:	d8fc      	bhi.n	c7ce <__multiply+0x56>
    c7d4:	468a      	mov	sl, r1
    c7d6:	2314      	movs	r3, #20
    c7d8:	469c      	mov	ip, r3
    c7da:	44a4      	add	ip, r4
    c7dc:	4663      	mov	r3, ip
    c7de:	9304      	str	r3, [sp, #16]
    c7e0:	2314      	movs	r3, #20
    c7e2:	00b6      	lsls	r6, r6, #2
    c7e4:	4466      	add	r6, ip
    c7e6:	00ad      	lsls	r5, r5, #2
    c7e8:	469c      	mov	ip, r3
    c7ea:	002b      	movs	r3, r5
    c7ec:	44e1      	add	r9, ip
    c7ee:	444b      	add	r3, r9
    c7f0:	9302      	str	r3, [sp, #8]
    c7f2:	4599      	cmp	r9, r3
    c7f4:	d26e      	bcs.n	c8d4 <__multiply+0x15c>
    c7f6:	2304      	movs	r3, #4
    c7f8:	9303      	str	r3, [sp, #12]
    c7fa:	0023      	movs	r3, r4
    c7fc:	3315      	adds	r3, #21
    c7fe:	429e      	cmp	r6, r3
    c800:	d200      	bcs.n	c804 <__multiply+0x8c>
    c802:	e07e      	b.n	c902 <__multiply+0x18a>
    c804:	1b33      	subs	r3, r6, r4
    c806:	3b15      	subs	r3, #21
    c808:	089b      	lsrs	r3, r3, #2
    c80a:	3301      	adds	r3, #1
    c80c:	009b      	lsls	r3, r3, #2
    c80e:	46b8      	mov	r8, r7
    c810:	9303      	str	r3, [sp, #12]
    c812:	9601      	str	r6, [sp, #4]
    c814:	e008      	b.n	c828 <__multiply+0xb0>
    c816:	0c00      	lsrs	r0, r0, #16
    c818:	d131      	bne.n	c87e <__multiply+0x106>
    c81a:	2304      	movs	r3, #4
    c81c:	469c      	mov	ip, r3
    c81e:	9b02      	ldr	r3, [sp, #8]
    c820:	44e1      	add	r9, ip
    c822:	44e3      	add	fp, ip
    c824:	454b      	cmp	r3, r9
    c826:	d954      	bls.n	c8d2 <__multiply+0x15a>
    c828:	464b      	mov	r3, r9
    c82a:	6818      	ldr	r0, [r3, #0]
    c82c:	0403      	lsls	r3, r0, #16
    c82e:	0c1e      	lsrs	r6, r3, #16
    c830:	2b00      	cmp	r3, #0
    c832:	d0f0      	beq.n	c816 <__multiply+0x9e>
    c834:	9b01      	ldr	r3, [sp, #4]
    c836:	465d      	mov	r5, fp
    c838:	2700      	movs	r7, #0
    c83a:	469c      	mov	ip, r3
    c83c:	9c04      	ldr	r4, [sp, #16]
    c83e:	cc04      	ldmia	r4!, {r2}
    c840:	0413      	lsls	r3, r2, #16
    c842:	0c1b      	lsrs	r3, r3, #16
    c844:	4373      	muls	r3, r6
    c846:	6829      	ldr	r1, [r5, #0]
    c848:	0408      	lsls	r0, r1, #16
    c84a:	0c00      	lsrs	r0, r0, #16
    c84c:	181b      	adds	r3, r3, r0
    c84e:	19d8      	adds	r0, r3, r7
    c850:	0c13      	lsrs	r3, r2, #16
    c852:	4373      	muls	r3, r6
    c854:	0c09      	lsrs	r1, r1, #16
    c856:	0c02      	lsrs	r2, r0, #16
    c858:	185b      	adds	r3, r3, r1
    c85a:	189b      	adds	r3, r3, r2
    c85c:	0402      	lsls	r2, r0, #16
    c85e:	0c1f      	lsrs	r7, r3, #16
    c860:	0c12      	lsrs	r2, r2, #16
    c862:	041b      	lsls	r3, r3, #16
    c864:	4313      	orrs	r3, r2
    c866:	c508      	stmia	r5!, {r3}
    c868:	45a4      	cmp	ip, r4
    c86a:	d8e8      	bhi.n	c83e <__multiply+0xc6>
    c86c:	4663      	mov	r3, ip
    c86e:	9301      	str	r3, [sp, #4]
    c870:	465b      	mov	r3, fp
    c872:	9a03      	ldr	r2, [sp, #12]
    c874:	509f      	str	r7, [r3, r2]
    c876:	464b      	mov	r3, r9
    c878:	6818      	ldr	r0, [r3, #0]
    c87a:	0c00      	lsrs	r0, r0, #16
    c87c:	d0cd      	beq.n	c81a <__multiply+0xa2>
    c87e:	465b      	mov	r3, fp
    c880:	2700      	movs	r7, #0
    c882:	681b      	ldr	r3, [r3, #0]
    c884:	465c      	mov	r4, fp
    c886:	0019      	movs	r1, r3
    c888:	003e      	movs	r6, r7
    c88a:	9d04      	ldr	r5, [sp, #16]
    c88c:	9a01      	ldr	r2, [sp, #4]
    c88e:	882f      	ldrh	r7, [r5, #0]
    c890:	4347      	muls	r7, r0
    c892:	0c09      	lsrs	r1, r1, #16
    c894:	187f      	adds	r7, r7, r1
    c896:	19bf      	adds	r7, r7, r6
    c898:	041b      	lsls	r3, r3, #16
    c89a:	0439      	lsls	r1, r7, #16
    c89c:	0c1b      	lsrs	r3, r3, #16
    c89e:	430b      	orrs	r3, r1
    c8a0:	6023      	str	r3, [r4, #0]
    c8a2:	cd08      	ldmia	r5!, {r3}
    c8a4:	0c1b      	lsrs	r3, r3, #16
    c8a6:	4343      	muls	r3, r0
    c8a8:	6861      	ldr	r1, [r4, #4]
    c8aa:	040e      	lsls	r6, r1, #16
    c8ac:	0c36      	lsrs	r6, r6, #16
    c8ae:	199b      	adds	r3, r3, r6
    c8b0:	0c3f      	lsrs	r7, r7, #16
    c8b2:	19db      	adds	r3, r3, r7
    c8b4:	0c1e      	lsrs	r6, r3, #16
    c8b6:	3404      	adds	r4, #4
    c8b8:	42aa      	cmp	r2, r5
    c8ba:	d8e8      	bhi.n	c88e <__multiply+0x116>
    c8bc:	9201      	str	r2, [sp, #4]
    c8be:	465a      	mov	r2, fp
    c8c0:	9903      	ldr	r1, [sp, #12]
    c8c2:	5053      	str	r3, [r2, r1]
    c8c4:	2304      	movs	r3, #4
    c8c6:	469c      	mov	ip, r3
    c8c8:	9b02      	ldr	r3, [sp, #8]
    c8ca:	44e1      	add	r9, ip
    c8cc:	44e3      	add	fp, ip
    c8ce:	454b      	cmp	r3, r9
    c8d0:	d8aa      	bhi.n	c828 <__multiply+0xb0>
    c8d2:	4647      	mov	r7, r8
    c8d4:	4653      	mov	r3, sl
    c8d6:	2f00      	cmp	r7, #0
    c8d8:	dc03      	bgt.n	c8e2 <__multiply+0x16a>
    c8da:	e006      	b.n	c8ea <__multiply+0x172>
    c8dc:	3f01      	subs	r7, #1
    c8de:	2f00      	cmp	r7, #0
    c8e0:	d003      	beq.n	c8ea <__multiply+0x172>
    c8e2:	3b04      	subs	r3, #4
    c8e4:	681a      	ldr	r2, [r3, #0]
    c8e6:	2a00      	cmp	r2, #0
    c8e8:	d0f8      	beq.n	c8dc <__multiply+0x164>
    c8ea:	9b05      	ldr	r3, [sp, #20]
    c8ec:	0018      	movs	r0, r3
    c8ee:	611f      	str	r7, [r3, #16]
    c8f0:	b007      	add	sp, #28
    c8f2:	bcf0      	pop	{r4, r5, r6, r7}
    c8f4:	46bb      	mov	fp, r7
    c8f6:	46b2      	mov	sl, r6
    c8f8:	46a9      	mov	r9, r5
    c8fa:	46a0      	mov	r8, r4
    c8fc:	bcf0      	pop	{r4, r5, r6, r7}
    c8fe:	bc02      	pop	{r1}
    c900:	4708      	bx	r1
    c902:	46b8      	mov	r8, r7
    c904:	9601      	str	r6, [sp, #4]
    c906:	e78f      	b.n	c828 <__multiply+0xb0>
    c908:	215e      	movs	r1, #94	; 0x5e
    c90a:	2200      	movs	r2, #0
    c90c:	4b02      	ldr	r3, [pc, #8]	; (c918 <__multiply+0x1a0>)
    c90e:	4803      	ldr	r0, [pc, #12]	; (c91c <__multiply+0x1a4>)
    c910:	31ff      	adds	r1, #255	; 0xff
    c912:	f001 fc6f 	bl	e1f4 <__assert_func>
    c916:	46c0      	nop			; (mov r8, r8)
    c918:	00010cb4 	.word	0x00010cb4
    c91c:	00010d48 	.word	0x00010d48

0000c920 <__pow5mult>:
    c920:	b5f8      	push	{r3, r4, r5, r6, r7, lr}
    c922:	2303      	movs	r3, #3
    c924:	4647      	mov	r7, r8
    c926:	0014      	movs	r4, r2
    c928:	46ce      	mov	lr, r9
    c92a:	001a      	movs	r2, r3
    c92c:	b580      	push	{r7, lr}
    c92e:	000e      	movs	r6, r1
    c930:	0007      	movs	r7, r0
    c932:	4022      	ands	r2, r4
    c934:	4223      	tst	r3, r4
    c936:	d13a      	bne.n	c9ae <__pow5mult+0x8e>
    c938:	10a4      	asrs	r4, r4, #2
    c93a:	d025      	beq.n	c988 <__pow5mult+0x68>
    c93c:	6cbd      	ldr	r5, [r7, #72]	; 0x48
    c93e:	2d00      	cmp	r5, #0
    c940:	d03e      	beq.n	c9c0 <__pow5mult+0xa0>
    c942:	2301      	movs	r3, #1
    c944:	4698      	mov	r8, r3
    c946:	2300      	movs	r3, #0
    c948:	4699      	mov	r9, r3
    c94a:	4643      	mov	r3, r8
    c94c:	4223      	tst	r3, r4
    c94e:	d108      	bne.n	c962 <__pow5mult+0x42>
    c950:	1064      	asrs	r4, r4, #1
    c952:	d019      	beq.n	c988 <__pow5mult+0x68>
    c954:	6828      	ldr	r0, [r5, #0]
    c956:	2800      	cmp	r0, #0
    c958:	d01d      	beq.n	c996 <__pow5mult+0x76>
    c95a:	0005      	movs	r5, r0
    c95c:	4643      	mov	r3, r8
    c95e:	4223      	tst	r3, r4
    c960:	d0f6      	beq.n	c950 <__pow5mult+0x30>
    c962:	002a      	movs	r2, r5
    c964:	0031      	movs	r1, r6
    c966:	0038      	movs	r0, r7
    c968:	f7ff ff06 	bl	c778 <__multiply>
    c96c:	2e00      	cmp	r6, #0
    c96e:	d01c      	beq.n	c9aa <__pow5mult+0x8a>
    c970:	6cfa      	ldr	r2, [r7, #76]	; 0x4c
    c972:	4694      	mov	ip, r2
    c974:	6873      	ldr	r3, [r6, #4]
    c976:	009b      	lsls	r3, r3, #2
    c978:	4463      	add	r3, ip
    c97a:	681a      	ldr	r2, [r3, #0]
    c97c:	1064      	asrs	r4, r4, #1
    c97e:	6032      	str	r2, [r6, #0]
    c980:	601e      	str	r6, [r3, #0]
    c982:	0006      	movs	r6, r0
    c984:	2c00      	cmp	r4, #0
    c986:	d1e5      	bne.n	c954 <__pow5mult+0x34>
    c988:	0030      	movs	r0, r6
    c98a:	bcc0      	pop	{r6, r7}
    c98c:	46b9      	mov	r9, r7
    c98e:	46b0      	mov	r8, r6
    c990:	bcf8      	pop	{r3, r4, r5, r6, r7}
    c992:	bc02      	pop	{r1}
    c994:	4708      	bx	r1
    c996:	002a      	movs	r2, r5
    c998:	0029      	movs	r1, r5
    c99a:	0038      	movs	r0, r7
    c99c:	f7ff feec 	bl	c778 <__multiply>
    c9a0:	464b      	mov	r3, r9
    c9a2:	6028      	str	r0, [r5, #0]
    c9a4:	0005      	movs	r5, r0
    c9a6:	6003      	str	r3, [r0, #0]
    c9a8:	e7d8      	b.n	c95c <__pow5mult+0x3c>
    c9aa:	0006      	movs	r6, r0
    c9ac:	e7d0      	b.n	c950 <__pow5mult+0x30>
    c9ae:	4b0f      	ldr	r3, [pc, #60]	; (c9ec <__pow5mult+0xcc>)
    c9b0:	3a01      	subs	r2, #1
    c9b2:	0092      	lsls	r2, r2, #2
    c9b4:	58d2      	ldr	r2, [r2, r3]
    c9b6:	2300      	movs	r3, #0
    c9b8:	f7ff fdb2 	bl	c520 <__multadd>
    c9bc:	0006      	movs	r6, r0
    c9be:	e7bb      	b.n	c938 <__pow5mult+0x18>
    c9c0:	2101      	movs	r1, #1
    c9c2:	0038      	movs	r0, r7
    c9c4:	f7ff fd78 	bl	c4b8 <_Balloc>
    c9c8:	1e05      	subs	r5, r0, #0
    c9ca:	d007      	beq.n	c9dc <__pow5mult+0xbc>
    c9cc:	4b08      	ldr	r3, [pc, #32]	; (c9f0 <__pow5mult+0xd0>)
    c9ce:	6143      	str	r3, [r0, #20]
    c9d0:	2301      	movs	r3, #1
    c9d2:	6103      	str	r3, [r0, #16]
    c9d4:	2300      	movs	r3, #0
    c9d6:	64b8      	str	r0, [r7, #72]	; 0x48
    c9d8:	6003      	str	r3, [r0, #0]
    c9da:	e7b2      	b.n	c942 <__pow5mult+0x22>
    c9dc:	21a0      	movs	r1, #160	; 0xa0
    c9de:	2200      	movs	r2, #0
    c9e0:	4b04      	ldr	r3, [pc, #16]	; (c9f4 <__pow5mult+0xd4>)
    c9e2:	4805      	ldr	r0, [pc, #20]	; (c9f8 <__pow5mult+0xd8>)
    c9e4:	0049      	lsls	r1, r1, #1
    c9e6:	f001 fc05 	bl	e1f4 <__assert_func>
    c9ea:	46c0      	nop			; (mov r8, r8)
    c9ec:	00010ee0 	.word	0x00010ee0
    c9f0:	00000271 	.word	0x00000271
    c9f4:	00010cb4 	.word	0x00010cb4
    c9f8:	00010d48 	.word	0x00010d48

0000c9fc <__lshift>:
    c9fc:	b5f0      	push	{r4, r5, r6, r7, lr}
    c9fe:	000c      	movs	r4, r1
    ca00:	6923      	ldr	r3, [r4, #16]
    ca02:	4645      	mov	r5, r8
    ca04:	46de      	mov	lr, fp
    ca06:	4657      	mov	r7, sl
    ca08:	464e      	mov	r6, r9
    ca0a:	4698      	mov	r8, r3
    ca0c:	b5e0      	push	{r5, r6, r7, lr}
    ca0e:	1157      	asrs	r7, r2, #5
    ca10:	44b8      	add	r8, r7
    ca12:	4643      	mov	r3, r8
    ca14:	1c5d      	adds	r5, r3, #1
    ca16:	68a3      	ldr	r3, [r4, #8]
    ca18:	4683      	mov	fp, r0
    ca1a:	0016      	movs	r6, r2
    ca1c:	6849      	ldr	r1, [r1, #4]
    ca1e:	b083      	sub	sp, #12
    ca20:	429d      	cmp	r5, r3
    ca22:	dd03      	ble.n	ca2c <__lshift+0x30>
    ca24:	3101      	adds	r1, #1
    ca26:	005b      	lsls	r3, r3, #1
    ca28:	429d      	cmp	r5, r3
    ca2a:	dcfb      	bgt.n	ca24 <__lshift+0x28>
    ca2c:	4658      	mov	r0, fp
    ca2e:	f7ff fd43 	bl	c4b8 <_Balloc>
    ca32:	4684      	mov	ip, r0
    ca34:	2800      	cmp	r0, #0
    ca36:	d055      	beq.n	cae4 <__lshift+0xe8>
    ca38:	3014      	adds	r0, #20
    ca3a:	0003      	movs	r3, r0
    ca3c:	9001      	str	r0, [sp, #4]
    ca3e:	2f00      	cmp	r7, #0
    ca40:	dd0c      	ble.n	ca5c <__lshift+0x60>
    ca42:	00bf      	lsls	r7, r7, #2
    ca44:	003a      	movs	r2, r7
    ca46:	2100      	movs	r1, #0
    ca48:	3214      	adds	r2, #20
    ca4a:	4462      	add	r2, ip
    ca4c:	c302      	stmia	r3!, {r1}
    ca4e:	4293      	cmp	r3, r2
    ca50:	d1fc      	bne.n	ca4c <__lshift+0x50>
    ca52:	9b01      	ldr	r3, [sp, #4]
    ca54:	4699      	mov	r9, r3
    ca56:	44b9      	add	r9, r7
    ca58:	464b      	mov	r3, r9
    ca5a:	9301      	str	r3, [sp, #4]
    ca5c:	6922      	ldr	r2, [r4, #16]
    ca5e:	0091      	lsls	r1, r2, #2
    ca60:	221f      	movs	r2, #31
    ca62:	0023      	movs	r3, r4
    ca64:	0010      	movs	r0, r2
    ca66:	3314      	adds	r3, #20
    ca68:	4030      	ands	r0, r6
    ca6a:	4681      	mov	r9, r0
    ca6c:	1859      	adds	r1, r3, r1
    ca6e:	4232      	tst	r2, r6
    ca70:	d032      	beq.n	cad8 <__lshift+0xdc>
    ca72:	3201      	adds	r2, #1
    ca74:	1a12      	subs	r2, r2, r0
    ca76:	4692      	mov	sl, r2
    ca78:	2600      	movs	r6, #0
    ca7a:	9f01      	ldr	r7, [sp, #4]
    ca7c:	4648      	mov	r0, r9
    ca7e:	681a      	ldr	r2, [r3, #0]
    ca80:	4082      	lsls	r2, r0
    ca82:	4332      	orrs	r2, r6
    ca84:	c704      	stmia	r7!, {r2}
    ca86:	4652      	mov	r2, sl
    ca88:	cb40      	ldmia	r3!, {r6}
    ca8a:	40d6      	lsrs	r6, r2
    ca8c:	4299      	cmp	r1, r3
    ca8e:	d8f5      	bhi.n	ca7c <__lshift+0x80>
    ca90:	0022      	movs	r2, r4
    ca92:	3215      	adds	r2, #21
    ca94:	2304      	movs	r3, #4
    ca96:	4291      	cmp	r1, r2
    ca98:	d304      	bcc.n	caa4 <__lshift+0xa8>
    ca9a:	1b0b      	subs	r3, r1, r4
    ca9c:	3b15      	subs	r3, #21
    ca9e:	089b      	lsrs	r3, r3, #2
    caa0:	3301      	adds	r3, #1
    caa2:	009b      	lsls	r3, r3, #2
    caa4:	9a01      	ldr	r2, [sp, #4]
    caa6:	50d6      	str	r6, [r2, r3]
    caa8:	2e00      	cmp	r6, #0
    caaa:	d000      	beq.n	caae <__lshift+0xb2>
    caac:	46a8      	mov	r8, r5
    caae:	4663      	mov	r3, ip
    cab0:	4642      	mov	r2, r8
    cab2:	611a      	str	r2, [r3, #16]
    cab4:	6863      	ldr	r3, [r4, #4]
    cab6:	009a      	lsls	r2, r3, #2
    cab8:	465b      	mov	r3, fp
    caba:	4660      	mov	r0, ip
    cabc:	6cdb      	ldr	r3, [r3, #76]	; 0x4c
    cabe:	189b      	adds	r3, r3, r2
    cac0:	681a      	ldr	r2, [r3, #0]
    cac2:	6022      	str	r2, [r4, #0]
    cac4:	601c      	str	r4, [r3, #0]
    cac6:	b003      	add	sp, #12
    cac8:	bcf0      	pop	{r4, r5, r6, r7}
    caca:	46bb      	mov	fp, r7
    cacc:	46b2      	mov	sl, r6
    cace:	46a9      	mov	r9, r5
    cad0:	46a0      	mov	r8, r4
    cad2:	bcf0      	pop	{r4, r5, r6, r7}
    cad4:	bc02      	pop	{r1}
    cad6:	4708      	bx	r1
    cad8:	9801      	ldr	r0, [sp, #4]
    cada:	cb04      	ldmia	r3!, {r2}
    cadc:	c004      	stmia	r0!, {r2}
    cade:	4299      	cmp	r1, r3
    cae0:	d8fb      	bhi.n	cada <__lshift+0xde>
    cae2:	e7e4      	b.n	caae <__lshift+0xb2>
    cae4:	21da      	movs	r1, #218	; 0xda
    cae6:	2200      	movs	r2, #0
    cae8:	4b02      	ldr	r3, [pc, #8]	; (caf4 <__lshift+0xf8>)
    caea:	4803      	ldr	r0, [pc, #12]	; (caf8 <__lshift+0xfc>)
    caec:	31ff      	adds	r1, #255	; 0xff
    caee:	f001 fb81 	bl	e1f4 <__assert_func>
    caf2:	46c0      	nop			; (mov r8, r8)
    caf4:	00010cb4 	.word	0x00010cb4
    caf8:	00010d48 	.word	0x00010d48

0000cafc <__mcmp>:
    cafc:	6903      	ldr	r3, [r0, #16]
    cafe:	690a      	ldr	r2, [r1, #16]
    cb00:	b530      	push	{r4, r5, lr}
    cb02:	0005      	movs	r5, r0
    cb04:	1a98      	subs	r0, r3, r2
    cb06:	4293      	cmp	r3, r2
    cb08:	d111      	bne.n	cb2e <__mcmp+0x32>
    cb0a:	0092      	lsls	r2, r2, #2
    cb0c:	3514      	adds	r5, #20
    cb0e:	3114      	adds	r1, #20
    cb10:	18ab      	adds	r3, r5, r2
    cb12:	1889      	adds	r1, r1, r2
    cb14:	e001      	b.n	cb1a <__mcmp+0x1e>
    cb16:	429d      	cmp	r5, r3
    cb18:	d209      	bcs.n	cb2e <__mcmp+0x32>
    cb1a:	3b04      	subs	r3, #4
    cb1c:	3904      	subs	r1, #4
    cb1e:	681a      	ldr	r2, [r3, #0]
    cb20:	680c      	ldr	r4, [r1, #0]
    cb22:	42a2      	cmp	r2, r4
    cb24:	d0f7      	beq.n	cb16 <__mcmp+0x1a>
    cb26:	42a2      	cmp	r2, r4
    cb28:	4192      	sbcs	r2, r2
    cb2a:	2001      	movs	r0, #1
    cb2c:	4310      	orrs	r0, r2
    cb2e:	bc30      	pop	{r4, r5}
    cb30:	bc02      	pop	{r1}
    cb32:	4708      	bx	r1

0000cb34 <__mdiff>:
    cb34:	b5f0      	push	{r4, r5, r6, r7, lr}
    cb36:	464e      	mov	r6, r9
    cb38:	4645      	mov	r5, r8
    cb3a:	46de      	mov	lr, fp
    cb3c:	4657      	mov	r7, sl
    cb3e:	b5e0      	push	{r5, r6, r7, lr}
    cb40:	690b      	ldr	r3, [r1, #16]
    cb42:	4688      	mov	r8, r1
    cb44:	6911      	ldr	r1, [r2, #16]
    cb46:	4691      	mov	r9, r2
    cb48:	b083      	sub	sp, #12
    cb4a:	1a5c      	subs	r4, r3, r1
    cb4c:	428b      	cmp	r3, r1
    cb4e:	d000      	beq.n	cb52 <__mdiff+0x1e>
    cb50:	e097      	b.n	cc82 <__mdiff+0x14e>
    cb52:	4646      	mov	r6, r8
    cb54:	0089      	lsls	r1, r1, #2
    cb56:	3614      	adds	r6, #20
    cb58:	3214      	adds	r2, #20
    cb5a:	1873      	adds	r3, r6, r1
    cb5c:	1852      	adds	r2, r2, r1
    cb5e:	e002      	b.n	cb66 <__mdiff+0x32>
    cb60:	429e      	cmp	r6, r3
    cb62:	d300      	bcc.n	cb66 <__mdiff+0x32>
    cb64:	e091      	b.n	cc8a <__mdiff+0x156>
    cb66:	3b04      	subs	r3, #4
    cb68:	3a04      	subs	r2, #4
    cb6a:	681d      	ldr	r5, [r3, #0]
    cb6c:	6811      	ldr	r1, [r2, #0]
    cb6e:	428d      	cmp	r5, r1
    cb70:	d0f6      	beq.n	cb60 <__mdiff+0x2c>
    cb72:	d200      	bcs.n	cb76 <__mdiff+0x42>
    cb74:	e080      	b.n	cc78 <__mdiff+0x144>
    cb76:	4643      	mov	r3, r8
    cb78:	6859      	ldr	r1, [r3, #4]
    cb7a:	f7ff fc9d 	bl	c4b8 <_Balloc>
    cb7e:	2800      	cmp	r0, #0
    cb80:	d100      	bne.n	cb84 <__mdiff+0x50>
    cb82:	e08c      	b.n	cc9e <__mdiff+0x16a>
    cb84:	4643      	mov	r3, r8
    cb86:	691a      	ldr	r2, [r3, #16]
    cb88:	2314      	movs	r3, #20
    cb8a:	4443      	add	r3, r8
    cb8c:	469c      	mov	ip, r3
    cb8e:	60c4      	str	r4, [r0, #12]
    cb90:	001c      	movs	r4, r3
    cb92:	464b      	mov	r3, r9
    cb94:	691b      	ldr	r3, [r3, #16]
    cb96:	0091      	lsls	r1, r2, #2
    cb98:	009b      	lsls	r3, r3, #2
    cb9a:	4461      	add	r1, ip
    cb9c:	469c      	mov	ip, r3
    cb9e:	2314      	movs	r3, #20
    cba0:	469a      	mov	sl, r3
    cba2:	464f      	mov	r7, r9
    cba4:	4482      	add	sl, r0
    cba6:	4653      	mov	r3, sl
    cba8:	3714      	adds	r7, #20
    cbaa:	44bc      	add	ip, r7
    cbac:	468b      	mov	fp, r1
    cbae:	46a2      	mov	sl, r4
    cbb0:	2614      	movs	r6, #20
    cbb2:	4664      	mov	r4, ip
    cbb4:	2100      	movs	r1, #0
    cbb6:	4694      	mov	ip, r2
    cbb8:	4642      	mov	r2, r8
    cbba:	4680      	mov	r8, r0
    cbbc:	9301      	str	r3, [sp, #4]
    cbbe:	5993      	ldr	r3, [r2, r6]
    cbc0:	cf01      	ldmia	r7!, {r0}
    cbc2:	041d      	lsls	r5, r3, #16
    cbc4:	0c2d      	lsrs	r5, r5, #16
    cbc6:	1869      	adds	r1, r5, r1
    cbc8:	0405      	lsls	r5, r0, #16
    cbca:	0c2d      	lsrs	r5, r5, #16
    cbcc:	1b4d      	subs	r5, r1, r5
    cbce:	0c01      	lsrs	r1, r0, #16
    cbd0:	4640      	mov	r0, r8
    cbd2:	0c1b      	lsrs	r3, r3, #16
    cbd4:	1a5b      	subs	r3, r3, r1
    cbd6:	1429      	asrs	r1, r5, #16
    cbd8:	185b      	adds	r3, r3, r1
    cbda:	042d      	lsls	r5, r5, #16
    cbdc:	1419      	asrs	r1, r3, #16
    cbde:	0c2d      	lsrs	r5, r5, #16
    cbe0:	041b      	lsls	r3, r3, #16
    cbe2:	432b      	orrs	r3, r5
    cbe4:	5183      	str	r3, [r0, r6]
    cbe6:	3604      	adds	r6, #4
    cbe8:	42bc      	cmp	r4, r7
    cbea:	d8e8      	bhi.n	cbbe <__mdiff+0x8a>
    cbec:	4662      	mov	r2, ip
    cbee:	46a4      	mov	ip, r4
    cbf0:	464d      	mov	r5, r9
    cbf2:	001c      	movs	r4, r3
    cbf4:	4663      	mov	r3, ip
    cbf6:	464e      	mov	r6, r9
    cbf8:	1b5d      	subs	r5, r3, r5
    cbfa:	3d15      	subs	r5, #21
    cbfc:	3615      	adds	r6, #21
    cbfe:	2300      	movs	r3, #0
    cc00:	08ad      	lsrs	r5, r5, #2
    cc02:	45b4      	cmp	ip, r6
    cc04:	d300      	bcc.n	cc08 <__mdiff+0xd4>
    cc06:	00ab      	lsls	r3, r5, #2
    cc08:	9f01      	ldr	r7, [sp, #4]
    cc0a:	46b8      	mov	r8, r7
    cc0c:	2704      	movs	r7, #4
    cc0e:	4443      	add	r3, r8
    cc10:	45b4      	cmp	ip, r6
    cc12:	d301      	bcc.n	cc18 <__mdiff+0xe4>
    cc14:	3501      	adds	r5, #1
    cc16:	00af      	lsls	r7, r5, #2
    cc18:	9d01      	ldr	r5, [sp, #4]
    cc1a:	46ac      	mov	ip, r5
    cc1c:	44ba      	add	sl, r7
    cc1e:	44bc      	add	ip, r7
    cc20:	45d3      	cmp	fp, sl
    cc22:	d918      	bls.n	cc56 <__mdiff+0x122>
    cc24:	4665      	mov	r5, ip
    cc26:	4657      	mov	r7, sl
    cc28:	465e      	mov	r6, fp
    cc2a:	cf10      	ldmia	r7!, {r4}
    cc2c:	0423      	lsls	r3, r4, #16
    cc2e:	0c1b      	lsrs	r3, r3, #16
    cc30:	185b      	adds	r3, r3, r1
    cc32:	1419      	asrs	r1, r3, #16
    cc34:	0c24      	lsrs	r4, r4, #16
    cc36:	1864      	adds	r4, r4, r1
    cc38:	041b      	lsls	r3, r3, #16
    cc3a:	1421      	asrs	r1, r4, #16
    cc3c:	0c1b      	lsrs	r3, r3, #16
    cc3e:	0424      	lsls	r4, r4, #16
    cc40:	431c      	orrs	r4, r3
    cc42:	c510      	stmia	r5!, {r4}
    cc44:	42be      	cmp	r6, r7
    cc46:	d8f0      	bhi.n	cc2a <__mdiff+0xf6>
    cc48:	0031      	movs	r1, r6
    cc4a:	4653      	mov	r3, sl
    cc4c:	3901      	subs	r1, #1
    cc4e:	1acb      	subs	r3, r1, r3
    cc50:	089b      	lsrs	r3, r3, #2
    cc52:	009b      	lsls	r3, r3, #2
    cc54:	4463      	add	r3, ip
    cc56:	2c00      	cmp	r4, #0
    cc58:	d104      	bne.n	cc64 <__mdiff+0x130>
    cc5a:	3b04      	subs	r3, #4
    cc5c:	6819      	ldr	r1, [r3, #0]
    cc5e:	3a01      	subs	r2, #1
    cc60:	2900      	cmp	r1, #0
    cc62:	d0fa      	beq.n	cc5a <__mdiff+0x126>
    cc64:	6102      	str	r2, [r0, #16]
    cc66:	b003      	add	sp, #12
    cc68:	bcf0      	pop	{r4, r5, r6, r7}
    cc6a:	46bb      	mov	fp, r7
    cc6c:	46b2      	mov	sl, r6
    cc6e:	46a9      	mov	r9, r5
    cc70:	46a0      	mov	r8, r4
    cc72:	bcf0      	pop	{r4, r5, r6, r7}
    cc74:	bc02      	pop	{r1}
    cc76:	4708      	bx	r1
    cc78:	4643      	mov	r3, r8
    cc7a:	2401      	movs	r4, #1
    cc7c:	46c8      	mov	r8, r9
    cc7e:	4699      	mov	r9, r3
    cc80:	e779      	b.n	cb76 <__mdiff+0x42>
    cc82:	2c00      	cmp	r4, #0
    cc84:	dbf8      	blt.n	cc78 <__mdiff+0x144>
    cc86:	2400      	movs	r4, #0
    cc88:	e775      	b.n	cb76 <__mdiff+0x42>
    cc8a:	2100      	movs	r1, #0
    cc8c:	f7ff fc14 	bl	c4b8 <_Balloc>
    cc90:	2800      	cmp	r0, #0
    cc92:	d00b      	beq.n	ccac <__mdiff+0x178>
    cc94:	2301      	movs	r3, #1
    cc96:	6103      	str	r3, [r0, #16]
    cc98:	2300      	movs	r3, #0
    cc9a:	6143      	str	r3, [r0, #20]
    cc9c:	e7e3      	b.n	cc66 <__mdiff+0x132>
    cc9e:	2190      	movs	r1, #144	; 0x90
    cca0:	2200      	movs	r2, #0
    cca2:	4b05      	ldr	r3, [pc, #20]	; (ccb8 <__mdiff+0x184>)
    cca4:	4805      	ldr	r0, [pc, #20]	; (ccbc <__mdiff+0x188>)
    cca6:	0089      	lsls	r1, r1, #2
    cca8:	f001 faa4 	bl	e1f4 <__assert_func>
    ccac:	2200      	movs	r2, #0
    ccae:	4b02      	ldr	r3, [pc, #8]	; (ccb8 <__mdiff+0x184>)
    ccb0:	4903      	ldr	r1, [pc, #12]	; (ccc0 <__mdiff+0x18c>)
    ccb2:	4802      	ldr	r0, [pc, #8]	; (ccbc <__mdiff+0x188>)
    ccb4:	f001 fa9e 	bl	e1f4 <__assert_func>
    ccb8:	00010cb4 	.word	0x00010cb4
    ccbc:	00010d48 	.word	0x00010d48
    ccc0:	00000232 	.word	0x00000232

0000ccc4 <__ulp>:
    ccc4:	4b0f      	ldr	r3, [pc, #60]	; (cd04 <__ulp+0x40>)
    ccc6:	4019      	ands	r1, r3
    ccc8:	4b0f      	ldr	r3, [pc, #60]	; (cd08 <__ulp+0x44>)
    ccca:	469c      	mov	ip, r3
    cccc:	4461      	add	r1, ip
    ccce:	2900      	cmp	r1, #0
    ccd0:	dd04      	ble.n	ccdc <__ulp+0x18>
    ccd2:	2200      	movs	r2, #0
    ccd4:	000b      	movs	r3, r1
    ccd6:	0010      	movs	r0, r2
    ccd8:	0019      	movs	r1, r3
    ccda:	4770      	bx	lr
    ccdc:	4249      	negs	r1, r1
    ccde:	2200      	movs	r2, #0
    cce0:	2300      	movs	r3, #0
    cce2:	1509      	asrs	r1, r1, #20
    cce4:	2913      	cmp	r1, #19
    cce6:	dc04      	bgt.n	ccf2 <__ulp+0x2e>
    cce8:	2080      	movs	r0, #128	; 0x80
    ccea:	0300      	lsls	r0, r0, #12
    ccec:	4108      	asrs	r0, r1
    ccee:	0003      	movs	r3, r0
    ccf0:	e7f1      	b.n	ccd6 <__ulp+0x12>
    ccf2:	3914      	subs	r1, #20
    ccf4:	2001      	movs	r0, #1
    ccf6:	291e      	cmp	r1, #30
    ccf8:	dc02      	bgt.n	cd00 <__ulp+0x3c>
    ccfa:	2080      	movs	r0, #128	; 0x80
    ccfc:	0600      	lsls	r0, r0, #24
    ccfe:	40c8      	lsrs	r0, r1
    cd00:	0002      	movs	r2, r0
    cd02:	e7e8      	b.n	ccd6 <__ulp+0x12>
    cd04:	7ff00000 	.word	0x7ff00000
    cd08:	fcc00000 	.word	0xfcc00000

0000cd0c <__b2d>:
    cd0c:	b5f8      	push	{r3, r4, r5, r6, r7, lr}
    cd0e:	0006      	movs	r6, r0
    cd10:	4647      	mov	r7, r8
    cd12:	46ce      	mov	lr, r9
    cd14:	6904      	ldr	r4, [r0, #16]
    cd16:	3614      	adds	r6, #20
    cd18:	00a4      	lsls	r4, r4, #2
    cd1a:	1934      	adds	r4, r6, r4
    cd1c:	1f23      	subs	r3, r4, #4
    cd1e:	681d      	ldr	r5, [r3, #0]
    cd20:	b580      	push	{r7, lr}
    cd22:	0028      	movs	r0, r5
    cd24:	000f      	movs	r7, r1
    cd26:	4698      	mov	r8, r3
    cd28:	f7ff fcaa 	bl	c680 <__hi0bits>
    cd2c:	2120      	movs	r1, #32
    cd2e:	1a0a      	subs	r2, r1, r0
    cd30:	603a      	str	r2, [r7, #0]
    cd32:	280a      	cmp	r0, #10
    cd34:	dd30      	ble.n	cd98 <__b2d+0x8c>
    cd36:	4546      	cmp	r6, r8
    cd38:	d225      	bcs.n	cd86 <__b2d+0x7a>
    cd3a:	2308      	movs	r3, #8
    cd3c:	425b      	negs	r3, r3
    cd3e:	4698      	mov	r8, r3
    cd40:	44a0      	add	r8, r4
    cd42:	4643      	mov	r3, r8
    cd44:	681f      	ldr	r7, [r3, #0]
    cd46:	230b      	movs	r3, #11
    cd48:	425b      	negs	r3, r3
    cd4a:	469c      	mov	ip, r3
    cd4c:	4484      	add	ip, r0
    cd4e:	280b      	cmp	r0, #11
    cd50:	d01e      	beq.n	cd90 <__b2d+0x84>
    cd52:	4663      	mov	r3, ip
    cd54:	409d      	lsls	r5, r3
    cd56:	1ac9      	subs	r1, r1, r3
    cd58:	003b      	movs	r3, r7
    cd5a:	40cb      	lsrs	r3, r1
    cd5c:	481d      	ldr	r0, [pc, #116]	; (cdd4 <__b2d+0xc8>)
    cd5e:	431d      	orrs	r5, r3
    cd60:	4328      	orrs	r0, r5
    cd62:	0003      	movs	r3, r0
    cd64:	4546      	cmp	r6, r8
    cd66:	d231      	bcs.n	cdcc <__b2d+0xc0>
    cd68:	3c0c      	subs	r4, #12
    cd6a:	6820      	ldr	r0, [r4, #0]
    cd6c:	40c8      	lsrs	r0, r1
    cd6e:	4661      	mov	r1, ip
    cd70:	408f      	lsls	r7, r1
    cd72:	4307      	orrs	r7, r0
    cd74:	003a      	movs	r2, r7
    cd76:	0010      	movs	r0, r2
    cd78:	0019      	movs	r1, r3
    cd7a:	bcc0      	pop	{r6, r7}
    cd7c:	46b9      	mov	r9, r7
    cd7e:	46b0      	mov	r8, r6
    cd80:	bcf8      	pop	{r3, r4, r5, r6, r7}
    cd82:	bc04      	pop	{r2}
    cd84:	4710      	bx	r2
    cd86:	0003      	movs	r3, r0
    cd88:	2700      	movs	r7, #0
    cd8a:	3b0b      	subs	r3, #11
    cd8c:	280b      	cmp	r0, #11
    cd8e:	d117      	bne.n	cdc0 <__b2d+0xb4>
    cd90:	4910      	ldr	r1, [pc, #64]	; (cdd4 <__b2d+0xc8>)
    cd92:	4329      	orrs	r1, r5
    cd94:	000b      	movs	r3, r1
    cd96:	e7ed      	b.n	cd74 <__b2d+0x68>
    cd98:	002f      	movs	r7, r5
    cd9a:	3915      	subs	r1, #21
    cd9c:	1a0b      	subs	r3, r1, r0
    cd9e:	40df      	lsrs	r7, r3
    cda0:	490c      	ldr	r1, [pc, #48]	; (cdd4 <__b2d+0xc8>)
    cda2:	4339      	orrs	r1, r7
    cda4:	4699      	mov	r9, r3
    cda6:	2700      	movs	r7, #0
    cda8:	000b      	movs	r3, r1
    cdaa:	4546      	cmp	r6, r8
    cdac:	d203      	bcs.n	cdb6 <__b2d+0xaa>
    cdae:	4649      	mov	r1, r9
    cdb0:	3c08      	subs	r4, #8
    cdb2:	6827      	ldr	r7, [r4, #0]
    cdb4:	40cf      	lsrs	r7, r1
    cdb6:	3015      	adds	r0, #21
    cdb8:	4085      	lsls	r5, r0
    cdba:	433d      	orrs	r5, r7
    cdbc:	002a      	movs	r2, r5
    cdbe:	e7da      	b.n	cd76 <__b2d+0x6a>
    cdc0:	409d      	lsls	r5, r3
    cdc2:	4904      	ldr	r1, [pc, #16]	; (cdd4 <__b2d+0xc8>)
    cdc4:	4329      	orrs	r1, r5
    cdc6:	000b      	movs	r3, r1
    cdc8:	2700      	movs	r7, #0
    cdca:	e7d3      	b.n	cd74 <__b2d+0x68>
    cdcc:	4661      	mov	r1, ip
    cdce:	408f      	lsls	r7, r1
    cdd0:	e7d0      	b.n	cd74 <__b2d+0x68>
    cdd2:	46c0      	nop			; (mov r8, r8)
    cdd4:	3ff00000 	.word	0x3ff00000

0000cdd8 <__d2b>:
    cdd8:	b570      	push	{r4, r5, r6, lr}
    cdda:	2101      	movs	r1, #1
    cddc:	b082      	sub	sp, #8
    cdde:	0015      	movs	r5, r2
    cde0:	001c      	movs	r4, r3
    cde2:	f7ff fb69 	bl	c4b8 <_Balloc>
    cde6:	1e06      	subs	r6, r0, #0
    cde8:	d051      	beq.n	ce8e <__d2b+0xb6>
    cdea:	0323      	lsls	r3, r4, #12
    cdec:	0064      	lsls	r4, r4, #1
    cdee:	0b1b      	lsrs	r3, r3, #12
    cdf0:	0d64      	lsrs	r4, r4, #21
    cdf2:	d002      	beq.n	cdfa <__d2b+0x22>
    cdf4:	2280      	movs	r2, #128	; 0x80
    cdf6:	0352      	lsls	r2, r2, #13
    cdf8:	4313      	orrs	r3, r2
    cdfa:	9301      	str	r3, [sp, #4]
    cdfc:	2d00      	cmp	r5, #0
    cdfe:	d119      	bne.n	ce34 <__d2b+0x5c>
    ce00:	a801      	add	r0, sp, #4
    ce02:	f7ff fc59 	bl	c6b8 <__lo0bits>
    ce06:	9b01      	ldr	r3, [sp, #4]
    ce08:	6173      	str	r3, [r6, #20]
    ce0a:	2301      	movs	r3, #1
    ce0c:	2501      	movs	r5, #1
    ce0e:	6133      	str	r3, [r6, #16]
    ce10:	3020      	adds	r0, #32
    ce12:	2c00      	cmp	r4, #0
    ce14:	d026      	beq.n	ce64 <__d2b+0x8c>
    ce16:	4b21      	ldr	r3, [pc, #132]	; (ce9c <__d2b+0xc4>)
    ce18:	469c      	mov	ip, r3
    ce1a:	9b06      	ldr	r3, [sp, #24]
    ce1c:	4464      	add	r4, ip
    ce1e:	1824      	adds	r4, r4, r0
    ce20:	601c      	str	r4, [r3, #0]
    ce22:	2335      	movs	r3, #53	; 0x35
    ce24:	1a18      	subs	r0, r3, r0
    ce26:	9b07      	ldr	r3, [sp, #28]
    ce28:	6018      	str	r0, [r3, #0]
    ce2a:	0030      	movs	r0, r6
    ce2c:	b002      	add	sp, #8
    ce2e:	bc70      	pop	{r4, r5, r6}
    ce30:	bc02      	pop	{r1}
    ce32:	4708      	bx	r1
    ce34:	4668      	mov	r0, sp
    ce36:	9500      	str	r5, [sp, #0]
    ce38:	f7ff fc3e 	bl	c6b8 <__lo0bits>
    ce3c:	2800      	cmp	r0, #0
    ce3e:	d022      	beq.n	ce86 <__d2b+0xae>
    ce40:	9d01      	ldr	r5, [sp, #4]
    ce42:	2320      	movs	r3, #32
    ce44:	002a      	movs	r2, r5
    ce46:	1a1b      	subs	r3, r3, r0
    ce48:	409a      	lsls	r2, r3
    ce4a:	0013      	movs	r3, r2
    ce4c:	40c5      	lsrs	r5, r0
    ce4e:	9a00      	ldr	r2, [sp, #0]
    ce50:	4313      	orrs	r3, r2
    ce52:	6173      	str	r3, [r6, #20]
    ce54:	9501      	str	r5, [sp, #4]
    ce56:	61b5      	str	r5, [r6, #24]
    ce58:	1e6b      	subs	r3, r5, #1
    ce5a:	419d      	sbcs	r5, r3
    ce5c:	3501      	adds	r5, #1
    ce5e:	6135      	str	r5, [r6, #16]
    ce60:	2c00      	cmp	r4, #0
    ce62:	d1d8      	bne.n	ce16 <__d2b+0x3e>
    ce64:	4b0e      	ldr	r3, [pc, #56]	; (cea0 <__d2b+0xc8>)
    ce66:	469c      	mov	ip, r3
    ce68:	9b06      	ldr	r3, [sp, #24]
    ce6a:	4460      	add	r0, ip
    ce6c:	6018      	str	r0, [r3, #0]
    ce6e:	4b0d      	ldr	r3, [pc, #52]	; (cea4 <__d2b+0xcc>)
    ce70:	18eb      	adds	r3, r5, r3
    ce72:	009b      	lsls	r3, r3, #2
    ce74:	18f3      	adds	r3, r6, r3
    ce76:	6958      	ldr	r0, [r3, #20]
    ce78:	f7ff fc02 	bl	c680 <__hi0bits>
    ce7c:	016d      	lsls	r5, r5, #5
    ce7e:	9b07      	ldr	r3, [sp, #28]
    ce80:	1a2d      	subs	r5, r5, r0
    ce82:	601d      	str	r5, [r3, #0]
    ce84:	e7d1      	b.n	ce2a <__d2b+0x52>
    ce86:	9b00      	ldr	r3, [sp, #0]
    ce88:	9d01      	ldr	r5, [sp, #4]
    ce8a:	6173      	str	r3, [r6, #20]
    ce8c:	e7e3      	b.n	ce56 <__d2b+0x7e>
    ce8e:	2200      	movs	r2, #0
    ce90:	4b05      	ldr	r3, [pc, #20]	; (cea8 <__d2b+0xd0>)
    ce92:	4906      	ldr	r1, [pc, #24]	; (ceac <__d2b+0xd4>)
    ce94:	4806      	ldr	r0, [pc, #24]	; (ceb0 <__d2b+0xd8>)
    ce96:	f001 f9ad 	bl	e1f4 <__assert_func>
    ce9a:	46c0      	nop			; (mov r8, r8)
    ce9c:	fffffbcd 	.word	0xfffffbcd
    cea0:	fffffbce 	.word	0xfffffbce
    cea4:	3fffffff 	.word	0x3fffffff
    cea8:	00010cb4 	.word	0x00010cb4
    ceac:	0000030a 	.word	0x0000030a
    ceb0:	00010d48 	.word	0x00010d48

0000ceb4 <__ratio>:
    ceb4:	b5f0      	push	{r4, r5, r6, r7, lr}
    ceb6:	46ce      	mov	lr, r9
    ceb8:	4647      	mov	r7, r8
    ceba:	b580      	push	{r7, lr}
    cebc:	b085      	sub	sp, #20
    cebe:	4688      	mov	r8, r1
    cec0:	a902      	add	r1, sp, #8
    cec2:	4681      	mov	r9, r0
    cec4:	f7ff ff22 	bl	cd0c <__b2d>
    cec8:	0004      	movs	r4, r0
    ceca:	000d      	movs	r5, r1
    cecc:	4640      	mov	r0, r8
    cece:	a903      	add	r1, sp, #12
    ced0:	f7ff ff1c 	bl	cd0c <__b2d>
    ced4:	0002      	movs	r2, r0
    ced6:	000b      	movs	r3, r1
    ced8:	4640      	mov	r0, r8
    ceda:	4649      	mov	r1, r9
    cedc:	6900      	ldr	r0, [r0, #16]
    cede:	6909      	ldr	r1, [r1, #16]
    cee0:	1a09      	subs	r1, r1, r0
    cee2:	0149      	lsls	r1, r1, #5
    cee4:	468c      	mov	ip, r1
    cee6:	9802      	ldr	r0, [sp, #8]
    cee8:	9903      	ldr	r1, [sp, #12]
    ceea:	1a40      	subs	r0, r0, r1
    ceec:	0001      	movs	r1, r0
    ceee:	4461      	add	r1, ip
    cef0:	9200      	str	r2, [sp, #0]
    cef2:	9301      	str	r3, [sp, #4]
    cef4:	2900      	cmp	r1, #0
    cef6:	dd0d      	ble.n	cf14 <__ratio+0x60>
    cef8:	0509      	lsls	r1, r1, #20
    cefa:	194f      	adds	r7, r1, r5
    cefc:	003d      	movs	r5, r7
    cefe:	0020      	movs	r0, r4
    cf00:	0029      	movs	r1, r5
    cf02:	f003 fdb3 	bl	10a6c <____aeabi_ddiv_from_thumb>
    cf06:	b005      	add	sp, #20
    cf08:	bcc0      	pop	{r6, r7}
    cf0a:	46b9      	mov	r9, r7
    cf0c:	46b0      	mov	r8, r6
    cf0e:	bcf0      	pop	{r4, r5, r6, r7}
    cf10:	bc04      	pop	{r2}
    cf12:	4710      	bx	r2
    cf14:	0509      	lsls	r1, r1, #20
    cf16:	1a5b      	subs	r3, r3, r1
    cf18:	9301      	str	r3, [sp, #4]
    cf1a:	9a00      	ldr	r2, [sp, #0]
    cf1c:	9b01      	ldr	r3, [sp, #4]
    cf1e:	e7ee      	b.n	cefe <__ratio+0x4a>

0000cf20 <_mprec_log10>:
    cf20:	b510      	push	{r4, lr}
    cf22:	0004      	movs	r4, r0
    cf24:	2817      	cmp	r0, #23
    cf26:	dd0b      	ble.n	cf40 <_mprec_log10+0x20>
    cf28:	2000      	movs	r0, #0
    cf2a:	4908      	ldr	r1, [pc, #32]	; (cf4c <_mprec_log10+0x2c>)
    cf2c:	2200      	movs	r2, #0
    cf2e:	4b08      	ldr	r3, [pc, #32]	; (cf50 <_mprec_log10+0x30>)
    cf30:	3c01      	subs	r4, #1
    cf32:	f003 fd59 	bl	109e8 <____aeabi_dmul_from_thumb>
    cf36:	2c00      	cmp	r4, #0
    cf38:	d1f8      	bne.n	cf2c <_mprec_log10+0xc>
    cf3a:	bc10      	pop	{r4}
    cf3c:	bc04      	pop	{r2}
    cf3e:	4710      	bx	r2
    cf40:	00c4      	lsls	r4, r0, #3
    cf42:	4804      	ldr	r0, [pc, #16]	; (cf54 <_mprec_log10+0x34>)
    cf44:	1904      	adds	r4, r0, r4
    cf46:	6820      	ldr	r0, [r4, #0]
    cf48:	6861      	ldr	r1, [r4, #4]
    cf4a:	e7f6      	b.n	cf3a <_mprec_log10+0x1a>
    cf4c:	3ff00000 	.word	0x3ff00000
    cf50:	40240000 	.word	0x40240000
    cf54:	00010df0 	.word	0x00010df0

0000cf58 <__copybits>:
    cf58:	0013      	movs	r3, r2
    cf5a:	3901      	subs	r1, #1
    cf5c:	b570      	push	{r4, r5, r6, lr}
    cf5e:	114c      	asrs	r4, r1, #5
    cf60:	6911      	ldr	r1, [r2, #16]
    cf62:	3401      	adds	r4, #1
    cf64:	3314      	adds	r3, #20
    cf66:	0089      	lsls	r1, r1, #2
    cf68:	00a4      	lsls	r4, r4, #2
    cf6a:	1859      	adds	r1, r3, r1
    cf6c:	1904      	adds	r4, r0, r4
    cf6e:	428b      	cmp	r3, r1
    cf70:	d20a      	bcs.n	cf88 <__copybits+0x30>
    cf72:	0005      	movs	r5, r0
    cf74:	cb40      	ldmia	r3!, {r6}
    cf76:	c540      	stmia	r5!, {r6}
    cf78:	4299      	cmp	r1, r3
    cf7a:	d8fb      	bhi.n	cf74 <__copybits+0x1c>
    cf7c:	1a8b      	subs	r3, r1, r2
    cf7e:	3b15      	subs	r3, #21
    cf80:	089b      	lsrs	r3, r3, #2
    cf82:	3301      	adds	r3, #1
    cf84:	009b      	lsls	r3, r3, #2
    cf86:	18c0      	adds	r0, r0, r3
    cf88:	4284      	cmp	r4, r0
    cf8a:	d903      	bls.n	cf94 <__copybits+0x3c>
    cf8c:	2300      	movs	r3, #0
    cf8e:	c008      	stmia	r0!, {r3}
    cf90:	4284      	cmp	r4, r0
    cf92:	d8fc      	bhi.n	cf8e <__copybits+0x36>
    cf94:	bc70      	pop	{r4, r5, r6}
    cf96:	bc01      	pop	{r0}
    cf98:	4700      	bx	r0
    cf9a:	46c0      	nop			; (mov r8, r8)

0000cf9c <__any_on>:
    cf9c:	0002      	movs	r2, r0
    cf9e:	6903      	ldr	r3, [r0, #16]
    cfa0:	b510      	push	{r4, lr}
    cfa2:	3214      	adds	r2, #20
    cfa4:	1148      	asrs	r0, r1, #5
    cfa6:	4283      	cmp	r3, r0
    cfa8:	da0c      	bge.n	cfc4 <__any_on+0x28>
    cfaa:	009b      	lsls	r3, r3, #2
    cfac:	18d3      	adds	r3, r2, r3
    cfae:	e003      	b.n	cfb8 <__any_on+0x1c>
    cfb0:	3b04      	subs	r3, #4
    cfb2:	6819      	ldr	r1, [r3, #0]
    cfb4:	2900      	cmp	r1, #0
    cfb6:	d119      	bne.n	cfec <__any_on+0x50>
    cfb8:	4293      	cmp	r3, r2
    cfba:	d8f9      	bhi.n	cfb0 <__any_on+0x14>
    cfbc:	2000      	movs	r0, #0
    cfbe:	bc10      	pop	{r4}
    cfc0:	bc02      	pop	{r1}
    cfc2:	4708      	bx	r1
    cfc4:	4283      	cmp	r3, r0
    cfc6:	dd0e      	ble.n	cfe6 <__any_on+0x4a>
    cfc8:	231f      	movs	r3, #31
    cfca:	001c      	movs	r4, r3
    cfcc:	400c      	ands	r4, r1
    cfce:	420b      	tst	r3, r1
    cfd0:	d009      	beq.n	cfe6 <__any_on+0x4a>
    cfd2:	0083      	lsls	r3, r0, #2
    cfd4:	18d3      	adds	r3, r2, r3
    cfd6:	6819      	ldr	r1, [r3, #0]
    cfd8:	40e1      	lsrs	r1, r4
    cfda:	40a1      	lsls	r1, r4
    cfdc:	681c      	ldr	r4, [r3, #0]
    cfde:	2001      	movs	r0, #1
    cfe0:	428c      	cmp	r4, r1
    cfe2:	d1ec      	bne.n	cfbe <__any_on+0x22>
    cfe4:	e7e8      	b.n	cfb8 <__any_on+0x1c>
    cfe6:	0083      	lsls	r3, r0, #2
    cfe8:	18d3      	adds	r3, r2, r3
    cfea:	e7e5      	b.n	cfb8 <__any_on+0x1c>
    cfec:	2001      	movs	r0, #1
    cfee:	e7e6      	b.n	cfbe <__any_on+0x22>

0000cff0 <frexp>:
    cff0:	b570      	push	{r4, r5, r6, lr}
    cff2:	0014      	movs	r4, r2
    cff4:	2500      	movs	r5, #0
    cff6:	6025      	str	r5, [r4, #0]
    cff8:	4d11      	ldr	r5, [pc, #68]	; (d040 <frexp+0x50>)
    cffa:	004b      	lsls	r3, r1, #1
    cffc:	000a      	movs	r2, r1
    cffe:	085b      	lsrs	r3, r3, #1
    d000:	42ab      	cmp	r3, r5
    d002:	dc19      	bgt.n	d038 <frexp+0x48>
    d004:	001d      	movs	r5, r3
    d006:	4305      	orrs	r5, r0
    d008:	d016      	beq.n	d038 <frexp+0x48>
    d00a:	4e0e      	ldr	r6, [pc, #56]	; (d044 <frexp+0x54>)
    d00c:	2500      	movs	r5, #0
    d00e:	4231      	tst	r1, r6
    d010:	d107      	bne.n	d022 <frexp+0x32>
    d012:	2200      	movs	r2, #0
    d014:	4b0c      	ldr	r3, [pc, #48]	; (d048 <frexp+0x58>)
    d016:	f003 fce7 	bl	109e8 <____aeabi_dmul_from_thumb>
    d01a:	000a      	movs	r2, r1
    d01c:	004b      	lsls	r3, r1, #1
    d01e:	085b      	lsrs	r3, r3, #1
    d020:	3d36      	subs	r5, #54	; 0x36
    d022:	4e0a      	ldr	r6, [pc, #40]	; (d04c <frexp+0x5c>)
    d024:	46b4      	mov	ip, r6
    d026:	151b      	asrs	r3, r3, #20
    d028:	4463      	add	r3, ip
    d02a:	195b      	adds	r3, r3, r5
    d02c:	6023      	str	r3, [r4, #0]
    d02e:	4b08      	ldr	r3, [pc, #32]	; (d050 <frexp+0x60>)
    d030:	401a      	ands	r2, r3
    d032:	4b08      	ldr	r3, [pc, #32]	; (d054 <frexp+0x64>)
    d034:	4313      	orrs	r3, r2
    d036:	0019      	movs	r1, r3
    d038:	bc70      	pop	{r4, r5, r6}
    d03a:	bc04      	pop	{r2}
    d03c:	4710      	bx	r2
    d03e:	46c0      	nop			; (mov r8, r8)
    d040:	7fefffff 	.word	0x7fefffff
    d044:	7ff00000 	.word	0x7ff00000
    d048:	43500000 	.word	0x43500000
    d04c:	fffffc02 	.word	0xfffffc02
    d050:	800fffff 	.word	0x800fffff
    d054:	3fe00000 	.word	0x3fe00000

0000d058 <_sbrk_r>:
    d058:	2300      	movs	r3, #0
    d05a:	b570      	push	{r4, r5, r6, lr}
    d05c:	4d07      	ldr	r5, [pc, #28]	; (d07c <_sbrk_r+0x24>)
    d05e:	0004      	movs	r4, r0
    d060:	0008      	movs	r0, r1
    d062:	602b      	str	r3, [r5, #0]
    d064:	f003 fc9a 	bl	1099c <_sbrk>
    d068:	1c43      	adds	r3, r0, #1
    d06a:	d002      	beq.n	d072 <_sbrk_r+0x1a>
    d06c:	bc70      	pop	{r4, r5, r6}
    d06e:	bc02      	pop	{r1}
    d070:	4708      	bx	r1
    d072:	682b      	ldr	r3, [r5, #0]
    d074:	2b00      	cmp	r3, #0
    d076:	d0f9      	beq.n	d06c <_sbrk_r+0x14>
    d078:	6023      	str	r3, [r4, #0]
    d07a:	e7f7      	b.n	d06c <_sbrk_r+0x14>
    d07c:	00021c30 	.word	0x00021c30

0000d080 <__sread>:
    d080:	b570      	push	{r4, r5, r6, lr}
    d082:	000c      	movs	r4, r1
    d084:	250e      	movs	r5, #14
    d086:	5f49      	ldrsh	r1, [r1, r5]
    d088:	f001 fd56 	bl	eb38 <_read_r>
    d08c:	2800      	cmp	r0, #0
    d08e:	db05      	blt.n	d09c <__sread+0x1c>
    d090:	6d23      	ldr	r3, [r4, #80]	; 0x50
    d092:	181b      	adds	r3, r3, r0
    d094:	6523      	str	r3, [r4, #80]	; 0x50
    d096:	bc70      	pop	{r4, r5, r6}
    d098:	bc02      	pop	{r1}
    d09a:	4708      	bx	r1
    d09c:	89a3      	ldrh	r3, [r4, #12]
    d09e:	4a02      	ldr	r2, [pc, #8]	; (d0a8 <__sread+0x28>)
    d0a0:	4013      	ands	r3, r2
    d0a2:	81a3      	strh	r3, [r4, #12]
    d0a4:	e7f7      	b.n	d096 <__sread+0x16>
    d0a6:	46c0      	nop			; (mov r8, r8)
    d0a8:	ffffefff 	.word	0xffffefff

0000d0ac <__seofread>:
    d0ac:	2000      	movs	r0, #0
    d0ae:	4770      	bx	lr

0000d0b0 <__swrite>:
    d0b0:	b5f8      	push	{r3, r4, r5, r6, r7, lr}
    d0b2:	000c      	movs	r4, r1
    d0b4:	001f      	movs	r7, r3
    d0b6:	230c      	movs	r3, #12
    d0b8:	5ec9      	ldrsh	r1, [r1, r3]
    d0ba:	0005      	movs	r5, r0
    d0bc:	0016      	movs	r6, r2
    d0be:	05cb      	lsls	r3, r1, #23
    d0c0:	d40c      	bmi.n	d0dc <__swrite+0x2c>
    d0c2:	4b0b      	ldr	r3, [pc, #44]	; (d0f0 <__swrite+0x40>)
    d0c4:	4019      	ands	r1, r3
    d0c6:	0032      	movs	r2, r6
    d0c8:	0028      	movs	r0, r5
    d0ca:	81a1      	strh	r1, [r4, #12]
    d0cc:	230e      	movs	r3, #14
    d0ce:	5ee1      	ldrsh	r1, [r4, r3]
    d0d0:	003b      	movs	r3, r7
    d0d2:	f001 f821 	bl	e118 <_write_r>
    d0d6:	bcf8      	pop	{r3, r4, r5, r6, r7}
    d0d8:	bc02      	pop	{r1}
    d0da:	4708      	bx	r1
    d0dc:	230e      	movs	r3, #14
    d0de:	5ee1      	ldrsh	r1, [r4, r3]
    d0e0:	2200      	movs	r2, #0
    d0e2:	2302      	movs	r3, #2
    d0e4:	f001 fc8c 	bl	ea00 <_lseek_r>
    d0e8:	230c      	movs	r3, #12
    d0ea:	5ee1      	ldrsh	r1, [r4, r3]
    d0ec:	e7e9      	b.n	d0c2 <__swrite+0x12>
    d0ee:	46c0      	nop			; (mov r8, r8)
    d0f0:	ffffefff 	.word	0xffffefff

0000d0f4 <__sseek>:
    d0f4:	b570      	push	{r4, r5, r6, lr}
    d0f6:	000c      	movs	r4, r1
    d0f8:	250e      	movs	r5, #14
    d0fa:	5f49      	ldrsh	r1, [r1, r5]
    d0fc:	f001 fc80 	bl	ea00 <_lseek_r>
    d100:	1c43      	adds	r3, r0, #1
    d102:	d008      	beq.n	d116 <__sseek+0x22>
    d104:	2380      	movs	r3, #128	; 0x80
    d106:	89a2      	ldrh	r2, [r4, #12]
    d108:	015b      	lsls	r3, r3, #5
    d10a:	4313      	orrs	r3, r2
    d10c:	81a3      	strh	r3, [r4, #12]
    d10e:	6520      	str	r0, [r4, #80]	; 0x50
    d110:	bc70      	pop	{r4, r5, r6}
    d112:	bc02      	pop	{r1}
    d114:	4708      	bx	r1
    d116:	89a3      	ldrh	r3, [r4, #12]
    d118:	4a01      	ldr	r2, [pc, #4]	; (d120 <__sseek+0x2c>)
    d11a:	4013      	ands	r3, r2
    d11c:	81a3      	strh	r3, [r4, #12]
    d11e:	e7f7      	b.n	d110 <__sseek+0x1c>
    d120:	ffffefff 	.word	0xffffefff

0000d124 <__sclose>:
    d124:	b510      	push	{r4, lr}
    d126:	230e      	movs	r3, #14
    d128:	5ec9      	ldrsh	r1, [r1, r3]
    d12a:	f001 f8e1 	bl	e2f0 <_close_r>
    d12e:	bc10      	pop	{r4}
    d130:	bc02      	pop	{r1}
    d132:	4708      	bx	r1

0000d134 <strlen>:
    d134:	b510      	push	{r4, lr}
    d136:	0783      	lsls	r3, r0, #30
    d138:	d00c      	beq.n	d154 <strlen+0x20>
    d13a:	0003      	movs	r3, r0
    d13c:	2103      	movs	r1, #3
    d13e:	e002      	b.n	d146 <strlen+0x12>
    d140:	3301      	adds	r3, #1
    d142:	420b      	tst	r3, r1
    d144:	d007      	beq.n	d156 <strlen+0x22>
    d146:	781a      	ldrb	r2, [r3, #0]
    d148:	2a00      	cmp	r2, #0
    d14a:	d1f9      	bne.n	d140 <strlen+0xc>
    d14c:	1a18      	subs	r0, r3, r0
    d14e:	bc10      	pop	{r4}
    d150:	bc02      	pop	{r1}
    d152:	4708      	bx	r1
    d154:	0003      	movs	r3, r0
    d156:	6819      	ldr	r1, [r3, #0]
    d158:	4a0c      	ldr	r2, [pc, #48]	; (d18c <strlen+0x58>)
    d15a:	4c0d      	ldr	r4, [pc, #52]	; (d190 <strlen+0x5c>)
    d15c:	188a      	adds	r2, r1, r2
    d15e:	438a      	bics	r2, r1
    d160:	4222      	tst	r2, r4
    d162:	d10f      	bne.n	d184 <strlen+0x50>
    d164:	6859      	ldr	r1, [r3, #4]
    d166:	4a09      	ldr	r2, [pc, #36]	; (d18c <strlen+0x58>)
    d168:	188a      	adds	r2, r1, r2
    d16a:	438a      	bics	r2, r1
    d16c:	3304      	adds	r3, #4
    d16e:	4222      	tst	r2, r4
    d170:	d108      	bne.n	d184 <strlen+0x50>
    d172:	6859      	ldr	r1, [r3, #4]
    d174:	4a05      	ldr	r2, [pc, #20]	; (d18c <strlen+0x58>)
    d176:	188a      	adds	r2, r1, r2
    d178:	438a      	bics	r2, r1
    d17a:	3304      	adds	r3, #4
    d17c:	4222      	tst	r2, r4
    d17e:	d0f1      	beq.n	d164 <strlen+0x30>
    d180:	e000      	b.n	d184 <strlen+0x50>
    d182:	3301      	adds	r3, #1
    d184:	781a      	ldrb	r2, [r3, #0]
    d186:	2a00      	cmp	r2, #0
    d188:	d1fb      	bne.n	d182 <strlen+0x4e>
    d18a:	e7df      	b.n	d14c <strlen+0x18>
    d18c:	fefefeff 	.word	0xfefefeff
    d190:	80808080 	.word	0x80808080

0000d194 <strncpy>:
    d194:	b5f0      	push	{r4, r5, r6, r7, lr}
    d196:	000d      	movs	r5, r1
    d198:	2403      	movs	r4, #3
    d19a:	4305      	orrs	r5, r0
    d19c:	0003      	movs	r3, r0
    d19e:	422c      	tst	r4, r5
    d1a0:	d101      	bne.n	d1a6 <strncpy+0x12>
    d1a2:	4294      	cmp	r4, r2
    d1a4:	d30f      	bcc.n	d1c6 <strncpy+0x32>
    d1a6:	0007      	movs	r7, r0
    d1a8:	2400      	movs	r4, #0
    d1aa:	18be      	adds	r6, r7, r2
    d1ac:	e006      	b.n	d1bc <strncpy+0x28>
    d1ae:	5d0d      	ldrb	r5, [r1, r4]
    d1b0:	3a01      	subs	r2, #1
    d1b2:	553d      	strb	r5, [r7, r4]
    d1b4:	1ab3      	subs	r3, r6, r2
    d1b6:	3401      	adds	r4, #1
    d1b8:	2d00      	cmp	r5, #0
    d1ba:	d018      	beq.n	d1ee <strncpy+0x5a>
    d1bc:	2a00      	cmp	r2, #0
    d1be:	d1f6      	bne.n	d1ae <strncpy+0x1a>
    d1c0:	bcf0      	pop	{r4, r5, r6, r7}
    d1c2:	bc02      	pop	{r1}
    d1c4:	4708      	bx	r1
    d1c6:	4c0e      	ldr	r4, [pc, #56]	; (d200 <strncpy+0x6c>)
    d1c8:	46a4      	mov	ip, r4
    d1ca:	e006      	b.n	d1da <strncpy+0x46>
    d1cc:	3304      	adds	r3, #4
    d1ce:	3a04      	subs	r2, #4
    d1d0:	001f      	movs	r7, r3
    d1d2:	6035      	str	r5, [r6, #0]
    d1d4:	3104      	adds	r1, #4
    d1d6:	2a03      	cmp	r2, #3
    d1d8:	d9e6      	bls.n	d1a8 <strncpy+0x14>
    d1da:	4667      	mov	r7, ip
    d1dc:	680d      	ldr	r5, [r1, #0]
    d1de:	4c09      	ldr	r4, [pc, #36]	; (d204 <strncpy+0x70>)
    d1e0:	192c      	adds	r4, r5, r4
    d1e2:	43ac      	bics	r4, r5
    d1e4:	001e      	movs	r6, r3
    d1e6:	423c      	tst	r4, r7
    d1e8:	d0f0      	beq.n	d1cc <strncpy+0x38>
    d1ea:	001f      	movs	r7, r3
    d1ec:	e7dc      	b.n	d1a8 <strncpy+0x14>
    d1ee:	2100      	movs	r1, #0
    d1f0:	2a00      	cmp	r2, #0
    d1f2:	d0e5      	beq.n	d1c0 <strncpy+0x2c>
    d1f4:	7019      	strb	r1, [r3, #0]
    d1f6:	3301      	adds	r3, #1
    d1f8:	429e      	cmp	r6, r3
    d1fa:	d1fb      	bne.n	d1f4 <strncpy+0x60>
    d1fc:	e7e0      	b.n	d1c0 <strncpy+0x2c>
    d1fe:	46c0      	nop			; (mov r8, r8)
    d200:	80808080 	.word	0x80808080
    d204:	fefefeff 	.word	0xfefefeff

0000d208 <__sprint_r.part.0>:
    d208:	b5f8      	push	{r3, r4, r5, r6, r7, lr}
    d20a:	464e      	mov	r6, r9
    d20c:	4645      	mov	r5, r8
    d20e:	46de      	mov	lr, fp
    d210:	4657      	mov	r7, sl
    d212:	6e4b      	ldr	r3, [r1, #100]	; 0x64
    d214:	b5e0      	push	{r5, r6, r7, lr}
    d216:	4691      	mov	r9, r2
    d218:	0006      	movs	r6, r0
    d21a:	000d      	movs	r5, r1
    d21c:	049b      	lsls	r3, r3, #18
    d21e:	d535      	bpl.n	d28c <__sprint_r.part.0+0x84>
    d220:	6813      	ldr	r3, [r2, #0]
    d222:	469a      	mov	sl, r3
    d224:	6893      	ldr	r3, [r2, #8]
    d226:	2b00      	cmp	r3, #0
    d228:	d02e      	beq.n	d288 <__sprint_r.part.0+0x80>
    d22a:	4652      	mov	r2, sl
    d22c:	6812      	ldr	r2, [r2, #0]
    d22e:	4690      	mov	r8, r2
    d230:	4652      	mov	r2, sl
    d232:	6852      	ldr	r2, [r2, #4]
    d234:	4693      	mov	fp, r2
    d236:	0897      	lsrs	r7, r2, #2
    d238:	d01b      	beq.n	d272 <__sprint_r.part.0+0x6a>
    d23a:	2400      	movs	r4, #0
    d23c:	e002      	b.n	d244 <__sprint_r.part.0+0x3c>
    d23e:	3401      	adds	r4, #1
    d240:	42a7      	cmp	r7, r4
    d242:	d014      	beq.n	d26e <__sprint_r.part.0+0x66>
    d244:	4642      	mov	r2, r8
    d246:	00a3      	lsls	r3, r4, #2
    d248:	58d1      	ldr	r1, [r2, r3]
    d24a:	0030      	movs	r0, r6
    d24c:	002a      	movs	r2, r5
    d24e:	f001 f95f 	bl	e510 <_fputwc_r>
    d252:	1c43      	adds	r3, r0, #1
    d254:	d1f3      	bne.n	d23e <__sprint_r.part.0+0x36>
    d256:	464a      	mov	r2, r9
    d258:	2300      	movs	r3, #0
    d25a:	6093      	str	r3, [r2, #8]
    d25c:	6053      	str	r3, [r2, #4]
    d25e:	bcf0      	pop	{r4, r5, r6, r7}
    d260:	46bb      	mov	fp, r7
    d262:	46b2      	mov	sl, r6
    d264:	46a9      	mov	r9, r5
    d266:	46a0      	mov	r8, r4
    d268:	bcf8      	pop	{r3, r4, r5, r6, r7}
    d26a:	bc02      	pop	{r1}
    d26c:	4708      	bx	r1
    d26e:	464b      	mov	r3, r9
    d270:	689b      	ldr	r3, [r3, #8]
    d272:	465a      	mov	r2, fp
    d274:	2103      	movs	r1, #3
    d276:	438a      	bics	r2, r1
    d278:	1a9b      	subs	r3, r3, r2
    d27a:	464a      	mov	r2, r9
    d27c:	6093      	str	r3, [r2, #8]
    d27e:	2208      	movs	r2, #8
    d280:	4694      	mov	ip, r2
    d282:	44e2      	add	sl, ip
    d284:	2b00      	cmp	r3, #0
    d286:	d1d0      	bne.n	d22a <__sprint_r.part.0+0x22>
    d288:	2000      	movs	r0, #0
    d28a:	e7e4      	b.n	d256 <__sprint_r.part.0+0x4e>
    d28c:	f001 f9c6 	bl	e61c <__sfvwrite_r>
    d290:	e7e1      	b.n	d256 <__sprint_r.part.0+0x4e>
    d292:	46c0      	nop			; (mov r8, r8)

0000d294 <__sprint_r>:
    d294:	6893      	ldr	r3, [r2, #8]
    d296:	b510      	push	{r4, lr}
    d298:	2b00      	cmp	r3, #0
    d29a:	d004      	beq.n	d2a6 <__sprint_r+0x12>
    d29c:	f7ff ffb4 	bl	d208 <__sprint_r.part.0>
    d2a0:	bc10      	pop	{r4}
    d2a2:	bc02      	pop	{r1}
    d2a4:	4708      	bx	r1
    d2a6:	2000      	movs	r0, #0
    d2a8:	6053      	str	r3, [r2, #4]
    d2aa:	e7f9      	b.n	d2a0 <__sprint_r+0xc>

0000d2ac <_vfiprintf_r>:
    d2ac:	b5f0      	push	{r4, r5, r6, r7, lr}
    d2ae:	46de      	mov	lr, fp
    d2b0:	4657      	mov	r7, sl
    d2b2:	464e      	mov	r6, r9
    d2b4:	4645      	mov	r5, r8
    d2b6:	b5e0      	push	{r5, r6, r7, lr}
    d2b8:	b0bf      	sub	sp, #252	; 0xfc
    d2ba:	468b      	mov	fp, r1
    d2bc:	4692      	mov	sl, r2
    d2be:	001c      	movs	r4, r3
    d2c0:	9002      	str	r0, [sp, #8]
    d2c2:	9308      	str	r3, [sp, #32]
    d2c4:	2800      	cmp	r0, #0
    d2c6:	d004      	beq.n	d2d2 <_vfiprintf_r+0x26>
    d2c8:	6b83      	ldr	r3, [r0, #56]	; 0x38
    d2ca:	9301      	str	r3, [sp, #4]
    d2cc:	2b00      	cmp	r3, #0
    d2ce:	d100      	bne.n	d2d2 <_vfiprintf_r+0x26>
    d2d0:	e174      	b.n	d5bc <_vfiprintf_r+0x310>
    d2d2:	465b      	mov	r3, fp
    d2d4:	6e5b      	ldr	r3, [r3, #100]	; 0x64
    d2d6:	07db      	lsls	r3, r3, #31
    d2d8:	d500      	bpl.n	d2dc <_vfiprintf_r+0x30>
    d2da:	e0bb      	b.n	d454 <_vfiprintf_r+0x1a8>
    d2dc:	465b      	mov	r3, fp
    d2de:	210c      	movs	r1, #12
    d2e0:	5e59      	ldrsh	r1, [r3, r1]
    d2e2:	040b      	lsls	r3, r1, #16
    d2e4:	0c1a      	lsrs	r2, r3, #16
    d2e6:	019b      	lsls	r3, r3, #6
    d2e8:	d400      	bmi.n	d2ec <_vfiprintf_r+0x40>
    d2ea:	e0af      	b.n	d44c <_vfiprintf_r+0x1a0>
    d2ec:	2380      	movs	r3, #128	; 0x80
    d2ee:	019b      	lsls	r3, r3, #6
    d2f0:	421a      	tst	r2, r3
    d2f2:	d10a      	bne.n	d30a <_vfiprintf_r+0x5e>
    d2f4:	430b      	orrs	r3, r1
    d2f6:	465a      	mov	r2, fp
    d2f8:	4659      	mov	r1, fp
    d2fa:	8193      	strh	r3, [r2, #12]
    d2fc:	6e49      	ldr	r1, [r1, #100]	; 0x64
    d2fe:	4ad2      	ldr	r2, [pc, #840]	; (d648 <_vfiprintf_r+0x39c>)
    d300:	400a      	ands	r2, r1
    d302:	4659      	mov	r1, fp
    d304:	041b      	lsls	r3, r3, #16
    d306:	664a      	str	r2, [r1, #100]	; 0x64
    d308:	0c1a      	lsrs	r2, r3, #16
    d30a:	0713      	lsls	r3, r2, #28
    d30c:	d559      	bpl.n	d3c2 <_vfiprintf_r+0x116>
    d30e:	465b      	mov	r3, fp
    d310:	691b      	ldr	r3, [r3, #16]
    d312:	2b00      	cmp	r3, #0
    d314:	d055      	beq.n	d3c2 <_vfiprintf_r+0x116>
    d316:	231a      	movs	r3, #26
    d318:	4013      	ands	r3, r2
    d31a:	2b0a      	cmp	r3, #10
    d31c:	d05f      	beq.n	d3de <_vfiprintf_r+0x132>
    d31e:	ab15      	add	r3, sp, #84	; 0x54
    d320:	9312      	str	r3, [sp, #72]	; 0x48
    d322:	2300      	movs	r3, #0
    d324:	4654      	mov	r4, sl
    d326:	9314      	str	r3, [sp, #80]	; 0x50
    d328:	9313      	str	r3, [sp, #76]	; 0x4c
    d32a:	930b      	str	r3, [sp, #44]	; 0x2c
    d32c:	930c      	str	r3, [sp, #48]	; 0x30
    d32e:	930e      	str	r3, [sp, #56]	; 0x38
    d330:	930d      	str	r3, [sp, #52]	; 0x34
    d332:	9305      	str	r3, [sp, #20]
    d334:	af15      	add	r7, sp, #84	; 0x54
    d336:	7823      	ldrb	r3, [r4, #0]
    d338:	0025      	movs	r5, r4
    d33a:	2b25      	cmp	r3, #37	; 0x25
    d33c:	d029      	beq.n	d392 <_vfiprintf_r+0xe6>
    d33e:	2b00      	cmp	r3, #0
    d340:	d027      	beq.n	d392 <_vfiprintf_r+0xe6>
    d342:	002e      	movs	r6, r5
    d344:	786b      	ldrb	r3, [r5, #1]
    d346:	3501      	adds	r5, #1
    d348:	2b00      	cmp	r3, #0
    d34a:	d001      	beq.n	d350 <_vfiprintf_r+0xa4>
    d34c:	2b25      	cmp	r3, #37	; 0x25
    d34e:	d1f8      	bne.n	d342 <_vfiprintf_r+0x96>
    d350:	1b2a      	subs	r2, r5, r4
    d352:	4690      	mov	r8, r2
    d354:	42a5      	cmp	r5, r4
    d356:	d01c      	beq.n	d392 <_vfiprintf_r+0xe6>
    d358:	9b14      	ldr	r3, [sp, #80]	; 0x50
    d35a:	607a      	str	r2, [r7, #4]
    d35c:	001a      	movs	r2, r3
    d35e:	9b13      	ldr	r3, [sp, #76]	; 0x4c
    d360:	4442      	add	r2, r8
    d362:	9301      	str	r3, [sp, #4]
    d364:	3301      	adds	r3, #1
    d366:	603c      	str	r4, [r7, #0]
    d368:	9214      	str	r2, [sp, #80]	; 0x50
    d36a:	9313      	str	r3, [sp, #76]	; 0x4c
    d36c:	3708      	adds	r7, #8
    d36e:	2b07      	cmp	r3, #7
    d370:	dd0b      	ble.n	d38a <_vfiprintf_r+0xde>
    d372:	2a00      	cmp	r2, #0
    d374:	d101      	bne.n	d37a <_vfiprintf_r+0xce>
    d376:	f000 fc60 	bl	dc3a <_vfiprintf_r+0x98e>
    d37a:	4659      	mov	r1, fp
    d37c:	9802      	ldr	r0, [sp, #8]
    d37e:	aa12      	add	r2, sp, #72	; 0x48
    d380:	f7ff ff42 	bl	d208 <__sprint_r.part.0>
    d384:	2800      	cmp	r0, #0
    d386:	d14c      	bne.n	d422 <_vfiprintf_r+0x176>
    d388:	af15      	add	r7, sp, #84	; 0x54
    d38a:	9b05      	ldr	r3, [sp, #20]
    d38c:	4443      	add	r3, r8
    d38e:	9305      	str	r3, [sp, #20]
    d390:	7873      	ldrb	r3, [r6, #1]
    d392:	2b00      	cmp	r3, #0
    d394:	d101      	bne.n	d39a <_vfiprintf_r+0xee>
    d396:	f000 fdb6 	bl	df06 <_vfiprintf_r+0xc5a>
    d39a:	2300      	movs	r3, #0
    d39c:	aa10      	add	r2, sp, #64	; 0x40
    d39e:	70d3      	strb	r3, [r2, #3]
    d3a0:	3b01      	subs	r3, #1
    d3a2:	469a      	mov	sl, r3
    d3a4:	2300      	movs	r3, #0
    d3a6:	786a      	ldrb	r2, [r5, #1]
    d3a8:	1c6c      	adds	r4, r5, #1
    d3aa:	4656      	mov	r6, sl
    d3ac:	001d      	movs	r5, r3
    d3ae:	9304      	str	r3, [sp, #16]
    d3b0:	3401      	adds	r4, #1
    d3b2:	0013      	movs	r3, r2
    d3b4:	3b20      	subs	r3, #32
    d3b6:	2b5a      	cmp	r3, #90	; 0x5a
    d3b8:	d852      	bhi.n	d460 <_vfiprintf_r+0x1b4>
    d3ba:	49a4      	ldr	r1, [pc, #656]	; (d64c <_vfiprintf_r+0x3a0>)
    d3bc:	009b      	lsls	r3, r3, #2
    d3be:	58cb      	ldr	r3, [r1, r3]
    d3c0:	469f      	mov	pc, r3
    d3c2:	4659      	mov	r1, fp
    d3c4:	9802      	ldr	r0, [sp, #8]
    d3c6:	f7fc fe33 	bl	a030 <__swsetup_r>
    d3ca:	465b      	mov	r3, fp
    d3cc:	2800      	cmp	r0, #0
    d3ce:	d001      	beq.n	d3d4 <_vfiprintf_r+0x128>
    d3d0:	f000 fe26 	bl	e020 <_vfiprintf_r+0xd74>
    d3d4:	899a      	ldrh	r2, [r3, #12]
    d3d6:	231a      	movs	r3, #26
    d3d8:	4013      	ands	r3, r2
    d3da:	2b0a      	cmp	r3, #10
    d3dc:	d19f      	bne.n	d31e <_vfiprintf_r+0x72>
    d3de:	465b      	mov	r3, fp
    d3e0:	210e      	movs	r1, #14
    d3e2:	5e5b      	ldrsh	r3, [r3, r1]
    d3e4:	2b00      	cmp	r3, #0
    d3e6:	db9a      	blt.n	d31e <_vfiprintf_r+0x72>
    d3e8:	465b      	mov	r3, fp
    d3ea:	6e5b      	ldr	r3, [r3, #100]	; 0x64
    d3ec:	07db      	lsls	r3, r3, #31
    d3ee:	d403      	bmi.n	d3f8 <_vfiprintf_r+0x14c>
    d3f0:	0593      	lsls	r3, r2, #22
    d3f2:	d401      	bmi.n	d3f8 <_vfiprintf_r+0x14c>
    d3f4:	f000 fdd6 	bl	dfa4 <_vfiprintf_r+0xcf8>
    d3f8:	0023      	movs	r3, r4
    d3fa:	4652      	mov	r2, sl
    d3fc:	4659      	mov	r1, fp
    d3fe:	9802      	ldr	r0, [sp, #8]
    d400:	f000 fe42 	bl	e088 <__sbprintf>
    d404:	9005      	str	r0, [sp, #20]
    d406:	e017      	b.n	d438 <_vfiprintf_r+0x18c>
    d408:	ab10      	add	r3, sp, #64	; 0x40
    d40a:	78db      	ldrb	r3, [r3, #3]
    d40c:	2b00      	cmp	r3, #0
    d40e:	d101      	bne.n	d414 <_vfiprintf_r+0x168>
    d410:	f000 fc74 	bl	dcfc <_vfiprintf_r+0xa50>
    d414:	7822      	ldrb	r2, [r4, #0]
    d416:	e7cb      	b.n	d3b0 <_vfiprintf_r+0x104>
    d418:	2320      	movs	r3, #32
    d41a:	7822      	ldrb	r2, [r4, #0]
    d41c:	431d      	orrs	r5, r3
    d41e:	e7c7      	b.n	d3b0 <_vfiprintf_r+0x104>
    d420:	46bb      	mov	fp, r7
    d422:	465b      	mov	r3, fp
    d424:	6e5b      	ldr	r3, [r3, #100]	; 0x64
    d426:	07db      	lsls	r3, r3, #31
    d428:	d400      	bmi.n	d42c <_vfiprintf_r+0x180>
    d42a:	e0bd      	b.n	d5a8 <_vfiprintf_r+0x2fc>
    d42c:	465b      	mov	r3, fp
    d42e:	899b      	ldrh	r3, [r3, #12]
    d430:	065b      	lsls	r3, r3, #25
    d432:	d501      	bpl.n	d438 <_vfiprintf_r+0x18c>
    d434:	f000 fdff 	bl	e036 <_vfiprintf_r+0xd8a>
    d438:	9805      	ldr	r0, [sp, #20]
    d43a:	b03f      	add	sp, #252	; 0xfc
    d43c:	bcf0      	pop	{r4, r5, r6, r7}
    d43e:	46bb      	mov	fp, r7
    d440:	46b2      	mov	sl, r6
    d442:	46a9      	mov	r9, r5
    d444:	46a0      	mov	r8, r4
    d446:	bcf0      	pop	{r4, r5, r6, r7}
    d448:	bc02      	pop	{r1}
    d44a:	4708      	bx	r1
    d44c:	465b      	mov	r3, fp
    d44e:	6d98      	ldr	r0, [r3, #88]	; 0x58
    d450:	f7fe fc18 	bl	bc84 <__retarget_lock_acquire_recursive>
    d454:	465b      	mov	r3, fp
    d456:	210c      	movs	r1, #12
    d458:	5e59      	ldrsh	r1, [r3, r1]
    d45a:	040a      	lsls	r2, r1, #16
    d45c:	0c12      	lsrs	r2, r2, #16
    d45e:	e745      	b.n	d2ec <_vfiprintf_r+0x40>
    d460:	46a8      	mov	r8, r5
    d462:	2a00      	cmp	r2, #0
    d464:	d101      	bne.n	d46a <_vfiprintf_r+0x1be>
    d466:	f000 fd4e 	bl	df06 <_vfiprintf_r+0xc5a>
    d46a:	2300      	movs	r3, #0
    d46c:	ad25      	add	r5, sp, #148	; 0x94
    d46e:	702a      	strb	r2, [r5, #0]
    d470:	aa10      	add	r2, sp, #64	; 0x40
    d472:	70d3      	strb	r3, [r2, #3]
    d474:	3301      	adds	r3, #1
    d476:	9301      	str	r3, [sp, #4]
    d478:	9303      	str	r3, [sp, #12]
    d47a:	2300      	movs	r3, #0
    d47c:	469a      	mov	sl, r3
    d47e:	2302      	movs	r3, #2
    d480:	4642      	mov	r2, r8
    d482:	401a      	ands	r2, r3
    d484:	9209      	str	r2, [sp, #36]	; 0x24
    d486:	4642      	mov	r2, r8
    d488:	4213      	tst	r3, r2
    d48a:	d002      	beq.n	d492 <_vfiprintf_r+0x1e6>
    d48c:	9b01      	ldr	r3, [sp, #4]
    d48e:	3302      	adds	r3, #2
    d490:	9301      	str	r3, [sp, #4]
    d492:	2384      	movs	r3, #132	; 0x84
    d494:	4642      	mov	r2, r8
    d496:	401a      	ands	r2, r3
    d498:	920a      	str	r2, [sp, #40]	; 0x28
    d49a:	4642      	mov	r2, r8
    d49c:	4213      	tst	r3, r2
    d49e:	d105      	bne.n	d4ac <_vfiprintf_r+0x200>
    d4a0:	9b04      	ldr	r3, [sp, #16]
    d4a2:	9a01      	ldr	r2, [sp, #4]
    d4a4:	1a9e      	subs	r6, r3, r2
    d4a6:	2e00      	cmp	r6, #0
    d4a8:	dd00      	ble.n	d4ac <_vfiprintf_r+0x200>
    d4aa:	e2d5      	b.n	da58 <_vfiprintf_r+0x7ac>
    d4ac:	9a13      	ldr	r2, [sp, #76]	; 0x4c
    d4ae:	9814      	ldr	r0, [sp, #80]	; 0x50
    d4b0:	1c51      	adds	r1, r2, #1
    d4b2:	ab10      	add	r3, sp, #64	; 0x40
    d4b4:	78db      	ldrb	r3, [r3, #3]
    d4b6:	2b00      	cmp	r3, #0
    d4b8:	d00d      	beq.n	d4d6 <_vfiprintf_r+0x22a>
    d4ba:	ab10      	add	r3, sp, #64	; 0x40
    d4bc:	3303      	adds	r3, #3
    d4be:	603b      	str	r3, [r7, #0]
    d4c0:	2301      	movs	r3, #1
    d4c2:	3001      	adds	r0, #1
    d4c4:	607b      	str	r3, [r7, #4]
    d4c6:	9014      	str	r0, [sp, #80]	; 0x50
    d4c8:	9113      	str	r1, [sp, #76]	; 0x4c
    d4ca:	2907      	cmp	r1, #7
    d4cc:	dd00      	ble.n	d4d0 <_vfiprintf_r+0x224>
    d4ce:	e2a8      	b.n	da22 <_vfiprintf_r+0x776>
    d4d0:	000a      	movs	r2, r1
    d4d2:	3708      	adds	r7, #8
    d4d4:	3101      	adds	r1, #1
    d4d6:	9b09      	ldr	r3, [sp, #36]	; 0x24
    d4d8:	2b00      	cmp	r3, #0
    d4da:	d018      	beq.n	d50e <_vfiprintf_r+0x262>
    d4dc:	ab11      	add	r3, sp, #68	; 0x44
    d4de:	603b      	str	r3, [r7, #0]
    d4e0:	2302      	movs	r3, #2
    d4e2:	3002      	adds	r0, #2
    d4e4:	607b      	str	r3, [r7, #4]
    d4e6:	9014      	str	r0, [sp, #80]	; 0x50
    d4e8:	9113      	str	r1, [sp, #76]	; 0x4c
    d4ea:	2907      	cmp	r1, #7
    d4ec:	dc00      	bgt.n	d4f0 <_vfiprintf_r+0x244>
    d4ee:	e2af      	b.n	da50 <_vfiprintf_r+0x7a4>
    d4f0:	2800      	cmp	r0, #0
    d4f2:	d100      	bne.n	d4f6 <_vfiprintf_r+0x24a>
    d4f4:	e3e0      	b.n	dcb8 <_vfiprintf_r+0xa0c>
    d4f6:	4659      	mov	r1, fp
    d4f8:	9802      	ldr	r0, [sp, #8]
    d4fa:	aa12      	add	r2, sp, #72	; 0x48
    d4fc:	f7ff fe84 	bl	d208 <__sprint_r.part.0>
    d500:	2800      	cmp	r0, #0
    d502:	d000      	beq.n	d506 <_vfiprintf_r+0x25a>
    d504:	e78d      	b.n	d422 <_vfiprintf_r+0x176>
    d506:	9a13      	ldr	r2, [sp, #76]	; 0x4c
    d508:	9814      	ldr	r0, [sp, #80]	; 0x50
    d50a:	1c51      	adds	r1, r2, #1
    d50c:	af15      	add	r7, sp, #84	; 0x54
    d50e:	9b0a      	ldr	r3, [sp, #40]	; 0x28
    d510:	2b80      	cmp	r3, #128	; 0x80
    d512:	d100      	bne.n	d516 <_vfiprintf_r+0x26a>
    d514:	e1e0      	b.n	d8d8 <_vfiprintf_r+0x62c>
    d516:	4653      	mov	r3, sl
    d518:	9e03      	ldr	r6, [sp, #12]
    d51a:	1b9e      	subs	r6, r3, r6
    d51c:	2e00      	cmp	r6, #0
    d51e:	dd00      	ble.n	d522 <_vfiprintf_r+0x276>
    d520:	e22f      	b.n	d982 <_vfiprintf_r+0x6d6>
    d522:	9b03      	ldr	r3, [sp, #12]
    d524:	469c      	mov	ip, r3
    d526:	4460      	add	r0, ip
    d528:	603d      	str	r5, [r7, #0]
    d52a:	607b      	str	r3, [r7, #4]
    d52c:	9014      	str	r0, [sp, #80]	; 0x50
    d52e:	9113      	str	r1, [sp, #76]	; 0x4c
    d530:	2907      	cmp	r1, #7
    d532:	dc00      	bgt.n	d536 <_vfiprintf_r+0x28a>
    d534:	e19e      	b.n	d874 <_vfiprintf_r+0x5c8>
    d536:	2800      	cmp	r0, #0
    d538:	d100      	bne.n	d53c <_vfiprintf_r+0x290>
    d53a:	e2f7      	b.n	db2c <_vfiprintf_r+0x880>
    d53c:	4659      	mov	r1, fp
    d53e:	9802      	ldr	r0, [sp, #8]
    d540:	aa12      	add	r2, sp, #72	; 0x48
    d542:	f7ff fe61 	bl	d208 <__sprint_r.part.0>
    d546:	2800      	cmp	r0, #0
    d548:	d000      	beq.n	d54c <_vfiprintf_r+0x2a0>
    d54a:	e76a      	b.n	d422 <_vfiprintf_r+0x176>
    d54c:	9814      	ldr	r0, [sp, #80]	; 0x50
    d54e:	ab15      	add	r3, sp, #84	; 0x54
    d550:	4642      	mov	r2, r8
    d552:	0752      	lsls	r2, r2, #29
    d554:	d505      	bpl.n	d562 <_vfiprintf_r+0x2b6>
    d556:	9a04      	ldr	r2, [sp, #16]
    d558:	9901      	ldr	r1, [sp, #4]
    d55a:	1a55      	subs	r5, r2, r1
    d55c:	2d00      	cmp	r5, #0
    d55e:	dd00      	ble.n	d562 <_vfiprintf_r+0x2b6>
    d560:	e2ee      	b.n	db40 <_vfiprintf_r+0x894>
    d562:	9b04      	ldr	r3, [sp, #16]
    d564:	9a01      	ldr	r2, [sp, #4]
    d566:	4293      	cmp	r3, r2
    d568:	da00      	bge.n	d56c <_vfiprintf_r+0x2c0>
    d56a:	0013      	movs	r3, r2
    d56c:	9a05      	ldr	r2, [sp, #20]
    d56e:	4694      	mov	ip, r2
    d570:	449c      	add	ip, r3
    d572:	4663      	mov	r3, ip
    d574:	9305      	str	r3, [sp, #20]
    d576:	2800      	cmp	r0, #0
    d578:	d000      	beq.n	d57c <_vfiprintf_r+0x2d0>
    d57a:	e245      	b.n	da08 <_vfiprintf_r+0x75c>
    d57c:	2300      	movs	r3, #0
    d57e:	af15      	add	r7, sp, #84	; 0x54
    d580:	9313      	str	r3, [sp, #76]	; 0x4c
    d582:	e6d8      	b.n	d336 <_vfiprintf_r+0x8a>
    d584:	3a30      	subs	r2, #48	; 0x30
    d586:	0020      	movs	r0, r4
    d588:	2300      	movs	r3, #0
    d58a:	0011      	movs	r1, r2
    d58c:	009a      	lsls	r2, r3, #2
    d58e:	18d3      	adds	r3, r2, r3
    d590:	0002      	movs	r2, r0
    d592:	7812      	ldrb	r2, [r2, #0]
    d594:	005b      	lsls	r3, r3, #1
    d596:	18cb      	adds	r3, r1, r3
    d598:	0011      	movs	r1, r2
    d59a:	3001      	adds	r0, #1
    d59c:	3930      	subs	r1, #48	; 0x30
    d59e:	0004      	movs	r4, r0
    d5a0:	2909      	cmp	r1, #9
    d5a2:	d9f3      	bls.n	d58c <_vfiprintf_r+0x2e0>
    d5a4:	9304      	str	r3, [sp, #16]
    d5a6:	e704      	b.n	d3b2 <_vfiprintf_r+0x106>
    d5a8:	465b      	mov	r3, fp
    d5aa:	899b      	ldrh	r3, [r3, #12]
    d5ac:	059a      	lsls	r2, r3, #22
    d5ae:	d500      	bpl.n	d5b2 <_vfiprintf_r+0x306>
    d5b0:	e73e      	b.n	d430 <_vfiprintf_r+0x184>
    d5b2:	465b      	mov	r3, fp
    d5b4:	6d98      	ldr	r0, [r3, #88]	; 0x58
    d5b6:	f7fe fb6d 	bl	bc94 <__retarget_lock_release_recursive>
    d5ba:	e737      	b.n	d42c <_vfiprintf_r+0x180>
    d5bc:	f7fe f86a 	bl	b694 <__sinit>
    d5c0:	e687      	b.n	d2d2 <_vfiprintf_r+0x26>
    d5c2:	46b2      	mov	sl, r6
    d5c4:	2300      	movs	r3, #0
    d5c6:	9e08      	ldr	r6, [sp, #32]
    d5c8:	46a8      	mov	r8, r5
    d5ca:	ce20      	ldmia	r6!, {r5}
    d5cc:	aa10      	add	r2, sp, #64	; 0x40
    d5ce:	70d3      	strb	r3, [r2, #3]
    d5d0:	4653      	mov	r3, sl
    d5d2:	2d00      	cmp	r5, #0
    d5d4:	d101      	bne.n	d5da <_vfiprintf_r+0x32e>
    d5d6:	f000 fc8d 	bl	def4 <_vfiprintf_r+0xc48>
    d5da:	3301      	adds	r3, #1
    d5dc:	d101      	bne.n	d5e2 <_vfiprintf_r+0x336>
    d5de:	f000 fc00 	bl	dde2 <_vfiprintf_r+0xb36>
    d5e2:	4652      	mov	r2, sl
    d5e4:	2100      	movs	r1, #0
    d5e6:	0028      	movs	r0, r5
    d5e8:	f7fe fec2 	bl	c370 <memchr>
    d5ec:	2800      	cmp	r0, #0
    d5ee:	d101      	bne.n	d5f4 <_vfiprintf_r+0x348>
    d5f0:	f000 fcf5 	bl	dfde <_vfiprintf_r+0xd32>
    d5f4:	1b43      	subs	r3, r0, r5
    d5f6:	9303      	str	r3, [sp, #12]
    d5f8:	2300      	movs	r3, #0
    d5fa:	9608      	str	r6, [sp, #32]
    d5fc:	469a      	mov	sl, r3
    d5fe:	e0a3      	b.n	d748 <_vfiprintf_r+0x49c>
    d600:	9e08      	ldr	r6, [sp, #32]
    d602:	ce08      	ldmia	r6!, {r3}
    d604:	46a8      	mov	r8, r5
    d606:	ad25      	add	r5, sp, #148	; 0x94
    d608:	702b      	strb	r3, [r5, #0]
    d60a:	2300      	movs	r3, #0
    d60c:	aa10      	add	r2, sp, #64	; 0x40
    d60e:	70d3      	strb	r3, [r2, #3]
    d610:	3301      	adds	r3, #1
    d612:	9608      	str	r6, [sp, #32]
    d614:	9301      	str	r3, [sp, #4]
    d616:	9303      	str	r3, [sp, #12]
    d618:	e72f      	b.n	d47a <_vfiprintf_r+0x1ce>
    d61a:	9b08      	ldr	r3, [sp, #32]
    d61c:	cb04      	ldmia	r3!, {r2}
    d61e:	9204      	str	r2, [sp, #16]
    d620:	2a00      	cmp	r2, #0
    d622:	db00      	blt.n	d626 <_vfiprintf_r+0x37a>
    d624:	e361      	b.n	dcea <_vfiprintf_r+0xa3e>
    d626:	9a04      	ldr	r2, [sp, #16]
    d628:	4252      	negs	r2, r2
    d62a:	9204      	str	r2, [sp, #16]
    d62c:	9308      	str	r3, [sp, #32]
    d62e:	2304      	movs	r3, #4
    d630:	7822      	ldrb	r2, [r4, #0]
    d632:	431d      	orrs	r5, r3
    d634:	e6bc      	b.n	d3b0 <_vfiprintf_r+0x104>
    d636:	232b      	movs	r3, #43	; 0x2b
    d638:	aa10      	add	r2, sp, #64	; 0x40
    d63a:	70d3      	strb	r3, [r2, #3]
    d63c:	7822      	ldrb	r2, [r4, #0]
    d63e:	e6b7      	b.n	d3b0 <_vfiprintf_r+0x104>
    d640:	2380      	movs	r3, #128	; 0x80
    d642:	7822      	ldrb	r2, [r4, #0]
    d644:	431d      	orrs	r5, r3
    d646:	e6b3      	b.n	d3b0 <_vfiprintf_r+0x104>
    d648:	ffffdfff 	.word	0xffffdfff
    d64c:	00010eec 	.word	0x00010eec
    d650:	7822      	ldrb	r2, [r4, #0]
    d652:	1c63      	adds	r3, r4, #1
    d654:	2a2a      	cmp	r2, #42	; 0x2a
    d656:	d101      	bne.n	d65c <_vfiprintf_r+0x3b0>
    d658:	f000 fcf6 	bl	e048 <_vfiprintf_r+0xd9c>
    d65c:	0011      	movs	r1, r2
    d65e:	3930      	subs	r1, #48	; 0x30
    d660:	0018      	movs	r0, r3
    d662:	2600      	movs	r6, #0
    d664:	001c      	movs	r4, r3
    d666:	2909      	cmp	r1, #9
    d668:	d900      	bls.n	d66c <_vfiprintf_r+0x3c0>
    d66a:	e6a2      	b.n	d3b2 <_vfiprintf_r+0x106>
    d66c:	00b3      	lsls	r3, r6, #2
    d66e:	199e      	adds	r6, r3, r6
    d670:	0003      	movs	r3, r0
    d672:	781a      	ldrb	r2, [r3, #0]
    d674:	0076      	lsls	r6, r6, #1
    d676:	1876      	adds	r6, r6, r1
    d678:	0011      	movs	r1, r2
    d67a:	3001      	adds	r0, #1
    d67c:	3930      	subs	r1, #48	; 0x30
    d67e:	0004      	movs	r4, r0
    d680:	2909      	cmp	r1, #9
    d682:	d9f3      	bls.n	d66c <_vfiprintf_r+0x3c0>
    d684:	e695      	b.n	d3b2 <_vfiprintf_r+0x106>
    d686:	9b02      	ldr	r3, [sp, #8]
    d688:	0018      	movs	r0, r3
    d68a:	4699      	mov	r9, r3
    d68c:	f7fe fae8 	bl	bc60 <_localeconv_r>
    d690:	6843      	ldr	r3, [r0, #4]
    d692:	0018      	movs	r0, r3
    d694:	930d      	str	r3, [sp, #52]	; 0x34
    d696:	f7ff fd4d 	bl	d134 <strlen>
    d69a:	4680      	mov	r8, r0
    d69c:	900e      	str	r0, [sp, #56]	; 0x38
    d69e:	4648      	mov	r0, r9
    d6a0:	f7fe fade 	bl	bc60 <_localeconv_r>
    d6a4:	4642      	mov	r2, r8
    d6a6:	6883      	ldr	r3, [r0, #8]
    d6a8:	930c      	str	r3, [sp, #48]	; 0x30
    d6aa:	2a00      	cmp	r2, #0
    d6ac:	d100      	bne.n	d6b0 <_vfiprintf_r+0x404>
    d6ae:	e6b1      	b.n	d414 <_vfiprintf_r+0x168>
    d6b0:	2b00      	cmp	r3, #0
    d6b2:	d100      	bne.n	d6b6 <_vfiprintf_r+0x40a>
    d6b4:	e6ae      	b.n	d414 <_vfiprintf_r+0x168>
    d6b6:	9b0c      	ldr	r3, [sp, #48]	; 0x30
    d6b8:	781b      	ldrb	r3, [r3, #0]
    d6ba:	2b00      	cmp	r3, #0
    d6bc:	d100      	bne.n	d6c0 <_vfiprintf_r+0x414>
    d6be:	e6a9      	b.n	d414 <_vfiprintf_r+0x168>
    d6c0:	2380      	movs	r3, #128	; 0x80
    d6c2:	00db      	lsls	r3, r3, #3
    d6c4:	7822      	ldrb	r2, [r4, #0]
    d6c6:	431d      	orrs	r5, r3
    d6c8:	e672      	b.n	d3b0 <_vfiprintf_r+0x104>
    d6ca:	2301      	movs	r3, #1
    d6cc:	7822      	ldrb	r2, [r4, #0]
    d6ce:	431d      	orrs	r5, r3
    d6d0:	e66e      	b.n	d3b0 <_vfiprintf_r+0x104>
    d6d2:	46b2      	mov	sl, r6
    d6d4:	002b      	movs	r3, r5
    d6d6:	2610      	movs	r6, #16
    d6d8:	4333      	orrs	r3, r6
    d6da:	001e      	movs	r6, r3
    d6dc:	06b3      	lsls	r3, r6, #26
    d6de:	d400      	bmi.n	d6e2 <_vfiprintf_r+0x436>
    d6e0:	e2b3      	b.n	dc4a <_vfiprintf_r+0x99e>
    d6e2:	2207      	movs	r2, #7
    d6e4:	9b08      	ldr	r3, [sp, #32]
    d6e6:	3307      	adds	r3, #7
    d6e8:	4393      	bics	r3, r2
    d6ea:	0019      	movs	r1, r3
    d6ec:	c90c      	ldmia	r1!, {r2, r3}
    d6ee:	9206      	str	r2, [sp, #24]
    d6f0:	9307      	str	r3, [sp, #28]
    d6f2:	2301      	movs	r3, #1
    d6f4:	9108      	str	r1, [sp, #32]
    d6f6:	2200      	movs	r2, #0
    d6f8:	a910      	add	r1, sp, #64	; 0x40
    d6fa:	70ca      	strb	r2, [r1, #3]
    d6fc:	4652      	mov	r2, sl
    d6fe:	3201      	adds	r2, #1
    d700:	d100      	bne.n	d704 <_vfiprintf_r+0x458>
    d702:	e0bb      	b.n	d87c <_vfiprintf_r+0x5d0>
    d704:	2280      	movs	r2, #128	; 0x80
    d706:	0031      	movs	r1, r6
    d708:	4391      	bics	r1, r2
    d70a:	4688      	mov	r8, r1
    d70c:	9906      	ldr	r1, [sp, #24]
    d70e:	9a07      	ldr	r2, [sp, #28]
    d710:	0008      	movs	r0, r1
    d712:	4310      	orrs	r0, r2
    d714:	d000      	beq.n	d718 <_vfiprintf_r+0x46c>
    d716:	e0b0      	b.n	d87a <_vfiprintf_r+0x5ce>
    d718:	4652      	mov	r2, sl
    d71a:	2a00      	cmp	r2, #0
    d71c:	d000      	beq.n	d720 <_vfiprintf_r+0x474>
    d71e:	e0ac      	b.n	d87a <_vfiprintf_r+0x5ce>
    d720:	2b00      	cmp	r3, #0
    d722:	d000      	beq.n	d726 <_vfiprintf_r+0x47a>
    d724:	e25c      	b.n	dbe0 <_vfiprintf_r+0x934>
    d726:	3301      	adds	r3, #1
    d728:	001a      	movs	r2, r3
    d72a:	4032      	ands	r2, r6
    d72c:	9203      	str	r2, [sp, #12]
    d72e:	4233      	tst	r3, r6
    d730:	d100      	bne.n	d734 <_vfiprintf_r+0x488>
    d732:	e286      	b.n	dc42 <_vfiprintf_r+0x996>
    d734:	2130      	movs	r1, #48	; 0x30
    d736:	3362      	adds	r3, #98	; 0x62
    d738:	aa25      	add	r2, sp, #148	; 0x94
    d73a:	54d1      	strb	r1, [r2, r3]
    d73c:	2300      	movs	r3, #0
    d73e:	469a      	mov	sl, r3
    d740:	ab10      	add	r3, sp, #64	; 0x40
    d742:	25b7      	movs	r5, #183	; 0xb7
    d744:	469c      	mov	ip, r3
    d746:	4465      	add	r5, ip
    d748:	4653      	mov	r3, sl
    d74a:	9301      	str	r3, [sp, #4]
    d74c:	9b03      	ldr	r3, [sp, #12]
    d74e:	459a      	cmp	sl, r3
    d750:	da00      	bge.n	d754 <_vfiprintf_r+0x4a8>
    d752:	9301      	str	r3, [sp, #4]
    d754:	ab10      	add	r3, sp, #64	; 0x40
    d756:	78db      	ldrb	r3, [r3, #3]
    d758:	1e5a      	subs	r2, r3, #1
    d75a:	4193      	sbcs	r3, r2
    d75c:	9a01      	ldr	r2, [sp, #4]
    d75e:	4694      	mov	ip, r2
    d760:	449c      	add	ip, r3
    d762:	4663      	mov	r3, ip
    d764:	9301      	str	r3, [sp, #4]
    d766:	e68a      	b.n	d47e <_vfiprintf_r+0x1d2>
    d768:	2310      	movs	r3, #16
    d76a:	002a      	movs	r2, r5
    d76c:	431a      	orrs	r2, r3
    d76e:	46b2      	mov	sl, r6
    d770:	4690      	mov	r8, r2
    d772:	4643      	mov	r3, r8
    d774:	069b      	lsls	r3, r3, #26
    d776:	d400      	bmi.n	d77a <_vfiprintf_r+0x4ce>
    d778:	e289      	b.n	dc8e <_vfiprintf_r+0x9e2>
    d77a:	2307      	movs	r3, #7
    d77c:	9e08      	ldr	r6, [sp, #32]
    d77e:	3607      	adds	r6, #7
    d780:	439e      	bics	r6, r3
    d782:	0031      	movs	r1, r6
    d784:	c90c      	ldmia	r1!, {r2, r3}
    d786:	9206      	str	r2, [sp, #24]
    d788:	9307      	str	r3, [sp, #28]
    d78a:	9108      	str	r1, [sp, #32]
    d78c:	4643      	mov	r3, r8
    d78e:	4ed4      	ldr	r6, [pc, #848]	; (dae0 <_vfiprintf_r+0x834>)
    d790:	4033      	ands	r3, r6
    d792:	001e      	movs	r6, r3
    d794:	2300      	movs	r3, #0
    d796:	e7ae      	b.n	d6f6 <_vfiprintf_r+0x44a>
    d798:	2310      	movs	r3, #16
    d79a:	002a      	movs	r2, r5
    d79c:	431a      	orrs	r2, r3
    d79e:	46b2      	mov	sl, r6
    d7a0:	4690      	mov	r8, r2
    d7a2:	4643      	mov	r3, r8
    d7a4:	069b      	lsls	r3, r3, #26
    d7a6:	d400      	bmi.n	d7aa <_vfiprintf_r+0x4fe>
    d7a8:	e259      	b.n	dc5e <_vfiprintf_r+0x9b2>
    d7aa:	2307      	movs	r3, #7
    d7ac:	9e08      	ldr	r6, [sp, #32]
    d7ae:	3607      	adds	r6, #7
    d7b0:	439e      	bics	r6, r3
    d7b2:	3301      	adds	r3, #1
    d7b4:	469c      	mov	ip, r3
    d7b6:	44b4      	add	ip, r6
    d7b8:	4663      	mov	r3, ip
    d7ba:	6832      	ldr	r2, [r6, #0]
    d7bc:	9308      	str	r3, [sp, #32]
    d7be:	6873      	ldr	r3, [r6, #4]
    d7c0:	9206      	str	r2, [sp, #24]
    d7c2:	9307      	str	r3, [sp, #28]
    d7c4:	2b00      	cmp	r3, #0
    d7c6:	da00      	bge.n	d7ca <_vfiprintf_r+0x51e>
    d7c8:	e254      	b.n	dc74 <_vfiprintf_r+0x9c8>
    d7ca:	4653      	mov	r3, sl
    d7cc:	3301      	adds	r3, #1
    d7ce:	d100      	bne.n	d7d2 <_vfiprintf_r+0x526>
    d7d0:	e20b      	b.n	dbea <_vfiprintf_r+0x93e>
    d7d2:	2380      	movs	r3, #128	; 0x80
    d7d4:	4642      	mov	r2, r8
    d7d6:	439a      	bics	r2, r3
    d7d8:	4653      	mov	r3, sl
    d7da:	4690      	mov	r8, r2
    d7dc:	2b00      	cmp	r3, #0
    d7de:	d000      	beq.n	d7e2 <_vfiprintf_r+0x536>
    d7e0:	e203      	b.n	dbea <_vfiprintf_r+0x93e>
    d7e2:	9a06      	ldr	r2, [sp, #24]
    d7e4:	9b07      	ldr	r3, [sp, #28]
    d7e6:	0011      	movs	r1, r2
    d7e8:	4319      	orrs	r1, r3
    d7ea:	d000      	beq.n	d7ee <_vfiprintf_r+0x542>
    d7ec:	e1fd      	b.n	dbea <_vfiprintf_r+0x93e>
    d7ee:	468a      	mov	sl, r1
    d7f0:	9103      	str	r1, [sp, #12]
    d7f2:	ad3e      	add	r5, sp, #248	; 0xf8
    d7f4:	e7a8      	b.n	d748 <_vfiprintf_r+0x49c>
    d7f6:	9b08      	ldr	r3, [sp, #32]
    d7f8:	cb04      	ldmia	r3!, {r2}
    d7fa:	9206      	str	r2, [sp, #24]
    d7fc:	2200      	movs	r2, #0
    d7fe:	46b2      	mov	sl, r6
    d800:	9207      	str	r2, [sp, #28]
    d802:	2602      	movs	r6, #2
    d804:	002a      	movs	r2, r5
    d806:	2130      	movs	r1, #48	; 0x30
    d808:	4332      	orrs	r2, r6
    d80a:	0016      	movs	r6, r2
    d80c:	9308      	str	r3, [sp, #32]
    d80e:	aa11      	add	r2, sp, #68	; 0x44
    d810:	4bb4      	ldr	r3, [pc, #720]	; (dae4 <_vfiprintf_r+0x838>)
    d812:	7011      	strb	r1, [r2, #0]
    d814:	3148      	adds	r1, #72	; 0x48
    d816:	930b      	str	r3, [sp, #44]	; 0x2c
    d818:	7051      	strb	r1, [r2, #1]
    d81a:	2302      	movs	r3, #2
    d81c:	e76b      	b.n	d6f6 <_vfiprintf_r+0x44a>
    d81e:	002b      	movs	r3, r5
    d820:	069b      	lsls	r3, r3, #26
    d822:	d500      	bpl.n	d826 <_vfiprintf_r+0x57a>
    d824:	e270      	b.n	dd08 <_vfiprintf_r+0xa5c>
    d826:	002b      	movs	r3, r5
    d828:	06db      	lsls	r3, r3, #27
    d82a:	d500      	bpl.n	d82e <_vfiprintf_r+0x582>
    d82c:	e35b      	b.n	dee6 <_vfiprintf_r+0xc3a>
    d82e:	002b      	movs	r3, r5
    d830:	065b      	lsls	r3, r3, #25
    d832:	d500      	bpl.n	d836 <_vfiprintf_r+0x58a>
    d834:	e3af      	b.n	df96 <_vfiprintf_r+0xcea>
    d836:	002b      	movs	r3, r5
    d838:	059b      	lsls	r3, r3, #22
    d83a:	d400      	bmi.n	d83e <_vfiprintf_r+0x592>
    d83c:	e353      	b.n	dee6 <_vfiprintf_r+0xc3a>
    d83e:	9e08      	ldr	r6, [sp, #32]
    d840:	9a05      	ldr	r2, [sp, #20]
    d842:	ce08      	ldmia	r6!, {r3}
    d844:	701a      	strb	r2, [r3, #0]
    d846:	9608      	str	r6, [sp, #32]
    d848:	e575      	b.n	d336 <_vfiprintf_r+0x8a>
    d84a:	7822      	ldrb	r2, [r4, #0]
    d84c:	2a6c      	cmp	r2, #108	; 0x6c
    d84e:	d100      	bne.n	d852 <_vfiprintf_r+0x5a6>
    d850:	e343      	b.n	deda <_vfiprintf_r+0xc2e>
    d852:	2310      	movs	r3, #16
    d854:	431d      	orrs	r5, r3
    d856:	e5ab      	b.n	d3b0 <_vfiprintf_r+0x104>
    d858:	7822      	ldrb	r2, [r4, #0]
    d85a:	2a68      	cmp	r2, #104	; 0x68
    d85c:	d100      	bne.n	d860 <_vfiprintf_r+0x5b4>
    d85e:	e335      	b.n	decc <_vfiprintf_r+0xc20>
    d860:	2340      	movs	r3, #64	; 0x40
    d862:	431d      	orrs	r5, r3
    d864:	e5a4      	b.n	d3b0 <_vfiprintf_r+0x104>
    d866:	2301      	movs	r3, #1
    d868:	9803      	ldr	r0, [sp, #12]
    d86a:	9515      	str	r5, [sp, #84]	; 0x54
    d86c:	9016      	str	r0, [sp, #88]	; 0x58
    d86e:	9014      	str	r0, [sp, #80]	; 0x50
    d870:	9313      	str	r3, [sp, #76]	; 0x4c
    d872:	af15      	add	r7, sp, #84	; 0x54
    d874:	003b      	movs	r3, r7
    d876:	3308      	adds	r3, #8
    d878:	e66a      	b.n	d550 <_vfiprintf_r+0x2a4>
    d87a:	4646      	mov	r6, r8
    d87c:	2b01      	cmp	r3, #1
    d87e:	d100      	bne.n	d882 <_vfiprintf_r+0x5d6>
    d880:	e1b4      	b.n	dbec <_vfiprintf_r+0x940>
    d882:	ad3e      	add	r5, sp, #248	; 0xf8
    d884:	2b02      	cmp	r3, #2
    d886:	d100      	bne.n	d88a <_vfiprintf_r+0x5de>
    d888:	e132      	b.n	daf0 <_vfiprintf_r+0x844>
    d88a:	2307      	movs	r3, #7
    d88c:	46bc      	mov	ip, r7
    d88e:	46a1      	mov	r9, r4
    d890:	4698      	mov	r8, r3
    d892:	9601      	str	r6, [sp, #4]
    d894:	9a06      	ldr	r2, [sp, #24]
    d896:	9b07      	ldr	r3, [sp, #28]
    d898:	075c      	lsls	r4, r3, #29
    d89a:	08d6      	lsrs	r6, r2, #3
    d89c:	4641      	mov	r1, r8
    d89e:	08d8      	lsrs	r0, r3, #3
    d8a0:	4334      	orrs	r4, r6
    d8a2:	0003      	movs	r3, r0
    d8a4:	0020      	movs	r0, r4
    d8a6:	4011      	ands	r1, r2
    d8a8:	002f      	movs	r7, r5
    d8aa:	3130      	adds	r1, #48	; 0x30
    d8ac:	3d01      	subs	r5, #1
    d8ae:	0022      	movs	r2, r4
    d8b0:	7029      	strb	r1, [r5, #0]
    d8b2:	4318      	orrs	r0, r3
    d8b4:	d1f0      	bne.n	d898 <_vfiprintf_r+0x5ec>
    d8b6:	9206      	str	r2, [sp, #24]
    d8b8:	9307      	str	r3, [sp, #28]
    d8ba:	4662      	mov	r2, ip
    d8bc:	464c      	mov	r4, r9
    d8be:	46bc      	mov	ip, r7
    d8c0:	9e01      	ldr	r6, [sp, #4]
    d8c2:	0017      	movs	r7, r2
    d8c4:	2930      	cmp	r1, #48	; 0x30
    d8c6:	d002      	beq.n	d8ce <_vfiprintf_r+0x622>
    d8c8:	07f3      	lsls	r3, r6, #31
    d8ca:	d500      	bpl.n	d8ce <_vfiprintf_r+0x622>
    d8cc:	e225      	b.n	dd1a <_vfiprintf_r+0xa6e>
    d8ce:	ab3e      	add	r3, sp, #248	; 0xf8
    d8d0:	1b5b      	subs	r3, r3, r5
    d8d2:	46b0      	mov	r8, r6
    d8d4:	9303      	str	r3, [sp, #12]
    d8d6:	e737      	b.n	d748 <_vfiprintf_r+0x49c>
    d8d8:	9b04      	ldr	r3, [sp, #16]
    d8da:	9e01      	ldr	r6, [sp, #4]
    d8dc:	1b9e      	subs	r6, r3, r6
    d8de:	2e00      	cmp	r6, #0
    d8e0:	dc00      	bgt.n	d8e4 <_vfiprintf_r+0x638>
    d8e2:	e618      	b.n	d516 <_vfiprintf_r+0x26a>
    d8e4:	2e10      	cmp	r6, #16
    d8e6:	dc00      	bgt.n	d8ea <_vfiprintf_r+0x63e>
    d8e8:	e3aa      	b.n	e040 <_vfiprintf_r+0xd94>
    d8ea:	4b7f      	ldr	r3, [pc, #508]	; (dae8 <_vfiprintf_r+0x83c>)
    d8ec:	0039      	movs	r1, r7
    d8ee:	46a9      	mov	r9, r5
    d8f0:	465f      	mov	r7, fp
    d8f2:	46a3      	mov	fp, r4
    d8f4:	001c      	movs	r4, r3
    d8f6:	e005      	b.n	d904 <_vfiprintf_r+0x658>
    d8f8:	1c95      	adds	r5, r2, #2
    d8fa:	001a      	movs	r2, r3
    d8fc:	3108      	adds	r1, #8
    d8fe:	3e10      	subs	r6, #16
    d900:	2e10      	cmp	r6, #16
    d902:	dd19      	ble.n	d938 <_vfiprintf_r+0x68c>
    d904:	2310      	movs	r3, #16
    d906:	3010      	adds	r0, #16
    d908:	604b      	str	r3, [r1, #4]
    d90a:	1c53      	adds	r3, r2, #1
    d90c:	600c      	str	r4, [r1, #0]
    d90e:	9014      	str	r0, [sp, #80]	; 0x50
    d910:	9313      	str	r3, [sp, #76]	; 0x4c
    d912:	2b07      	cmp	r3, #7
    d914:	ddf0      	ble.n	d8f8 <_vfiprintf_r+0x64c>
    d916:	2800      	cmp	r0, #0
    d918:	d07f      	beq.n	da1a <_vfiprintf_r+0x76e>
    d91a:	0039      	movs	r1, r7
    d91c:	9802      	ldr	r0, [sp, #8]
    d91e:	aa12      	add	r2, sp, #72	; 0x48
    d920:	f7ff fc72 	bl	d208 <__sprint_r.part.0>
    d924:	2800      	cmp	r0, #0
    d926:	d000      	beq.n	d92a <_vfiprintf_r+0x67e>
    d928:	e57a      	b.n	d420 <_vfiprintf_r+0x174>
    d92a:	9a13      	ldr	r2, [sp, #76]	; 0x4c
    d92c:	3e10      	subs	r6, #16
    d92e:	9814      	ldr	r0, [sp, #80]	; 0x50
    d930:	1c55      	adds	r5, r2, #1
    d932:	a915      	add	r1, sp, #84	; 0x54
    d934:	2e10      	cmp	r6, #16
    d936:	dce5      	bgt.n	d904 <_vfiprintf_r+0x658>
    d938:	46ac      	mov	ip, r5
    d93a:	464d      	mov	r5, r9
    d93c:	46a1      	mov	r9, r4
    d93e:	465c      	mov	r4, fp
    d940:	46bb      	mov	fp, r7
    d942:	000f      	movs	r7, r1
    d944:	464b      	mov	r3, r9
    d946:	603b      	str	r3, [r7, #0]
    d948:	4663      	mov	r3, ip
    d94a:	1980      	adds	r0, r0, r6
    d94c:	607e      	str	r6, [r7, #4]
    d94e:	9014      	str	r0, [sp, #80]	; 0x50
    d950:	9313      	str	r3, [sp, #76]	; 0x4c
    d952:	2b07      	cmp	r3, #7
    d954:	dc00      	bgt.n	d958 <_vfiprintf_r+0x6ac>
    d956:	e1cc      	b.n	dcf2 <_vfiprintf_r+0xa46>
    d958:	2800      	cmp	r0, #0
    d95a:	d100      	bne.n	d95e <_vfiprintf_r+0x6b2>
    d95c:	e309      	b.n	df72 <_vfiprintf_r+0xcc6>
    d95e:	4659      	mov	r1, fp
    d960:	9802      	ldr	r0, [sp, #8]
    d962:	aa12      	add	r2, sp, #72	; 0x48
    d964:	f7ff fc50 	bl	d208 <__sprint_r.part.0>
    d968:	2800      	cmp	r0, #0
    d96a:	d000      	beq.n	d96e <_vfiprintf_r+0x6c2>
    d96c:	e559      	b.n	d422 <_vfiprintf_r+0x176>
    d96e:	4653      	mov	r3, sl
    d970:	9a13      	ldr	r2, [sp, #76]	; 0x4c
    d972:	9e03      	ldr	r6, [sp, #12]
    d974:	9814      	ldr	r0, [sp, #80]	; 0x50
    d976:	1c51      	adds	r1, r2, #1
    d978:	af15      	add	r7, sp, #84	; 0x54
    d97a:	1b9e      	subs	r6, r3, r6
    d97c:	2e00      	cmp	r6, #0
    d97e:	dc00      	bgt.n	d982 <_vfiprintf_r+0x6d6>
    d980:	e5cf      	b.n	d522 <_vfiprintf_r+0x276>
    d982:	4b59      	ldr	r3, [pc, #356]	; (dae8 <_vfiprintf_r+0x83c>)
    d984:	4699      	mov	r9, r3
    d986:	2e10      	cmp	r6, #16
    d988:	dd2e      	ble.n	d9e8 <_vfiprintf_r+0x73c>
    d98a:	2310      	movs	r3, #16
    d98c:	0039      	movs	r1, r7
    d98e:	469a      	mov	sl, r3
    d990:	465f      	mov	r7, fp
    d992:	46a3      	mov	fp, r4
    d994:	464c      	mov	r4, r9
    d996:	46a9      	mov	r9, r5
    d998:	e005      	b.n	d9a6 <_vfiprintf_r+0x6fa>
    d99a:	1c95      	adds	r5, r2, #2
    d99c:	001a      	movs	r2, r3
    d99e:	3108      	adds	r1, #8
    d9a0:	3e10      	subs	r6, #16
    d9a2:	2e10      	cmp	r6, #16
    d9a4:	dd19      	ble.n	d9da <_vfiprintf_r+0x72e>
    d9a6:	4653      	mov	r3, sl
    d9a8:	3010      	adds	r0, #16
    d9aa:	604b      	str	r3, [r1, #4]
    d9ac:	1c53      	adds	r3, r2, #1
    d9ae:	600c      	str	r4, [r1, #0]
    d9b0:	9014      	str	r0, [sp, #80]	; 0x50
    d9b2:	9313      	str	r3, [sp, #76]	; 0x4c
    d9b4:	2b07      	cmp	r3, #7
    d9b6:	ddf0      	ble.n	d99a <_vfiprintf_r+0x6ee>
    d9b8:	2800      	cmp	r0, #0
    d9ba:	d021      	beq.n	da00 <_vfiprintf_r+0x754>
    d9bc:	0039      	movs	r1, r7
    d9be:	9802      	ldr	r0, [sp, #8]
    d9c0:	aa12      	add	r2, sp, #72	; 0x48
    d9c2:	f7ff fc21 	bl	d208 <__sprint_r.part.0>
    d9c6:	2800      	cmp	r0, #0
    d9c8:	d000      	beq.n	d9cc <_vfiprintf_r+0x720>
    d9ca:	e529      	b.n	d420 <_vfiprintf_r+0x174>
    d9cc:	9a13      	ldr	r2, [sp, #76]	; 0x4c
    d9ce:	3e10      	subs	r6, #16
    d9d0:	9814      	ldr	r0, [sp, #80]	; 0x50
    d9d2:	1c55      	adds	r5, r2, #1
    d9d4:	a915      	add	r1, sp, #84	; 0x54
    d9d6:	2e10      	cmp	r6, #16
    d9d8:	dce5      	bgt.n	d9a6 <_vfiprintf_r+0x6fa>
    d9da:	0023      	movs	r3, r4
    d9dc:	465c      	mov	r4, fp
    d9de:	46bb      	mov	fp, r7
    d9e0:	000f      	movs	r7, r1
    d9e2:	0029      	movs	r1, r5
    d9e4:	464d      	mov	r5, r9
    d9e6:	4699      	mov	r9, r3
    d9e8:	464b      	mov	r3, r9
    d9ea:	1980      	adds	r0, r0, r6
    d9ec:	603b      	str	r3, [r7, #0]
    d9ee:	607e      	str	r6, [r7, #4]
    d9f0:	9014      	str	r0, [sp, #80]	; 0x50
    d9f2:	9113      	str	r1, [sp, #76]	; 0x4c
    d9f4:	2907      	cmp	r1, #7
    d9f6:	dd00      	ble.n	d9fa <_vfiprintf_r+0x74e>
    d9f8:	e10d      	b.n	dc16 <_vfiprintf_r+0x96a>
    d9fa:	3708      	adds	r7, #8
    d9fc:	3101      	adds	r1, #1
    d9fe:	e590      	b.n	d522 <_vfiprintf_r+0x276>
    da00:	2501      	movs	r5, #1
    da02:	2200      	movs	r2, #0
    da04:	a915      	add	r1, sp, #84	; 0x54
    da06:	e7cb      	b.n	d9a0 <_vfiprintf_r+0x6f4>
    da08:	4659      	mov	r1, fp
    da0a:	9802      	ldr	r0, [sp, #8]
    da0c:	aa12      	add	r2, sp, #72	; 0x48
    da0e:	f7ff fbfb 	bl	d208 <__sprint_r.part.0>
    da12:	2800      	cmp	r0, #0
    da14:	d100      	bne.n	da18 <_vfiprintf_r+0x76c>
    da16:	e5b1      	b.n	d57c <_vfiprintf_r+0x2d0>
    da18:	e503      	b.n	d422 <_vfiprintf_r+0x176>
    da1a:	2501      	movs	r5, #1
    da1c:	2200      	movs	r2, #0
    da1e:	a915      	add	r1, sp, #84	; 0x54
    da20:	e76d      	b.n	d8fe <_vfiprintf_r+0x652>
    da22:	2800      	cmp	r0, #0
    da24:	d100      	bne.n	da28 <_vfiprintf_r+0x77c>
    da26:	e13c      	b.n	dca2 <_vfiprintf_r+0x9f6>
    da28:	4659      	mov	r1, fp
    da2a:	9802      	ldr	r0, [sp, #8]
    da2c:	aa12      	add	r2, sp, #72	; 0x48
    da2e:	f7ff fbeb 	bl	d208 <__sprint_r.part.0>
    da32:	2800      	cmp	r0, #0
    da34:	d000      	beq.n	da38 <_vfiprintf_r+0x78c>
    da36:	e4f4      	b.n	d422 <_vfiprintf_r+0x176>
    da38:	9a13      	ldr	r2, [sp, #76]	; 0x4c
    da3a:	9814      	ldr	r0, [sp, #80]	; 0x50
    da3c:	1c51      	adds	r1, r2, #1
    da3e:	af15      	add	r7, sp, #84	; 0x54
    da40:	e549      	b.n	d4d6 <_vfiprintf_r+0x22a>
    da42:	ab11      	add	r3, sp, #68	; 0x44
    da44:	9315      	str	r3, [sp, #84]	; 0x54
    da46:	2302      	movs	r3, #2
    da48:	2101      	movs	r1, #1
    da4a:	2002      	movs	r0, #2
    da4c:	9316      	str	r3, [sp, #88]	; 0x58
    da4e:	af15      	add	r7, sp, #84	; 0x54
    da50:	000a      	movs	r2, r1
    da52:	3708      	adds	r7, #8
    da54:	1c51      	adds	r1, r2, #1
    da56:	e55a      	b.n	d50e <_vfiprintf_r+0x262>
    da58:	9814      	ldr	r0, [sp, #80]	; 0x50
    da5a:	2e10      	cmp	r6, #16
    da5c:	dc00      	bgt.n	da60 <_vfiprintf_r+0x7b4>
    da5e:	e2c9      	b.n	dff4 <_vfiprintf_r+0xd48>
    da60:	4b22      	ldr	r3, [pc, #136]	; (daec <_vfiprintf_r+0x840>)
    da62:	003a      	movs	r2, r7
    da64:	46a9      	mov	r9, r5
    da66:	465f      	mov	r7, fp
    da68:	9913      	ldr	r1, [sp, #76]	; 0x4c
    da6a:	46a3      	mov	fp, r4
    da6c:	001c      	movs	r4, r3
    da6e:	e005      	b.n	da7c <_vfiprintf_r+0x7d0>
    da70:	1c8d      	adds	r5, r1, #2
    da72:	0019      	movs	r1, r3
    da74:	3208      	adds	r2, #8
    da76:	3e10      	subs	r6, #16
    da78:	2e10      	cmp	r6, #16
    da7a:	dd19      	ble.n	dab0 <_vfiprintf_r+0x804>
    da7c:	2310      	movs	r3, #16
    da7e:	3010      	adds	r0, #16
    da80:	6053      	str	r3, [r2, #4]
    da82:	1c4b      	adds	r3, r1, #1
    da84:	6014      	str	r4, [r2, #0]
    da86:	9014      	str	r0, [sp, #80]	; 0x50
    da88:	9313      	str	r3, [sp, #76]	; 0x4c
    da8a:	2b07      	cmp	r3, #7
    da8c:	ddf0      	ble.n	da70 <_vfiprintf_r+0x7c4>
    da8e:	2800      	cmp	r0, #0
    da90:	d021      	beq.n	dad6 <_vfiprintf_r+0x82a>
    da92:	0039      	movs	r1, r7
    da94:	9802      	ldr	r0, [sp, #8]
    da96:	aa12      	add	r2, sp, #72	; 0x48
    da98:	f7ff fbb6 	bl	d208 <__sprint_r.part.0>
    da9c:	2800      	cmp	r0, #0
    da9e:	d000      	beq.n	daa2 <_vfiprintf_r+0x7f6>
    daa0:	e4be      	b.n	d420 <_vfiprintf_r+0x174>
    daa2:	9913      	ldr	r1, [sp, #76]	; 0x4c
    daa4:	3e10      	subs	r6, #16
    daa6:	9814      	ldr	r0, [sp, #80]	; 0x50
    daa8:	1c4d      	adds	r5, r1, #1
    daaa:	aa15      	add	r2, sp, #84	; 0x54
    daac:	2e10      	cmp	r6, #16
    daae:	dce5      	bgt.n	da7c <_vfiprintf_r+0x7d0>
    dab0:	0023      	movs	r3, r4
    dab2:	465c      	mov	r4, fp
    dab4:	46bb      	mov	fp, r7
    dab6:	0017      	movs	r7, r2
    dab8:	002a      	movs	r2, r5
    daba:	464d      	mov	r5, r9
    dabc:	4699      	mov	r9, r3
    dabe:	464b      	mov	r3, r9
    dac0:	1830      	adds	r0, r6, r0
    dac2:	603b      	str	r3, [r7, #0]
    dac4:	607e      	str	r6, [r7, #4]
    dac6:	9014      	str	r0, [sp, #80]	; 0x50
    dac8:	9213      	str	r2, [sp, #76]	; 0x4c
    daca:	2a07      	cmp	r2, #7
    dacc:	dd00      	ble.n	dad0 <_vfiprintf_r+0x824>
    dace:	e0f7      	b.n	dcc0 <_vfiprintf_r+0xa14>
    dad0:	3708      	adds	r7, #8
    dad2:	1c51      	adds	r1, r2, #1
    dad4:	e4ed      	b.n	d4b2 <_vfiprintf_r+0x206>
    dad6:	2100      	movs	r1, #0
    dad8:	2501      	movs	r5, #1
    dada:	aa15      	add	r2, sp, #84	; 0x54
    dadc:	e7cb      	b.n	da76 <_vfiprintf_r+0x7ca>
    dade:	46c0      	nop			; (mov r8, r8)
    dae0:	fffffbff 	.word	0xfffffbff
    dae4:	00010ae4 	.word	0x00010ae4
    dae8:	00011068 	.word	0x00011068
    daec:	00011058 	.word	0x00011058
    daf0:	200f      	movs	r0, #15
    daf2:	46b4      	mov	ip, r6
    daf4:	46a0      	mov	r8, r4
    daf6:	9b0b      	ldr	r3, [sp, #44]	; 0x2c
    daf8:	4699      	mov	r9, r3
    dafa:	9a06      	ldr	r2, [sp, #24]
    dafc:	9b07      	ldr	r3, [sp, #28]
    dafe:	0001      	movs	r1, r0
    db00:	464c      	mov	r4, r9
    db02:	4011      	ands	r1, r2
    db04:	5c61      	ldrb	r1, [r4, r1]
    db06:	071e      	lsls	r6, r3, #28
    db08:	0914      	lsrs	r4, r2, #4
    db0a:	3d01      	subs	r5, #1
    db0c:	4326      	orrs	r6, r4
    db0e:	7029      	strb	r1, [r5, #0]
    db10:	0919      	lsrs	r1, r3, #4
    db12:	000b      	movs	r3, r1
    db14:	0031      	movs	r1, r6
    db16:	0032      	movs	r2, r6
    db18:	4319      	orrs	r1, r3
    db1a:	d1f0      	bne.n	dafe <_vfiprintf_r+0x852>
    db1c:	9206      	str	r2, [sp, #24]
    db1e:	9307      	str	r3, [sp, #28]
    db20:	ab3e      	add	r3, sp, #248	; 0xf8
    db22:	1b5b      	subs	r3, r3, r5
    db24:	4644      	mov	r4, r8
    db26:	9303      	str	r3, [sp, #12]
    db28:	46e0      	mov	r8, ip
    db2a:	e60d      	b.n	d748 <_vfiprintf_r+0x49c>
    db2c:	4643      	mov	r3, r8
    db2e:	9013      	str	r0, [sp, #76]	; 0x4c
    db30:	075b      	lsls	r3, r3, #29
    db32:	d54a      	bpl.n	dbca <_vfiprintf_r+0x91e>
    db34:	9b04      	ldr	r3, [sp, #16]
    db36:	9a01      	ldr	r2, [sp, #4]
    db38:	1a9d      	subs	r5, r3, r2
    db3a:	2d00      	cmp	r5, #0
    db3c:	dd45      	ble.n	dbca <_vfiprintf_r+0x91e>
    db3e:	ab15      	add	r3, sp, #84	; 0x54
    db40:	2d10      	cmp	r5, #16
    db42:	dc00      	bgt.n	db46 <_vfiprintf_r+0x89a>
    db44:	e266      	b.n	e014 <_vfiprintf_r+0xd68>
    db46:	4ad2      	ldr	r2, [pc, #840]	; (de90 <_vfiprintf_r+0xbe4>)
    db48:	0016      	movs	r6, r2
    db4a:	9a02      	ldr	r2, [sp, #8]
    db4c:	2710      	movs	r7, #16
    db4e:	46a0      	mov	r8, r4
    db50:	4691      	mov	r9, r2
    db52:	9913      	ldr	r1, [sp, #76]	; 0x4c
    db54:	e005      	b.n	db62 <_vfiprintf_r+0x8b6>
    db56:	1c8c      	adds	r4, r1, #2
    db58:	0011      	movs	r1, r2
    db5a:	3308      	adds	r3, #8
    db5c:	3d10      	subs	r5, #16
    db5e:	2d10      	cmp	r5, #16
    db60:	dd18      	ble.n	db94 <_vfiprintf_r+0x8e8>
    db62:	3010      	adds	r0, #16
    db64:	1c4a      	adds	r2, r1, #1
    db66:	601e      	str	r6, [r3, #0]
    db68:	605f      	str	r7, [r3, #4]
    db6a:	9014      	str	r0, [sp, #80]	; 0x50
    db6c:	9213      	str	r2, [sp, #76]	; 0x4c
    db6e:	2a07      	cmp	r2, #7
    db70:	ddf1      	ble.n	db56 <_vfiprintf_r+0x8aa>
    db72:	2800      	cmp	r0, #0
    db74:	d025      	beq.n	dbc2 <_vfiprintf_r+0x916>
    db76:	4659      	mov	r1, fp
    db78:	4648      	mov	r0, r9
    db7a:	aa12      	add	r2, sp, #72	; 0x48
    db7c:	f7ff fb44 	bl	d208 <__sprint_r.part.0>
    db80:	2800      	cmp	r0, #0
    db82:	d000      	beq.n	db86 <_vfiprintf_r+0x8da>
    db84:	e44d      	b.n	d422 <_vfiprintf_r+0x176>
    db86:	9913      	ldr	r1, [sp, #76]	; 0x4c
    db88:	3d10      	subs	r5, #16
    db8a:	9814      	ldr	r0, [sp, #80]	; 0x50
    db8c:	1c4c      	adds	r4, r1, #1
    db8e:	ab15      	add	r3, sp, #84	; 0x54
    db90:	2d10      	cmp	r5, #16
    db92:	dce6      	bgt.n	db62 <_vfiprintf_r+0x8b6>
    db94:	46b1      	mov	r9, r6
    db96:	0026      	movs	r6, r4
    db98:	4644      	mov	r4, r8
    db9a:	464a      	mov	r2, r9
    db9c:	1940      	adds	r0, r0, r5
    db9e:	c324      	stmia	r3!, {r2, r5}
    dba0:	9014      	str	r0, [sp, #80]	; 0x50
    dba2:	9613      	str	r6, [sp, #76]	; 0x4c
    dba4:	2e07      	cmp	r6, #7
    dba6:	dc00      	bgt.n	dbaa <_vfiprintf_r+0x8fe>
    dba8:	e4db      	b.n	d562 <_vfiprintf_r+0x2b6>
    dbaa:	2800      	cmp	r0, #0
    dbac:	d00d      	beq.n	dbca <_vfiprintf_r+0x91e>
    dbae:	4659      	mov	r1, fp
    dbb0:	9802      	ldr	r0, [sp, #8]
    dbb2:	aa12      	add	r2, sp, #72	; 0x48
    dbb4:	f7ff fb28 	bl	d208 <__sprint_r.part.0>
    dbb8:	2800      	cmp	r0, #0
    dbba:	d000      	beq.n	dbbe <_vfiprintf_r+0x912>
    dbbc:	e431      	b.n	d422 <_vfiprintf_r+0x176>
    dbbe:	9814      	ldr	r0, [sp, #80]	; 0x50
    dbc0:	e4cf      	b.n	d562 <_vfiprintf_r+0x2b6>
    dbc2:	2401      	movs	r4, #1
    dbc4:	2100      	movs	r1, #0
    dbc6:	ab15      	add	r3, sp, #84	; 0x54
    dbc8:	e7c8      	b.n	db5c <_vfiprintf_r+0x8b0>
    dbca:	9b04      	ldr	r3, [sp, #16]
    dbcc:	9a01      	ldr	r2, [sp, #4]
    dbce:	4293      	cmp	r3, r2
    dbd0:	da00      	bge.n	dbd4 <_vfiprintf_r+0x928>
    dbd2:	0013      	movs	r3, r2
    dbd4:	9a05      	ldr	r2, [sp, #20]
    dbd6:	4694      	mov	ip, r2
    dbd8:	449c      	add	ip, r3
    dbda:	4663      	mov	r3, ip
    dbdc:	9305      	str	r3, [sp, #20]
    dbde:	e4cd      	b.n	d57c <_vfiprintf_r+0x2d0>
    dbe0:	2300      	movs	r3, #0
    dbe2:	ad3e      	add	r5, sp, #248	; 0xf8
    dbe4:	469a      	mov	sl, r3
    dbe6:	9303      	str	r3, [sp, #12]
    dbe8:	e5ae      	b.n	d748 <_vfiprintf_r+0x49c>
    dbea:	4646      	mov	r6, r8
    dbec:	9a06      	ldr	r2, [sp, #24]
    dbee:	9b07      	ldr	r3, [sp, #28]
    dbf0:	2b00      	cmp	r3, #0
    dbf2:	d000      	beq.n	dbf6 <_vfiprintf_r+0x94a>
    dbf4:	e10b      	b.n	de0e <_vfiprintf_r+0xb62>
    dbf6:	2a09      	cmp	r2, #9
    dbf8:	d900      	bls.n	dbfc <_vfiprintf_r+0x950>
    dbfa:	e108      	b.n	de0e <_vfiprintf_r+0xb62>
    dbfc:	2263      	movs	r2, #99	; 0x63
    dbfe:	9b06      	ldr	r3, [sp, #24]
    dc00:	a925      	add	r1, sp, #148	; 0x94
    dc02:	3330      	adds	r3, #48	; 0x30
    dc04:	548b      	strb	r3, [r1, r2]
    dc06:	2301      	movs	r3, #1
    dc08:	9303      	str	r3, [sp, #12]
    dc0a:	ab10      	add	r3, sp, #64	; 0x40
    dc0c:	25b7      	movs	r5, #183	; 0xb7
    dc0e:	469c      	mov	ip, r3
    dc10:	46b0      	mov	r8, r6
    dc12:	4465      	add	r5, ip
    dc14:	e598      	b.n	d748 <_vfiprintf_r+0x49c>
    dc16:	2800      	cmp	r0, #0
    dc18:	d100      	bne.n	dc1c <_vfiprintf_r+0x970>
    dc1a:	e624      	b.n	d866 <_vfiprintf_r+0x5ba>
    dc1c:	4659      	mov	r1, fp
    dc1e:	9802      	ldr	r0, [sp, #8]
    dc20:	aa12      	add	r2, sp, #72	; 0x48
    dc22:	f7ff faf1 	bl	d208 <__sprint_r.part.0>
    dc26:	2800      	cmp	r0, #0
    dc28:	d001      	beq.n	dc2e <_vfiprintf_r+0x982>
    dc2a:	f7ff fbfa 	bl	d422 <_vfiprintf_r+0x176>
    dc2e:	9b13      	ldr	r3, [sp, #76]	; 0x4c
    dc30:	9814      	ldr	r0, [sp, #80]	; 0x50
    dc32:	9309      	str	r3, [sp, #36]	; 0x24
    dc34:	1c59      	adds	r1, r3, #1
    dc36:	af15      	add	r7, sp, #84	; 0x54
    dc38:	e473      	b.n	d522 <_vfiprintf_r+0x276>
    dc3a:	9213      	str	r2, [sp, #76]	; 0x4c
    dc3c:	af15      	add	r7, sp, #84	; 0x54
    dc3e:	f7ff fba4 	bl	d38a <_vfiprintf_r+0xde>
    dc42:	2300      	movs	r3, #0
    dc44:	ad3e      	add	r5, sp, #248	; 0xf8
    dc46:	469a      	mov	sl, r3
    dc48:	e57e      	b.n	d748 <_vfiprintf_r+0x49c>
    dc4a:	06f3      	lsls	r3, r6, #27
    dc4c:	d57d      	bpl.n	dd4a <_vfiprintf_r+0xa9e>
    dc4e:	9b08      	ldr	r3, [sp, #32]
    dc50:	cb04      	ldmia	r3!, {r2}
    dc52:	9206      	str	r2, [sp, #24]
    dc54:	2200      	movs	r2, #0
    dc56:	9308      	str	r3, [sp, #32]
    dc58:	9207      	str	r2, [sp, #28]
    dc5a:	2301      	movs	r3, #1
    dc5c:	e54b      	b.n	d6f6 <_vfiprintf_r+0x44a>
    dc5e:	4643      	mov	r3, r8
    dc60:	06db      	lsls	r3, r3, #27
    dc62:	d57a      	bpl.n	dd5a <_vfiprintf_r+0xaae>
    dc64:	9e08      	ldr	r6, [sp, #32]
    dc66:	ce08      	ldmia	r6!, {r3}
    dc68:	9306      	str	r3, [sp, #24]
    dc6a:	17db      	asrs	r3, r3, #31
    dc6c:	9307      	str	r3, [sp, #28]
    dc6e:	9608      	str	r6, [sp, #32]
    dc70:	d400      	bmi.n	dc74 <_vfiprintf_r+0x9c8>
    dc72:	e5aa      	b.n	d7ca <_vfiprintf_r+0x51e>
    dc74:	9806      	ldr	r0, [sp, #24]
    dc76:	9907      	ldr	r1, [sp, #28]
    dc78:	2300      	movs	r3, #0
    dc7a:	4242      	negs	r2, r0
    dc7c:	418b      	sbcs	r3, r1
    dc7e:	9206      	str	r2, [sp, #24]
    dc80:	9307      	str	r3, [sp, #28]
    dc82:	232d      	movs	r3, #45	; 0x2d
    dc84:	aa10      	add	r2, sp, #64	; 0x40
    dc86:	70d3      	strb	r3, [r2, #3]
    dc88:	4646      	mov	r6, r8
    dc8a:	3b2c      	subs	r3, #44	; 0x2c
    dc8c:	e536      	b.n	d6fc <_vfiprintf_r+0x450>
    dc8e:	4643      	mov	r3, r8
    dc90:	06db      	lsls	r3, r3, #27
    dc92:	d54d      	bpl.n	dd30 <_vfiprintf_r+0xa84>
    dc94:	9e08      	ldr	r6, [sp, #32]
    dc96:	ce08      	ldmia	r6!, {r3}
    dc98:	9306      	str	r3, [sp, #24]
    dc9a:	2300      	movs	r3, #0
    dc9c:	9608      	str	r6, [sp, #32]
    dc9e:	9307      	str	r3, [sp, #28]
    dca0:	e574      	b.n	d78c <_vfiprintf_r+0x4e0>
    dca2:	9b09      	ldr	r3, [sp, #36]	; 0x24
    dca4:	2b00      	cmp	r3, #0
    dca6:	d065      	beq.n	dd74 <_vfiprintf_r+0xac8>
    dca8:	ab11      	add	r3, sp, #68	; 0x44
    dcaa:	9315      	str	r3, [sp, #84]	; 0x54
    dcac:	2302      	movs	r3, #2
    dcae:	2201      	movs	r2, #1
    dcb0:	2002      	movs	r0, #2
    dcb2:	9316      	str	r3, [sp, #88]	; 0x58
    dcb4:	af15      	add	r7, sp, #84	; 0x54
    dcb6:	e6cc      	b.n	da52 <_vfiprintf_r+0x7a6>
    dcb8:	2101      	movs	r1, #1
    dcba:	2200      	movs	r2, #0
    dcbc:	af15      	add	r7, sp, #84	; 0x54
    dcbe:	e426      	b.n	d50e <_vfiprintf_r+0x262>
    dcc0:	2800      	cmp	r0, #0
    dcc2:	d100      	bne.n	dcc6 <_vfiprintf_r+0xa1a>
    dcc4:	e095      	b.n	ddf2 <_vfiprintf_r+0xb46>
    dcc6:	4659      	mov	r1, fp
    dcc8:	9802      	ldr	r0, [sp, #8]
    dcca:	aa12      	add	r2, sp, #72	; 0x48
    dccc:	f7ff fa9c 	bl	d208 <__sprint_r.part.0>
    dcd0:	2800      	cmp	r0, #0
    dcd2:	d001      	beq.n	dcd8 <_vfiprintf_r+0xa2c>
    dcd4:	f7ff fba5 	bl	d422 <_vfiprintf_r+0x176>
    dcd8:	9a13      	ldr	r2, [sp, #76]	; 0x4c
    dcda:	9814      	ldr	r0, [sp, #80]	; 0x50
    dcdc:	1c51      	adds	r1, r2, #1
    dcde:	af15      	add	r7, sp, #84	; 0x54
    dce0:	f7ff fbe7 	bl	d4b2 <_vfiprintf_r+0x206>
    dce4:	46a8      	mov	r8, r5
    dce6:	46b2      	mov	sl, r6
    dce8:	e55b      	b.n	d7a2 <_vfiprintf_r+0x4f6>
    dcea:	7822      	ldrb	r2, [r4, #0]
    dcec:	9308      	str	r3, [sp, #32]
    dcee:	f7ff fb5f 	bl	d3b0 <_vfiprintf_r+0x104>
    dcf2:	4662      	mov	r2, ip
    dcf4:	3708      	adds	r7, #8
    dcf6:	1c59      	adds	r1, r3, #1
    dcf8:	f7ff fc0d 	bl	d516 <_vfiprintf_r+0x26a>
    dcfc:	2320      	movs	r3, #32
    dcfe:	aa10      	add	r2, sp, #64	; 0x40
    dd00:	70d3      	strb	r3, [r2, #3]
    dd02:	7822      	ldrb	r2, [r4, #0]
    dd04:	f7ff fb54 	bl	d3b0 <_vfiprintf_r+0x104>
    dd08:	9e08      	ldr	r6, [sp, #32]
    dd0a:	9a05      	ldr	r2, [sp, #20]
    dd0c:	ce08      	ldmia	r6!, {r3}
    dd0e:	601a      	str	r2, [r3, #0]
    dd10:	17d2      	asrs	r2, r2, #31
    dd12:	605a      	str	r2, [r3, #4]
    dd14:	9608      	str	r6, [sp, #32]
    dd16:	f7ff fb0e 	bl	d336 <_vfiprintf_r+0x8a>
    dd1a:	2230      	movs	r2, #48	; 0x30
    dd1c:	4663      	mov	r3, ip
    dd1e:	3d01      	subs	r5, #1
    dd20:	702a      	strb	r2, [r5, #0]
    dd22:	3b02      	subs	r3, #2
    dd24:	aa3e      	add	r2, sp, #248	; 0xf8
    dd26:	1ad2      	subs	r2, r2, r3
    dd28:	46b0      	mov	r8, r6
    dd2a:	001d      	movs	r5, r3
    dd2c:	9203      	str	r2, [sp, #12]
    dd2e:	e50b      	b.n	d748 <_vfiprintf_r+0x49c>
    dd30:	4643      	mov	r3, r8
    dd32:	065b      	lsls	r3, r3, #25
    dd34:	d400      	bmi.n	dd38 <_vfiprintf_r+0xa8c>
    dd36:	e107      	b.n	df48 <_vfiprintf_r+0xc9c>
    dd38:	9e08      	ldr	r6, [sp, #32]
    dd3a:	ce08      	ldmia	r6!, {r3}
    dd3c:	041b      	lsls	r3, r3, #16
    dd3e:	0c1b      	lsrs	r3, r3, #16
    dd40:	9306      	str	r3, [sp, #24]
    dd42:	2300      	movs	r3, #0
    dd44:	9608      	str	r6, [sp, #32]
    dd46:	9307      	str	r3, [sp, #28]
    dd48:	e520      	b.n	d78c <_vfiprintf_r+0x4e0>
    dd4a:	0673      	lsls	r3, r6, #25
    dd4c:	d400      	bmi.n	dd50 <_vfiprintf_r+0xaa4>
    dd4e:	e108      	b.n	df62 <_vfiprintf_r+0xcb6>
    dd50:	9b08      	ldr	r3, [sp, #32]
    dd52:	cb04      	ldmia	r3!, {r2}
    dd54:	0412      	lsls	r2, r2, #16
    dd56:	0c12      	lsrs	r2, r2, #16
    dd58:	e77b      	b.n	dc52 <_vfiprintf_r+0x9a6>
    dd5a:	4643      	mov	r3, r8
    dd5c:	065b      	lsls	r3, r3, #25
    dd5e:	d400      	bmi.n	dd62 <_vfiprintf_r+0xab6>
    dd60:	e0d9      	b.n	df16 <_vfiprintf_r+0xc6a>
    dd62:	9e08      	ldr	r6, [sp, #32]
    dd64:	ce08      	ldmia	r6!, {r3}
    dd66:	041b      	lsls	r3, r3, #16
    dd68:	141b      	asrs	r3, r3, #16
    dd6a:	9306      	str	r3, [sp, #24]
    dd6c:	17db      	asrs	r3, r3, #31
    dd6e:	9307      	str	r3, [sp, #28]
    dd70:	9608      	str	r6, [sp, #32]
    dd72:	e527      	b.n	d7c4 <_vfiprintf_r+0x518>
    dd74:	2200      	movs	r2, #0
    dd76:	2101      	movs	r1, #1
    dd78:	af15      	add	r7, sp, #84	; 0x54
    dd7a:	f7ff fbc8 	bl	d50e <_vfiprintf_r+0x262>
    dd7e:	46a8      	mov	r8, r5
    dd80:	46b2      	mov	sl, r6
    dd82:	4b44      	ldr	r3, [pc, #272]	; (de94 <_vfiprintf_r+0xbe8>)
    dd84:	930b      	str	r3, [sp, #44]	; 0x2c
    dd86:	4643      	mov	r3, r8
    dd88:	069b      	lsls	r3, r3, #26
    dd8a:	d400      	bmi.n	dd8e <_vfiprintf_r+0xae2>
    dd8c:	e088      	b.n	dea0 <_vfiprintf_r+0xbf4>
    dd8e:	2307      	movs	r3, #7
    dd90:	9e08      	ldr	r6, [sp, #32]
    dd92:	3607      	adds	r6, #7
    dd94:	439e      	bics	r6, r3
    dd96:	0033      	movs	r3, r6
    dd98:	cb03      	ldmia	r3!, {r0, r1}
    dd9a:	9006      	str	r0, [sp, #24]
    dd9c:	9107      	str	r1, [sp, #28]
    dd9e:	9308      	str	r3, [sp, #32]
    dda0:	9806      	ldr	r0, [sp, #24]
    dda2:	9907      	ldr	r1, [sp, #28]
    dda4:	0003      	movs	r3, r0
    dda6:	430b      	orrs	r3, r1
    dda8:	d00a      	beq.n	ddc0 <_vfiprintf_r+0xb14>
    ddaa:	4643      	mov	r3, r8
    ddac:	07db      	lsls	r3, r3, #31
    ddae:	d507      	bpl.n	ddc0 <_vfiprintf_r+0xb14>
    ddb0:	2130      	movs	r1, #48	; 0x30
    ddb2:	ab11      	add	r3, sp, #68	; 0x44
    ddb4:	705a      	strb	r2, [r3, #1]
    ddb6:	7019      	strb	r1, [r3, #0]
    ddb8:	4642      	mov	r2, r8
    ddba:	2302      	movs	r3, #2
    ddbc:	431a      	orrs	r2, r3
    ddbe:	4690      	mov	r8, r2
    ddc0:	4643      	mov	r3, r8
    ddc2:	4e35      	ldr	r6, [pc, #212]	; (de98 <_vfiprintf_r+0xbec>)
    ddc4:	4033      	ands	r3, r6
    ddc6:	001e      	movs	r6, r3
    ddc8:	2302      	movs	r3, #2
    ddca:	e494      	b.n	d6f6 <_vfiprintf_r+0x44a>
    ddcc:	46b2      	mov	sl, r6
    ddce:	002e      	movs	r6, r5
    ddd0:	e484      	b.n	d6dc <_vfiprintf_r+0x430>
    ddd2:	4b32      	ldr	r3, [pc, #200]	; (de9c <_vfiprintf_r+0xbf0>)
    ddd4:	46a8      	mov	r8, r5
    ddd6:	46b2      	mov	sl, r6
    ddd8:	930b      	str	r3, [sp, #44]	; 0x2c
    ddda:	e7d4      	b.n	dd86 <_vfiprintf_r+0xada>
    dddc:	46a8      	mov	r8, r5
    ddde:	46b2      	mov	sl, r6
    dde0:	e4c7      	b.n	d772 <_vfiprintf_r+0x4c6>
    dde2:	0028      	movs	r0, r5
    dde4:	f7ff f9a6 	bl	d134 <strlen>
    dde8:	2300      	movs	r3, #0
    ddea:	9003      	str	r0, [sp, #12]
    ddec:	469a      	mov	sl, r3
    ddee:	9608      	str	r6, [sp, #32]
    ddf0:	e4aa      	b.n	d748 <_vfiprintf_r+0x49c>
    ddf2:	ab10      	add	r3, sp, #64	; 0x40
    ddf4:	78db      	ldrb	r3, [r3, #3]
    ddf6:	2b00      	cmp	r3, #0
    ddf8:	d000      	beq.n	ddfc <_vfiprintf_r+0xb50>
    ddfa:	e0c2      	b.n	df82 <_vfiprintf_r+0xcd6>
    ddfc:	9b09      	ldr	r3, [sp, #36]	; 0x24
    ddfe:	2b00      	cmp	r3, #0
    de00:	d000      	beq.n	de04 <_vfiprintf_r+0xb58>
    de02:	e61e      	b.n	da42 <_vfiprintf_r+0x796>
    de04:	2200      	movs	r2, #0
    de06:	2101      	movs	r1, #1
    de08:	af15      	add	r7, sp, #84	; 0x54
    de0a:	f7ff fb84 	bl	d516 <_vfiprintf_r+0x26a>
    de0e:	2380      	movs	r3, #128	; 0x80
    de10:	00db      	lsls	r3, r3, #3
    de12:	4033      	ands	r3, r6
    de14:	4699      	mov	r9, r3
    de16:	2300      	movs	r3, #0
    de18:	4698      	mov	r8, r3
    de1a:	4653      	mov	r3, sl
    de1c:	9601      	str	r6, [sp, #4]
    de1e:	46a2      	mov	sl, r4
    de20:	9303      	str	r3, [sp, #12]
    de22:	4644      	mov	r4, r8
    de24:	ad3e      	add	r5, sp, #248	; 0xf8
    de26:	46b8      	mov	r8, r7
    de28:	9e06      	ldr	r6, [sp, #24]
    de2a:	9f07      	ldr	r7, [sp, #28]
    de2c:	e00a      	b.n	de44 <_vfiprintf_r+0xb98>
    de2e:	220a      	movs	r2, #10
    de30:	2300      	movs	r3, #0
    de32:	0030      	movs	r0, r6
    de34:	0039      	movs	r1, r7
    de36:	f002 fdff 	bl	10a38 <____aeabi_uldivmod_from_thumb>
    de3a:	2f00      	cmp	r7, #0
    de3c:	d100      	bne.n	de40 <_vfiprintf_r+0xb94>
    de3e:	e0d5      	b.n	dfec <_vfiprintf_r+0xd40>
    de40:	0006      	movs	r6, r0
    de42:	000f      	movs	r7, r1
    de44:	220a      	movs	r2, #10
    de46:	2300      	movs	r3, #0
    de48:	0030      	movs	r0, r6
    de4a:	0039      	movs	r1, r7
    de4c:	f002 fdf4 	bl	10a38 <____aeabi_uldivmod_from_thumb>
    de50:	464b      	mov	r3, r9
    de52:	3d01      	subs	r5, #1
    de54:	3230      	adds	r2, #48	; 0x30
    de56:	702a      	strb	r2, [r5, #0]
    de58:	3401      	adds	r4, #1
    de5a:	2b00      	cmp	r3, #0
    de5c:	d0e7      	beq.n	de2e <_vfiprintf_r+0xb82>
    de5e:	9b0c      	ldr	r3, [sp, #48]	; 0x30
    de60:	781b      	ldrb	r3, [r3, #0]
    de62:	42a3      	cmp	r3, r4
    de64:	d1e3      	bne.n	de2e <_vfiprintf_r+0xb82>
    de66:	2bff      	cmp	r3, #255	; 0xff
    de68:	d0e1      	beq.n	de2e <_vfiprintf_r+0xb82>
    de6a:	2f00      	cmp	r7, #0
    de6c:	d000      	beq.n	de70 <_vfiprintf_r+0xbc4>
    de6e:	e09f      	b.n	dfb0 <_vfiprintf_r+0xd04>
    de70:	2e09      	cmp	r6, #9
    de72:	d900      	bls.n	de76 <_vfiprintf_r+0xbca>
    de74:	e09c      	b.n	dfb0 <_vfiprintf_r+0xd04>
    de76:	9b03      	ldr	r3, [sp, #12]
    de78:	9606      	str	r6, [sp, #24]
    de7a:	9707      	str	r7, [sp, #28]
    de7c:	4654      	mov	r4, sl
    de7e:	9e01      	ldr	r6, [sp, #4]
    de80:	469a      	mov	sl, r3
    de82:	ab3e      	add	r3, sp, #248	; 0xf8
    de84:	1b5b      	subs	r3, r3, r5
    de86:	4647      	mov	r7, r8
    de88:	9303      	str	r3, [sp, #12]
    de8a:	46b0      	mov	r8, r6
    de8c:	e45c      	b.n	d748 <_vfiprintf_r+0x49c>
    de8e:	46c0      	nop			; (mov r8, r8)
    de90:	00011058 	.word	0x00011058
    de94:	00010af8 	.word	0x00010af8
    de98:	fffffbff 	.word	0xfffffbff
    de9c:	00010ae4 	.word	0x00010ae4
    dea0:	4643      	mov	r3, r8
    dea2:	06db      	lsls	r3, r3, #27
    dea4:	d506      	bpl.n	deb4 <_vfiprintf_r+0xc08>
    dea6:	9e08      	ldr	r6, [sp, #32]
    dea8:	ce08      	ldmia	r6!, {r3}
    deaa:	9306      	str	r3, [sp, #24]
    deac:	2300      	movs	r3, #0
    deae:	9608      	str	r6, [sp, #32]
    deb0:	9307      	str	r3, [sp, #28]
    deb2:	e775      	b.n	dda0 <_vfiprintf_r+0xaf4>
    deb4:	4643      	mov	r3, r8
    deb6:	065b      	lsls	r3, r3, #25
    deb8:	d53a      	bpl.n	df30 <_vfiprintf_r+0xc84>
    deba:	9e08      	ldr	r6, [sp, #32]
    debc:	ce08      	ldmia	r6!, {r3}
    debe:	041b      	lsls	r3, r3, #16
    dec0:	0c1b      	lsrs	r3, r3, #16
    dec2:	9306      	str	r3, [sp, #24]
    dec4:	2300      	movs	r3, #0
    dec6:	9608      	str	r6, [sp, #32]
    dec8:	9307      	str	r3, [sp, #28]
    deca:	e769      	b.n	dda0 <_vfiprintf_r+0xaf4>
    decc:	2380      	movs	r3, #128	; 0x80
    dece:	009b      	lsls	r3, r3, #2
    ded0:	7862      	ldrb	r2, [r4, #1]
    ded2:	431d      	orrs	r5, r3
    ded4:	3401      	adds	r4, #1
    ded6:	f7ff fa6b 	bl	d3b0 <_vfiprintf_r+0x104>
    deda:	2320      	movs	r3, #32
    dedc:	7862      	ldrb	r2, [r4, #1]
    dede:	431d      	orrs	r5, r3
    dee0:	3401      	adds	r4, #1
    dee2:	f7ff fa65 	bl	d3b0 <_vfiprintf_r+0x104>
    dee6:	9e08      	ldr	r6, [sp, #32]
    dee8:	9a05      	ldr	r2, [sp, #20]
    deea:	ce08      	ldmia	r6!, {r3}
    deec:	601a      	str	r2, [r3, #0]
    deee:	9608      	str	r6, [sp, #32]
    def0:	f7ff fa21 	bl	d336 <_vfiprintf_r+0x8a>
    def4:	9303      	str	r3, [sp, #12]
    def6:	2b06      	cmp	r3, #6
    def8:	d840      	bhi.n	df7c <_vfiprintf_r+0xcd0>
    defa:	9b03      	ldr	r3, [sp, #12]
    defc:	9608      	str	r6, [sp, #32]
    defe:	9301      	str	r3, [sp, #4]
    df00:	4d57      	ldr	r5, [pc, #348]	; (e060 <_vfiprintf_r+0xdb4>)
    df02:	f7ff faba 	bl	d47a <_vfiprintf_r+0x1ce>
    df06:	9b14      	ldr	r3, [sp, #80]	; 0x50
    df08:	9301      	str	r3, [sp, #4]
    df0a:	2b00      	cmp	r3, #0
    df0c:	d178      	bne.n	e000 <_vfiprintf_r+0xd54>
    df0e:	2300      	movs	r3, #0
    df10:	9313      	str	r3, [sp, #76]	; 0x4c
    df12:	f7ff fa86 	bl	d422 <_vfiprintf_r+0x176>
    df16:	4643      	mov	r3, r8
    df18:	9e08      	ldr	r6, [sp, #32]
    df1a:	059b      	lsls	r3, r3, #22
    df1c:	d400      	bmi.n	df20 <_vfiprintf_r+0xc74>
    df1e:	e6a2      	b.n	dc66 <_vfiprintf_r+0x9ba>
    df20:	ce08      	ldmia	r6!, {r3}
    df22:	061b      	lsls	r3, r3, #24
    df24:	161a      	asrs	r2, r3, #24
    df26:	17db      	asrs	r3, r3, #31
    df28:	9206      	str	r2, [sp, #24]
    df2a:	9307      	str	r3, [sp, #28]
    df2c:	9608      	str	r6, [sp, #32]
    df2e:	e449      	b.n	d7c4 <_vfiprintf_r+0x518>
    df30:	4643      	mov	r3, r8
    df32:	9e08      	ldr	r6, [sp, #32]
    df34:	059b      	lsls	r3, r3, #22
    df36:	d5b7      	bpl.n	dea8 <_vfiprintf_r+0xbfc>
    df38:	ce08      	ldmia	r6!, {r3}
    df3a:	061b      	lsls	r3, r3, #24
    df3c:	0e1b      	lsrs	r3, r3, #24
    df3e:	9306      	str	r3, [sp, #24]
    df40:	2300      	movs	r3, #0
    df42:	9608      	str	r6, [sp, #32]
    df44:	9307      	str	r3, [sp, #28]
    df46:	e72b      	b.n	dda0 <_vfiprintf_r+0xaf4>
    df48:	4643      	mov	r3, r8
    df4a:	9e08      	ldr	r6, [sp, #32]
    df4c:	059b      	lsls	r3, r3, #22
    df4e:	d400      	bmi.n	df52 <_vfiprintf_r+0xca6>
    df50:	e6a1      	b.n	dc96 <_vfiprintf_r+0x9ea>
    df52:	ce08      	ldmia	r6!, {r3}
    df54:	061b      	lsls	r3, r3, #24
    df56:	0e1b      	lsrs	r3, r3, #24
    df58:	9306      	str	r3, [sp, #24]
    df5a:	2300      	movs	r3, #0
    df5c:	9608      	str	r6, [sp, #32]
    df5e:	9307      	str	r3, [sp, #28]
    df60:	e414      	b.n	d78c <_vfiprintf_r+0x4e0>
    df62:	05b3      	lsls	r3, r6, #22
    df64:	d400      	bmi.n	df68 <_vfiprintf_r+0xcbc>
    df66:	e672      	b.n	dc4e <_vfiprintf_r+0x9a2>
    df68:	9b08      	ldr	r3, [sp, #32]
    df6a:	cb04      	ldmia	r3!, {r2}
    df6c:	0612      	lsls	r2, r2, #24
    df6e:	0e12      	lsrs	r2, r2, #24
    df70:	e66f      	b.n	dc52 <_vfiprintf_r+0x9a6>
    df72:	2101      	movs	r1, #1
    df74:	2200      	movs	r2, #0
    df76:	af15      	add	r7, sp, #84	; 0x54
    df78:	f7ff facd 	bl	d516 <_vfiprintf_r+0x26a>
    df7c:	2306      	movs	r3, #6
    df7e:	9303      	str	r3, [sp, #12]
    df80:	e7bb      	b.n	defa <_vfiprintf_r+0xc4e>
    df82:	ab10      	add	r3, sp, #64	; 0x40
    df84:	3303      	adds	r3, #3
    df86:	9315      	str	r3, [sp, #84]	; 0x54
    df88:	2301      	movs	r3, #1
    df8a:	2101      	movs	r1, #1
    df8c:	2001      	movs	r0, #1
    df8e:	9316      	str	r3, [sp, #88]	; 0x58
    df90:	af15      	add	r7, sp, #84	; 0x54
    df92:	f7ff fa9d 	bl	d4d0 <_vfiprintf_r+0x224>
    df96:	9e08      	ldr	r6, [sp, #32]
    df98:	9a05      	ldr	r2, [sp, #20]
    df9a:	ce08      	ldmia	r6!, {r3}
    df9c:	801a      	strh	r2, [r3, #0]
    df9e:	9608      	str	r6, [sp, #32]
    dfa0:	f7ff f9c9 	bl	d336 <_vfiprintf_r+0x8a>
    dfa4:	465b      	mov	r3, fp
    dfa6:	6d98      	ldr	r0, [r3, #88]	; 0x58
    dfa8:	f7fd fe74 	bl	bc94 <__retarget_lock_release_recursive>
    dfac:	f7ff fa24 	bl	d3f8 <_vfiprintf_r+0x14c>
    dfb0:	9b0e      	ldr	r3, [sp, #56]	; 0x38
    dfb2:	1aed      	subs	r5, r5, r3
    dfb4:	001a      	movs	r2, r3
    dfb6:	990d      	ldr	r1, [sp, #52]	; 0x34
    dfb8:	0028      	movs	r0, r5
    dfba:	f7ff f8eb 	bl	d194 <strncpy>
    dfbe:	990c      	ldr	r1, [sp, #48]	; 0x30
    dfc0:	784b      	ldrb	r3, [r1, #1]
    dfc2:	468c      	mov	ip, r1
    dfc4:	1e5a      	subs	r2, r3, #1
    dfc6:	4193      	sbcs	r3, r2
    dfc8:	449c      	add	ip, r3
    dfca:	4663      	mov	r3, ip
    dfcc:	220a      	movs	r2, #10
    dfce:	930c      	str	r3, [sp, #48]	; 0x30
    dfd0:	0030      	movs	r0, r6
    dfd2:	2300      	movs	r3, #0
    dfd4:	0039      	movs	r1, r7
    dfd6:	f002 fd2f 	bl	10a38 <____aeabi_uldivmod_from_thumb>
    dfda:	2400      	movs	r4, #0
    dfdc:	e730      	b.n	de40 <_vfiprintf_r+0xb94>
    dfde:	4653      	mov	r3, sl
    dfe0:	9303      	str	r3, [sp, #12]
    dfe2:	2300      	movs	r3, #0
    dfe4:	9608      	str	r6, [sp, #32]
    dfe6:	469a      	mov	sl, r3
    dfe8:	f7ff fbae 	bl	d748 <_vfiprintf_r+0x49c>
    dfec:	2e09      	cmp	r6, #9
    dfee:	d900      	bls.n	dff2 <_vfiprintf_r+0xd46>
    dff0:	e726      	b.n	de40 <_vfiprintf_r+0xb94>
    dff2:	e740      	b.n	de76 <_vfiprintf_r+0xbca>
    dff4:	9b13      	ldr	r3, [sp, #76]	; 0x4c
    dff6:	930f      	str	r3, [sp, #60]	; 0x3c
    dff8:	1c5a      	adds	r2, r3, #1
    dffa:	4b1a      	ldr	r3, [pc, #104]	; (e064 <_vfiprintf_r+0xdb8>)
    dffc:	4699      	mov	r9, r3
    dffe:	e55e      	b.n	dabe <_vfiprintf_r+0x812>
    e000:	4659      	mov	r1, fp
    e002:	9802      	ldr	r0, [sp, #8]
    e004:	aa12      	add	r2, sp, #72	; 0x48
    e006:	f7ff f8ff 	bl	d208 <__sprint_r.part.0>
    e00a:	2800      	cmp	r0, #0
    e00c:	d100      	bne.n	e010 <_vfiprintf_r+0xd64>
    e00e:	e77e      	b.n	df0e <_vfiprintf_r+0xc62>
    e010:	f7ff fa07 	bl	d422 <_vfiprintf_r+0x176>
    e014:	9a13      	ldr	r2, [sp, #76]	; 0x4c
    e016:	9203      	str	r2, [sp, #12]
    e018:	1c56      	adds	r6, r2, #1
    e01a:	4a12      	ldr	r2, [pc, #72]	; (e064 <_vfiprintf_r+0xdb8>)
    e01c:	4691      	mov	r9, r2
    e01e:	e5bc      	b.n	db9a <_vfiprintf_r+0x8ee>
    e020:	6e5b      	ldr	r3, [r3, #100]	; 0x64
    e022:	07db      	lsls	r3, r3, #31
    e024:	d407      	bmi.n	e036 <_vfiprintf_r+0xd8a>
    e026:	465b      	mov	r3, fp
    e028:	899b      	ldrh	r3, [r3, #12]
    e02a:	059b      	lsls	r3, r3, #22
    e02c:	d403      	bmi.n	e036 <_vfiprintf_r+0xd8a>
    e02e:	465b      	mov	r3, fp
    e030:	6d98      	ldr	r0, [r3, #88]	; 0x58
    e032:	f7fd fe2f 	bl	bc94 <__retarget_lock_release_recursive>
    e036:	2301      	movs	r3, #1
    e038:	425b      	negs	r3, r3
    e03a:	9305      	str	r3, [sp, #20]
    e03c:	f7ff f9fc 	bl	d438 <_vfiprintf_r+0x18c>
    e040:	4b09      	ldr	r3, [pc, #36]	; (e068 <_vfiprintf_r+0xdbc>)
    e042:	468c      	mov	ip, r1
    e044:	4699      	mov	r9, r3
    e046:	e47d      	b.n	d944 <_vfiprintf_r+0x698>
    e048:	9908      	ldr	r1, [sp, #32]
    e04a:	c940      	ldmia	r1!, {r6}
    e04c:	2e00      	cmp	r6, #0
    e04e:	da01      	bge.n	e054 <_vfiprintf_r+0xda8>
    e050:	2601      	movs	r6, #1
    e052:	4276      	negs	r6, r6
    e054:	7862      	ldrb	r2, [r4, #1]
    e056:	9108      	str	r1, [sp, #32]
    e058:	001c      	movs	r4, r3
    e05a:	f7ff f9a9 	bl	d3b0 <_vfiprintf_r+0x104>
    e05e:	46c0      	nop			; (mov r8, r8)
    e060:	00010b0c 	.word	0x00010b0c
    e064:	00011058 	.word	0x00011058
    e068:	00011068 	.word	0x00011068

0000e06c <vfiprintf>:
    e06c:	b510      	push	{r4, lr}
    e06e:	0004      	movs	r4, r0
    e070:	0013      	movs	r3, r2
    e072:	4a04      	ldr	r2, [pc, #16]	; (e084 <vfiprintf+0x18>)
    e074:	6810      	ldr	r0, [r2, #0]
    e076:	000a      	movs	r2, r1
    e078:	0021      	movs	r1, r4
    e07a:	f7ff f917 	bl	d2ac <_vfiprintf_r>
    e07e:	bc10      	pop	{r4}
    e080:	bc02      	pop	{r1}
    e082:	4708      	bx	r1
    e084:	0002120c 	.word	0x0002120c

0000e088 <__sbprintf>:
    e088:	b5f0      	push	{r4, r5, r6, r7, lr}
    e08a:	001f      	movs	r7, r3
    e08c:	2302      	movs	r3, #2
    e08e:	4c20      	ldr	r4, [pc, #128]	; (e110 <__sbprintf+0x88>)
    e090:	44a5      	add	sp, r4
    e092:	000c      	movs	r4, r1
    e094:	8989      	ldrh	r1, [r1, #12]
    e096:	4399      	bics	r1, r3
    e098:	466b      	mov	r3, sp
    e09a:	0015      	movs	r5, r2
    e09c:	466a      	mov	r2, sp
    e09e:	8199      	strh	r1, [r3, #12]
    e0a0:	6e63      	ldr	r3, [r4, #100]	; 0x64
    e0a2:	9319      	str	r3, [sp, #100]	; 0x64
    e0a4:	89e3      	ldrh	r3, [r4, #14]
    e0a6:	81d3      	strh	r3, [r2, #14]
    e0a8:	69e3      	ldr	r3, [r4, #28]
    e0aa:	9307      	str	r3, [sp, #28]
    e0ac:	6a63      	ldr	r3, [r4, #36]	; 0x24
    e0ae:	2180      	movs	r1, #128	; 0x80
    e0b0:	9309      	str	r3, [sp, #36]	; 0x24
    e0b2:	ab1a      	add	r3, sp, #104	; 0x68
    e0b4:	0006      	movs	r6, r0
    e0b6:	9300      	str	r3, [sp, #0]
    e0b8:	9304      	str	r3, [sp, #16]
    e0ba:	2300      	movs	r3, #0
    e0bc:	00c9      	lsls	r1, r1, #3
    e0be:	a816      	add	r0, sp, #88	; 0x58
    e0c0:	9102      	str	r1, [sp, #8]
    e0c2:	9105      	str	r1, [sp, #20]
    e0c4:	9306      	str	r3, [sp, #24]
    e0c6:	f7fd fdd5 	bl	bc74 <__retarget_lock_init_recursive>
    e0ca:	002a      	movs	r2, r5
    e0cc:	003b      	movs	r3, r7
    e0ce:	4669      	mov	r1, sp
    e0d0:	0030      	movs	r0, r6
    e0d2:	f7ff f8eb 	bl	d2ac <_vfiprintf_r>
    e0d6:	1e05      	subs	r5, r0, #0
    e0d8:	da10      	bge.n	e0fc <__sbprintf+0x74>
    e0da:	466b      	mov	r3, sp
    e0dc:	899b      	ldrh	r3, [r3, #12]
    e0de:	065b      	lsls	r3, r3, #25
    e0e0:	d503      	bpl.n	e0ea <__sbprintf+0x62>
    e0e2:	2240      	movs	r2, #64	; 0x40
    e0e4:	89a3      	ldrh	r3, [r4, #12]
    e0e6:	4313      	orrs	r3, r2
    e0e8:	81a3      	strh	r3, [r4, #12]
    e0ea:	9816      	ldr	r0, [sp, #88]	; 0x58
    e0ec:	f7fd fdc6 	bl	bc7c <__retarget_lock_close_recursive>
    e0f0:	0028      	movs	r0, r5
    e0f2:	4b08      	ldr	r3, [pc, #32]	; (e114 <__sbprintf+0x8c>)
    e0f4:	449d      	add	sp, r3
    e0f6:	bcf0      	pop	{r4, r5, r6, r7}
    e0f8:	bc02      	pop	{r1}
    e0fa:	4708      	bx	r1
    e0fc:	4669      	mov	r1, sp
    e0fe:	0030      	movs	r0, r6
    e100:	f7fd fa00 	bl	b504 <_fflush_r>
    e104:	2800      	cmp	r0, #0
    e106:	d0e8      	beq.n	e0da <__sbprintf+0x52>
    e108:	2501      	movs	r5, #1
    e10a:	426d      	negs	r5, r5
    e10c:	e7e5      	b.n	e0da <__sbprintf+0x52>
    e10e:	46c0      	nop			; (mov r8, r8)
    e110:	fffffb94 	.word	0xfffffb94
    e114:	0000046c 	.word	0x0000046c

0000e118 <_write_r>:
    e118:	b570      	push	{r4, r5, r6, lr}
    e11a:	0004      	movs	r4, r0
    e11c:	0008      	movs	r0, r1
    e11e:	0011      	movs	r1, r2
    e120:	001a      	movs	r2, r3
    e122:	2300      	movs	r3, #0
    e124:	4d06      	ldr	r5, [pc, #24]	; (e140 <_write_r+0x28>)
    e126:	602b      	str	r3, [r5, #0]
    e128:	f002 fc46 	bl	109b8 <_write>
    e12c:	1c43      	adds	r3, r0, #1
    e12e:	d002      	beq.n	e136 <_write_r+0x1e>
    e130:	bc70      	pop	{r4, r5, r6}
    e132:	bc02      	pop	{r1}
    e134:	4708      	bx	r1
    e136:	682b      	ldr	r3, [r5, #0]
    e138:	2b00      	cmp	r3, #0
    e13a:	d0f9      	beq.n	e130 <_write_r+0x18>
    e13c:	6023      	str	r3, [r4, #0]
    e13e:	e7f7      	b.n	e130 <_write_r+0x18>
    e140:	00021c30 	.word	0x00021c30

0000e144 <__register_exitproc>:
    e144:	b5f0      	push	{r4, r5, r6, r7, lr}
    e146:	46d6      	mov	lr, sl
    e148:	464f      	mov	r7, r9
    e14a:	4646      	mov	r6, r8
    e14c:	b5c0      	push	{r6, r7, lr}
    e14e:	4f27      	ldr	r7, [pc, #156]	; (e1ec <__register_exitproc+0xa8>)
    e150:	b082      	sub	sp, #8
    e152:	0006      	movs	r6, r0
    e154:	6838      	ldr	r0, [r7, #0]
    e156:	4692      	mov	sl, r2
    e158:	4698      	mov	r8, r3
    e15a:	4689      	mov	r9, r1
    e15c:	f7fd fd92 	bl	bc84 <__retarget_lock_acquire_recursive>
    e160:	4b23      	ldr	r3, [pc, #140]	; (e1f0 <__register_exitproc+0xac>)
    e162:	681b      	ldr	r3, [r3, #0]
    e164:	9301      	str	r3, [sp, #4]
    e166:	23a4      	movs	r3, #164	; 0xa4
    e168:	9a01      	ldr	r2, [sp, #4]
    e16a:	005b      	lsls	r3, r3, #1
    e16c:	58d5      	ldr	r5, [r2, r3]
    e16e:	2d00      	cmp	r5, #0
    e170:	d030      	beq.n	e1d4 <__register_exitproc+0x90>
    e172:	686c      	ldr	r4, [r5, #4]
    e174:	2c1f      	cmp	r4, #31
    e176:	dc32      	bgt.n	e1de <__register_exitproc+0x9a>
    e178:	2e00      	cmp	r6, #0
    e17a:	d111      	bne.n	e1a0 <__register_exitproc+0x5c>
    e17c:	1c63      	adds	r3, r4, #1
    e17e:	606b      	str	r3, [r5, #4]
    e180:	464b      	mov	r3, r9
    e182:	3402      	adds	r4, #2
    e184:	00a4      	lsls	r4, r4, #2
    e186:	6838      	ldr	r0, [r7, #0]
    e188:	5163      	str	r3, [r4, r5]
    e18a:	f7fd fd83 	bl	bc94 <__retarget_lock_release_recursive>
    e18e:	2000      	movs	r0, #0
    e190:	b002      	add	sp, #8
    e192:	bce0      	pop	{r5, r6, r7}
    e194:	46ba      	mov	sl, r7
    e196:	46b1      	mov	r9, r6
    e198:	46a8      	mov	r8, r5
    e19a:	bcf0      	pop	{r4, r5, r6, r7}
    e19c:	bc02      	pop	{r1}
    e19e:	4708      	bx	r1
    e1a0:	2288      	movs	r2, #136	; 0x88
    e1a2:	4651      	mov	r1, sl
    e1a4:	0028      	movs	r0, r5
    e1a6:	00a3      	lsls	r3, r4, #2
    e1a8:	18eb      	adds	r3, r5, r3
    e1aa:	5099      	str	r1, [r3, r2]
    e1ac:	3a87      	subs	r2, #135	; 0x87
    e1ae:	40a2      	lsls	r2, r4
    e1b0:	3089      	adds	r0, #137	; 0x89
    e1b2:	30ff      	adds	r0, #255	; 0xff
    e1b4:	6801      	ldr	r1, [r0, #0]
    e1b6:	4311      	orrs	r1, r2
    e1b8:	6001      	str	r1, [r0, #0]
    e1ba:	2184      	movs	r1, #132	; 0x84
    e1bc:	4640      	mov	r0, r8
    e1be:	0049      	lsls	r1, r1, #1
    e1c0:	5058      	str	r0, [r3, r1]
    e1c2:	2e02      	cmp	r6, #2
    e1c4:	d1da      	bne.n	e17c <__register_exitproc+0x38>
    e1c6:	002b      	movs	r3, r5
    e1c8:	338d      	adds	r3, #141	; 0x8d
    e1ca:	33ff      	adds	r3, #255	; 0xff
    e1cc:	6819      	ldr	r1, [r3, #0]
    e1ce:	430a      	orrs	r2, r1
    e1d0:	601a      	str	r2, [r3, #0]
    e1d2:	e7d3      	b.n	e17c <__register_exitproc+0x38>
    e1d4:	0015      	movs	r5, r2
    e1d6:	354d      	adds	r5, #77	; 0x4d
    e1d8:	35ff      	adds	r5, #255	; 0xff
    e1da:	50d5      	str	r5, [r2, r3]
    e1dc:	e7c9      	b.n	e172 <__register_exitproc+0x2e>
    e1de:	6838      	ldr	r0, [r7, #0]
    e1e0:	f7fd fd58 	bl	bc94 <__retarget_lock_release_recursive>
    e1e4:	2001      	movs	r0, #1
    e1e6:	4240      	negs	r0, r0
    e1e8:	e7d2      	b.n	e190 <__register_exitproc+0x4c>
    e1ea:	46c0      	nop			; (mov r8, r8)
    e1ec:	00021638 	.word	0x00021638
    e1f0:	00010ad0 	.word	0x00010ad0

0000e1f4 <__assert_func>:
    e1f4:	b530      	push	{r4, r5, lr}
    e1f6:	0014      	movs	r4, r2
    e1f8:	001a      	movs	r2, r3
    e1fa:	4b0a      	ldr	r3, [pc, #40]	; (e224 <__assert_func+0x30>)
    e1fc:	681b      	ldr	r3, [r3, #0]
    e1fe:	0005      	movs	r5, r0
    e200:	b085      	sub	sp, #20
    e202:	68d8      	ldr	r0, [r3, #12]
    e204:	2c00      	cmp	r4, #0
    e206:	d009      	beq.n	e21c <__assert_func+0x28>
    e208:	4b07      	ldr	r3, [pc, #28]	; (e228 <__assert_func+0x34>)
    e20a:	9301      	str	r3, [sp, #4]
    e20c:	9100      	str	r1, [sp, #0]
    e20e:	002b      	movs	r3, r5
    e210:	4906      	ldr	r1, [pc, #24]	; (e22c <__assert_func+0x38>)
    e212:	9402      	str	r4, [sp, #8]
    e214:	f000 f910 	bl	e438 <fiprintf>
    e218:	f001 f90a 	bl	f430 <abort>
    e21c:	4b04      	ldr	r3, [pc, #16]	; (e230 <__assert_func+0x3c>)
    e21e:	001c      	movs	r4, r3
    e220:	e7f3      	b.n	e20a <__assert_func+0x16>
    e222:	46c0      	nop			; (mov r8, r8)
    e224:	0002120c 	.word	0x0002120c
    e228:	00011078 	.word	0x00011078
    e22c:	00011088 	.word	0x00011088
    e230:	00011084 	.word	0x00011084

0000e234 <__assert>:
    e234:	0013      	movs	r3, r2
    e236:	b510      	push	{r4, lr}
    e238:	2200      	movs	r2, #0
    e23a:	f7ff ffdb 	bl	e1f4 <__assert_func>
    e23e:	46c0      	nop			; (mov r8, r8)

0000e240 <_calloc_r>:
    e240:	b570      	push	{r4, r5, r6, lr}
    e242:	0c0b      	lsrs	r3, r1, #16
    e244:	2400      	movs	r4, #0
    e246:	0c15      	lsrs	r5, r2, #16
    e248:	2b00      	cmp	r3, #0
    e24a:	d12c      	bne.n	e2a6 <_calloc_r+0x66>
    e24c:	2d00      	cmp	r5, #0
    e24e:	d140      	bne.n	e2d2 <_calloc_r+0x92>
    e250:	0409      	lsls	r1, r1, #16
    e252:	0c0b      	lsrs	r3, r1, #16
    e254:	0411      	lsls	r1, r2, #16
    e256:	0c09      	lsrs	r1, r1, #16
    e258:	4359      	muls	r1, r3
    e25a:	f7fd fdc5 	bl	bde8 <_malloc_r>
    e25e:	1e05      	subs	r5, r0, #0
    e260:	d019      	beq.n	e296 <_calloc_r+0x56>
    e262:	0003      	movs	r3, r0
    e264:	3b08      	subs	r3, #8
    e266:	685a      	ldr	r2, [r3, #4]
    e268:	2303      	movs	r3, #3
    e26a:	439a      	bics	r2, r3
    e26c:	3a04      	subs	r2, #4
    e26e:	2a24      	cmp	r2, #36	; 0x24
    e270:	d815      	bhi.n	e29e <_calloc_r+0x5e>
    e272:	0003      	movs	r3, r0
    e274:	2a13      	cmp	r2, #19
    e276:	d90a      	bls.n	e28e <_calloc_r+0x4e>
    e278:	6004      	str	r4, [r0, #0]
    e27a:	6044      	str	r4, [r0, #4]
    e27c:	3308      	adds	r3, #8
    e27e:	2a1b      	cmp	r2, #27
    e280:	d905      	bls.n	e28e <_calloc_r+0x4e>
    e282:	6084      	str	r4, [r0, #8]
    e284:	60c4      	str	r4, [r0, #12]
    e286:	2a24      	cmp	r2, #36	; 0x24
    e288:	d02c      	beq.n	e2e4 <_calloc_r+0xa4>
    e28a:	0003      	movs	r3, r0
    e28c:	3310      	adds	r3, #16
    e28e:	2200      	movs	r2, #0
    e290:	601a      	str	r2, [r3, #0]
    e292:	605a      	str	r2, [r3, #4]
    e294:	609a      	str	r2, [r3, #8]
    e296:	0028      	movs	r0, r5
    e298:	bc70      	pop	{r4, r5, r6}
    e29a:	bc02      	pop	{r1}
    e29c:	4708      	bx	r1
    e29e:	2100      	movs	r1, #0
    e2a0:	f7f9 ffc2 	bl	8228 <memset>
    e2a4:	e7f7      	b.n	e296 <_calloc_r+0x56>
    e2a6:	2d00      	cmp	r5, #0
    e2a8:	d116      	bne.n	e2d8 <_calloc_r+0x98>
    e2aa:	1c15      	adds	r5, r2, #0
    e2ac:	0409      	lsls	r1, r1, #16
    e2ae:	0412      	lsls	r2, r2, #16
    e2b0:	0c09      	lsrs	r1, r1, #16
    e2b2:	0c12      	lsrs	r2, r2, #16
    e2b4:	434a      	muls	r2, r1
    e2b6:	042d      	lsls	r5, r5, #16
    e2b8:	0419      	lsls	r1, r3, #16
    e2ba:	0c2d      	lsrs	r5, r5, #16
    e2bc:	0c09      	lsrs	r1, r1, #16
    e2be:	4369      	muls	r1, r5
    e2c0:	0c13      	lsrs	r3, r2, #16
    e2c2:	18c9      	adds	r1, r1, r3
    e2c4:	0c0b      	lsrs	r3, r1, #16
    e2c6:	d107      	bne.n	e2d8 <_calloc_r+0x98>
    e2c8:	0412      	lsls	r2, r2, #16
    e2ca:	0409      	lsls	r1, r1, #16
    e2cc:	0c12      	lsrs	r2, r2, #16
    e2ce:	4311      	orrs	r1, r2
    e2d0:	e7c3      	b.n	e25a <_calloc_r+0x1a>
    e2d2:	1c2b      	adds	r3, r5, #0
    e2d4:	1c0d      	adds	r5, r1, #0
    e2d6:	e7e9      	b.n	e2ac <_calloc_r+0x6c>
    e2d8:	f000 f81e 	bl	e318 <__errno>
    e2dc:	230c      	movs	r3, #12
    e2de:	2500      	movs	r5, #0
    e2e0:	6003      	str	r3, [r0, #0]
    e2e2:	e7d8      	b.n	e296 <_calloc_r+0x56>
    e2e4:	0003      	movs	r3, r0
    e2e6:	6104      	str	r4, [r0, #16]
    e2e8:	6144      	str	r4, [r0, #20]
    e2ea:	3318      	adds	r3, #24
    e2ec:	e7cf      	b.n	e28e <_calloc_r+0x4e>
    e2ee:	46c0      	nop			; (mov r8, r8)

0000e2f0 <_close_r>:
    e2f0:	2300      	movs	r3, #0
    e2f2:	b570      	push	{r4, r5, r6, lr}
    e2f4:	4d07      	ldr	r5, [pc, #28]	; (e314 <_close_r+0x24>)
    e2f6:	0004      	movs	r4, r0
    e2f8:	0008      	movs	r0, r1
    e2fa:	602b      	str	r3, [r5, #0]
    e2fc:	f002 fb16 	bl	1092c <_close>
    e300:	1c43      	adds	r3, r0, #1
    e302:	d002      	beq.n	e30a <_close_r+0x1a>
    e304:	bc70      	pop	{r4, r5, r6}
    e306:	bc02      	pop	{r1}
    e308:	4708      	bx	r1
    e30a:	682b      	ldr	r3, [r5, #0]
    e30c:	2b00      	cmp	r3, #0
    e30e:	d0f9      	beq.n	e304 <_close_r+0x14>
    e310:	6023      	str	r3, [r4, #0]
    e312:	e7f7      	b.n	e304 <_close_r+0x14>
    e314:	00021c30 	.word	0x00021c30

0000e318 <__errno>:
    e318:	4b01      	ldr	r3, [pc, #4]	; (e320 <__errno+0x8>)
    e31a:	6818      	ldr	r0, [r3, #0]
    e31c:	4770      	bx	lr
    e31e:	46c0      	nop			; (mov r8, r8)
    e320:	0002120c 	.word	0x0002120c

0000e324 <_fclose_r>:
    e324:	b5f8      	push	{r3, r4, r5, r6, r7, lr}
    e326:	0006      	movs	r6, r0
    e328:	1e0c      	subs	r4, r1, #0
    e32a:	d050      	beq.n	e3ce <_fclose_r+0xaa>
    e32c:	2800      	cmp	r0, #0
    e32e:	d002      	beq.n	e336 <_fclose_r+0x12>
    e330:	6b83      	ldr	r3, [r0, #56]	; 0x38
    e332:	2b00      	cmp	r3, #0
    e334:	d04d      	beq.n	e3d2 <_fclose_r+0xae>
    e336:	2701      	movs	r7, #1
    e338:	6e63      	ldr	r3, [r4, #100]	; 0x64
    e33a:	423b      	tst	r3, r7
    e33c:	d038      	beq.n	e3b0 <_fclose_r+0x8c>
    e33e:	220c      	movs	r2, #12
    e340:	5ea3      	ldrsh	r3, [r4, r2]
    e342:	2b00      	cmp	r3, #0
    e344:	d043      	beq.n	e3ce <_fclose_r+0xaa>
    e346:	0021      	movs	r1, r4
    e348:	0030      	movs	r0, r6
    e34a:	f7fd f825 	bl	b398 <__sflush_r>
    e34e:	6ae3      	ldr	r3, [r4, #44]	; 0x2c
    e350:	0005      	movs	r5, r0
    e352:	2b00      	cmp	r3, #0
    e354:	d005      	beq.n	e362 <_fclose_r+0x3e>
    e356:	0030      	movs	r0, r6
    e358:	69e1      	ldr	r1, [r4, #28]
    e35a:	f000 f853 	bl	e404 <_fclose_r+0xe0>
    e35e:	2800      	cmp	r0, #0
    e360:	db3e      	blt.n	e3e0 <_fclose_r+0xbc>
    e362:	89a3      	ldrh	r3, [r4, #12]
    e364:	061b      	lsls	r3, r3, #24
    e366:	d440      	bmi.n	e3ea <_fclose_r+0xc6>
    e368:	6b21      	ldr	r1, [r4, #48]	; 0x30
    e36a:	2900      	cmp	r1, #0
    e36c:	d008      	beq.n	e380 <_fclose_r+0x5c>
    e36e:	0023      	movs	r3, r4
    e370:	3340      	adds	r3, #64	; 0x40
    e372:	4299      	cmp	r1, r3
    e374:	d002      	beq.n	e37c <_fclose_r+0x58>
    e376:	0030      	movs	r0, r6
    e378:	f7fd fb40 	bl	b9fc <_free_r>
    e37c:	2300      	movs	r3, #0
    e37e:	6323      	str	r3, [r4, #48]	; 0x30
    e380:	6c61      	ldr	r1, [r4, #68]	; 0x44
    e382:	2900      	cmp	r1, #0
    e384:	d004      	beq.n	e390 <_fclose_r+0x6c>
    e386:	0030      	movs	r0, r6
    e388:	f7fd fb38 	bl	b9fc <_free_r>
    e38c:	2300      	movs	r3, #0
    e38e:	6463      	str	r3, [r4, #68]	; 0x44
    e390:	f7fd fa80 	bl	b894 <__sfp_lock_acquire>
    e394:	2300      	movs	r3, #0
    e396:	81a3      	strh	r3, [r4, #12]
    e398:	6e63      	ldr	r3, [r4, #100]	; 0x64
    e39a:	07db      	lsls	r3, r3, #31
    e39c:	d52e      	bpl.n	e3fc <_fclose_r+0xd8>
    e39e:	6da0      	ldr	r0, [r4, #88]	; 0x58
    e3a0:	f7fd fc6c 	bl	bc7c <__retarget_lock_close_recursive>
    e3a4:	f7fd fa80 	bl	b8a8 <__sfp_lock_release>
    e3a8:	0028      	movs	r0, r5
    e3aa:	bcf8      	pop	{r3, r4, r5, r6, r7}
    e3ac:	bc02      	pop	{r1}
    e3ae:	4708      	bx	r1
    e3b0:	89a3      	ldrh	r3, [r4, #12]
    e3b2:	059b      	lsls	r3, r3, #22
    e3b4:	d4c7      	bmi.n	e346 <_fclose_r+0x22>
    e3b6:	6da0      	ldr	r0, [r4, #88]	; 0x58
    e3b8:	f7fd fc64 	bl	bc84 <__retarget_lock_acquire_recursive>
    e3bc:	220c      	movs	r2, #12
    e3be:	5ea3      	ldrsh	r3, [r4, r2]
    e3c0:	2b00      	cmp	r3, #0
    e3c2:	d1c0      	bne.n	e346 <_fclose_r+0x22>
    e3c4:	6e63      	ldr	r3, [r4, #100]	; 0x64
    e3c6:	001d      	movs	r5, r3
    e3c8:	403d      	ands	r5, r7
    e3ca:	423b      	tst	r3, r7
    e3cc:	d012      	beq.n	e3f4 <_fclose_r+0xd0>
    e3ce:	2500      	movs	r5, #0
    e3d0:	e7ea      	b.n	e3a8 <_fclose_r+0x84>
    e3d2:	2701      	movs	r7, #1
    e3d4:	f7fd f95e 	bl	b694 <__sinit>
    e3d8:	6e63      	ldr	r3, [r4, #100]	; 0x64
    e3da:	423b      	tst	r3, r7
    e3dc:	d1af      	bne.n	e33e <_fclose_r+0x1a>
    e3de:	e7e7      	b.n	e3b0 <_fclose_r+0x8c>
    e3e0:	2501      	movs	r5, #1
    e3e2:	89a3      	ldrh	r3, [r4, #12]
    e3e4:	426d      	negs	r5, r5
    e3e6:	061b      	lsls	r3, r3, #24
    e3e8:	d5be      	bpl.n	e368 <_fclose_r+0x44>
    e3ea:	0030      	movs	r0, r6
    e3ec:	6921      	ldr	r1, [r4, #16]
    e3ee:	f7fd fb05 	bl	b9fc <_free_r>
    e3f2:	e7b9      	b.n	e368 <_fclose_r+0x44>
    e3f4:	6da0      	ldr	r0, [r4, #88]	; 0x58
    e3f6:	f7fd fc4d 	bl	bc94 <__retarget_lock_release_recursive>
    e3fa:	e7d5      	b.n	e3a8 <_fclose_r+0x84>
    e3fc:	6da0      	ldr	r0, [r4, #88]	; 0x58
    e3fe:	f7fd fc49 	bl	bc94 <__retarget_lock_release_recursive>
    e402:	e7cc      	b.n	e39e <_fclose_r+0x7a>
    e404:	4718      	bx	r3
    e406:	46c0      	nop			; (mov r8, r8)

0000e408 <fclose>:
    e408:	b510      	push	{r4, lr}
    e40a:	4b04      	ldr	r3, [pc, #16]	; (e41c <fclose+0x14>)
    e40c:	0001      	movs	r1, r0
    e40e:	6818      	ldr	r0, [r3, #0]
    e410:	f7ff ff88 	bl	e324 <_fclose_r>
    e414:	bc10      	pop	{r4}
    e416:	bc02      	pop	{r1}
    e418:	4708      	bx	r1
    e41a:	46c0      	nop			; (mov r8, r8)
    e41c:	0002120c 	.word	0x0002120c

0000e420 <_fiprintf_r>:
    e420:	b40c      	push	{r2, r3}
    e422:	b500      	push	{lr}
    e424:	b083      	sub	sp, #12
    e426:	ab04      	add	r3, sp, #16
    e428:	cb04      	ldmia	r3!, {r2}
    e42a:	9301      	str	r3, [sp, #4]
    e42c:	f7fe ff3e 	bl	d2ac <_vfiprintf_r>
    e430:	b003      	add	sp, #12
    e432:	bc08      	pop	{r3}
    e434:	b002      	add	sp, #8
    e436:	4718      	bx	r3

0000e438 <fiprintf>:
    e438:	b40e      	push	{r1, r2, r3}
    e43a:	b500      	push	{lr}
    e43c:	b082      	sub	sp, #8
    e43e:	ab03      	add	r3, sp, #12
    e440:	0001      	movs	r1, r0
    e442:	4805      	ldr	r0, [pc, #20]	; (e458 <fiprintf+0x20>)
    e444:	cb04      	ldmia	r3!, {r2}
    e446:	6800      	ldr	r0, [r0, #0]
    e448:	9301      	str	r3, [sp, #4]
    e44a:	f7fe ff2f 	bl	d2ac <_vfiprintf_r>
    e44e:	b002      	add	sp, #8
    e450:	bc08      	pop	{r3}
    e452:	b003      	add	sp, #12
    e454:	4718      	bx	r3
    e456:	46c0      	nop			; (mov r8, r8)
    e458:	0002120c 	.word	0x0002120c

0000e45c <__fputwc>:
    e45c:	b5f0      	push	{r4, r5, r6, r7, lr}
    e45e:	464f      	mov	r7, r9
    e460:	4646      	mov	r6, r8
    e462:	46d6      	mov	lr, sl
    e464:	b5c0      	push	{r6, r7, lr}
    e466:	b082      	sub	sp, #8
    e468:	4680      	mov	r8, r0
    e46a:	4689      	mov	r9, r1
    e46c:	0014      	movs	r4, r2
    e46e:	f000 fa9b 	bl	e9a8 <__locale_mb_cur_max>
    e472:	2801      	cmp	r0, #1
    e474:	d103      	bne.n	e47e <__fputwc+0x22>
    e476:	464b      	mov	r3, r9
    e478:	3b01      	subs	r3, #1
    e47a:	2bfe      	cmp	r3, #254	; 0xfe
    e47c:	d939      	bls.n	e4f2 <__fputwc+0x96>
    e47e:	ab01      	add	r3, sp, #4
    e480:	469a      	mov	sl, r3
    e482:	0023      	movs	r3, r4
    e484:	464a      	mov	r2, r9
    e486:	4651      	mov	r1, sl
    e488:	4640      	mov	r0, r8
    e48a:	335c      	adds	r3, #92	; 0x5c
    e48c:	f000 ff66 	bl	f35c <_wcrtomb_r>
    e490:	0006      	movs	r6, r0
    e492:	1c43      	adds	r3, r0, #1
    e494:	d037      	beq.n	e506 <__fputwc+0xaa>
    e496:	2800      	cmp	r0, #0
    e498:	d033      	beq.n	e502 <__fputwc+0xa6>
    e49a:	4653      	mov	r3, sl
    e49c:	7819      	ldrb	r1, [r3, #0]
    e49e:	2500      	movs	r5, #0
    e4a0:	e00a      	b.n	e4b8 <__fputwc+0x5c>
    e4a2:	290a      	cmp	r1, #10
    e4a4:	d015      	beq.n	e4d2 <__fputwc+0x76>
    e4a6:	6823      	ldr	r3, [r4, #0]
    e4a8:	1c5a      	adds	r2, r3, #1
    e4aa:	6022      	str	r2, [r4, #0]
    e4ac:	7019      	strb	r1, [r3, #0]
    e4ae:	3501      	adds	r5, #1
    e4b0:	42b5      	cmp	r5, r6
    e4b2:	d226      	bcs.n	e502 <__fputwc+0xa6>
    e4b4:	4653      	mov	r3, sl
    e4b6:	5d59      	ldrb	r1, [r3, r5]
    e4b8:	68a3      	ldr	r3, [r4, #8]
    e4ba:	3b01      	subs	r3, #1
    e4bc:	60a3      	str	r3, [r4, #8]
    e4be:	2b00      	cmp	r3, #0
    e4c0:	daf1      	bge.n	e4a6 <__fputwc+0x4a>
    e4c2:	69a0      	ldr	r0, [r4, #24]
    e4c4:	69a7      	ldr	r7, [r4, #24]
    e4c6:	17da      	asrs	r2, r3, #31
    e4c8:	0fc0      	lsrs	r0, r0, #31
    e4ca:	42bb      	cmp	r3, r7
    e4cc:	4142      	adcs	r2, r0
    e4ce:	0613      	lsls	r3, r2, #24
    e4d0:	d1e7      	bne.n	e4a2 <__fputwc+0x46>
    e4d2:	0022      	movs	r2, r4
    e4d4:	4640      	mov	r0, r8
    e4d6:	f000 fec9 	bl	f26c <__swbuf_r>
    e4da:	1c43      	adds	r3, r0, #1
    e4dc:	d1e7      	bne.n	e4ae <__fputwc+0x52>
    e4de:	0006      	movs	r6, r0
    e4e0:	0030      	movs	r0, r6
    e4e2:	b002      	add	sp, #8
    e4e4:	bce0      	pop	{r5, r6, r7}
    e4e6:	46ba      	mov	sl, r7
    e4e8:	46b1      	mov	r9, r6
    e4ea:	46a8      	mov	r8, r5
    e4ec:	bcf0      	pop	{r4, r5, r6, r7}
    e4ee:	bc02      	pop	{r1}
    e4f0:	4708      	bx	r1
    e4f2:	464b      	mov	r3, r9
    e4f4:	0619      	lsls	r1, r3, #24
    e4f6:	0e09      	lsrs	r1, r1, #24
    e4f8:	ab01      	add	r3, sp, #4
    e4fa:	469a      	mov	sl, r3
    e4fc:	2601      	movs	r6, #1
    e4fe:	7019      	strb	r1, [r3, #0]
    e500:	e7cd      	b.n	e49e <__fputwc+0x42>
    e502:	464e      	mov	r6, r9
    e504:	e7ec      	b.n	e4e0 <__fputwc+0x84>
    e506:	2240      	movs	r2, #64	; 0x40
    e508:	89a3      	ldrh	r3, [r4, #12]
    e50a:	4313      	orrs	r3, r2
    e50c:	81a3      	strh	r3, [r4, #12]
    e50e:	e7e7      	b.n	e4e0 <__fputwc+0x84>

0000e510 <_fputwc_r>:
    e510:	6e53      	ldr	r3, [r2, #100]	; 0x64
    e512:	b570      	push	{r4, r5, r6, lr}
    e514:	0005      	movs	r5, r0
    e516:	000e      	movs	r6, r1
    e518:	0014      	movs	r4, r2
    e51a:	07db      	lsls	r3, r3, #31
    e51c:	d421      	bmi.n	e562 <_fputwc_r+0x52>
    e51e:	230c      	movs	r3, #12
    e520:	5ed2      	ldrsh	r2, [r2, r3]
    e522:	0413      	lsls	r3, r2, #16
    e524:	0c19      	lsrs	r1, r3, #16
    e526:	019b      	lsls	r3, r3, #6
    e528:	d518      	bpl.n	e55c <_fputwc_r+0x4c>
    e52a:	2380      	movs	r3, #128	; 0x80
    e52c:	019b      	lsls	r3, r3, #6
    e52e:	4219      	tst	r1, r3
    e530:	d104      	bne.n	e53c <_fputwc_r+0x2c>
    e532:	431a      	orrs	r2, r3
    e534:	81a2      	strh	r2, [r4, #12]
    e536:	6e62      	ldr	r2, [r4, #100]	; 0x64
    e538:	4313      	orrs	r3, r2
    e53a:	6663      	str	r3, [r4, #100]	; 0x64
    e53c:	0028      	movs	r0, r5
    e53e:	0022      	movs	r2, r4
    e540:	0031      	movs	r1, r6
    e542:	f7ff ff8b 	bl	e45c <__fputwc>
    e546:	6e63      	ldr	r3, [r4, #100]	; 0x64
    e548:	0005      	movs	r5, r0
    e54a:	07db      	lsls	r3, r3, #31
    e54c:	d402      	bmi.n	e554 <_fputwc_r+0x44>
    e54e:	89a3      	ldrh	r3, [r4, #12]
    e550:	059b      	lsls	r3, r3, #22
    e552:	d50b      	bpl.n	e56c <_fputwc_r+0x5c>
    e554:	0028      	movs	r0, r5
    e556:	bc70      	pop	{r4, r5, r6}
    e558:	bc02      	pop	{r1}
    e55a:	4708      	bx	r1
    e55c:	6da0      	ldr	r0, [r4, #88]	; 0x58
    e55e:	f7fd fb91 	bl	bc84 <__retarget_lock_acquire_recursive>
    e562:	230c      	movs	r3, #12
    e564:	5ee2      	ldrsh	r2, [r4, r3]
    e566:	0411      	lsls	r1, r2, #16
    e568:	0c09      	lsrs	r1, r1, #16
    e56a:	e7de      	b.n	e52a <_fputwc_r+0x1a>
    e56c:	6da0      	ldr	r0, [r4, #88]	; 0x58
    e56e:	f7fd fb91 	bl	bc94 <__retarget_lock_release_recursive>
    e572:	e7ef      	b.n	e554 <_fputwc_r+0x44>

0000e574 <fputwc>:
    e574:	4b1d      	ldr	r3, [pc, #116]	; (e5ec <fputwc+0x78>)
    e576:	b570      	push	{r4, r5, r6, lr}
    e578:	681e      	ldr	r6, [r3, #0]
    e57a:	0005      	movs	r5, r0
    e57c:	000c      	movs	r4, r1
    e57e:	2e00      	cmp	r6, #0
    e580:	d002      	beq.n	e588 <fputwc+0x14>
    e582:	6bb3      	ldr	r3, [r6, #56]	; 0x38
    e584:	2b00      	cmp	r3, #0
    e586:	d029      	beq.n	e5dc <fputwc+0x68>
    e588:	6e63      	ldr	r3, [r4, #100]	; 0x64
    e58a:	07db      	lsls	r3, r3, #31
    e58c:	d421      	bmi.n	e5d2 <fputwc+0x5e>
    e58e:	230c      	movs	r3, #12
    e590:	5ee2      	ldrsh	r2, [r4, r3]
    e592:	0413      	lsls	r3, r2, #16
    e594:	0c19      	lsrs	r1, r3, #16
    e596:	019b      	lsls	r3, r3, #6
    e598:	d518      	bpl.n	e5cc <fputwc+0x58>
    e59a:	2380      	movs	r3, #128	; 0x80
    e59c:	019b      	lsls	r3, r3, #6
    e59e:	4219      	tst	r1, r3
    e5a0:	d104      	bne.n	e5ac <fputwc+0x38>
    e5a2:	431a      	orrs	r2, r3
    e5a4:	81a2      	strh	r2, [r4, #12]
    e5a6:	6e62      	ldr	r2, [r4, #100]	; 0x64
    e5a8:	4313      	orrs	r3, r2
    e5aa:	6663      	str	r3, [r4, #100]	; 0x64
    e5ac:	0029      	movs	r1, r5
    e5ae:	0022      	movs	r2, r4
    e5b0:	0030      	movs	r0, r6
    e5b2:	f7ff ff53 	bl	e45c <__fputwc>
    e5b6:	6e63      	ldr	r3, [r4, #100]	; 0x64
    e5b8:	0005      	movs	r5, r0
    e5ba:	07db      	lsls	r3, r3, #31
    e5bc:	d402      	bmi.n	e5c4 <fputwc+0x50>
    e5be:	89a3      	ldrh	r3, [r4, #12]
    e5c0:	059b      	lsls	r3, r3, #22
    e5c2:	d50f      	bpl.n	e5e4 <fputwc+0x70>
    e5c4:	0028      	movs	r0, r5
    e5c6:	bc70      	pop	{r4, r5, r6}
    e5c8:	bc02      	pop	{r1}
    e5ca:	4708      	bx	r1
    e5cc:	6da0      	ldr	r0, [r4, #88]	; 0x58
    e5ce:	f7fd fb59 	bl	bc84 <__retarget_lock_acquire_recursive>
    e5d2:	230c      	movs	r3, #12
    e5d4:	5ee2      	ldrsh	r2, [r4, r3]
    e5d6:	0411      	lsls	r1, r2, #16
    e5d8:	0c09      	lsrs	r1, r1, #16
    e5da:	e7de      	b.n	e59a <fputwc+0x26>
    e5dc:	0030      	movs	r0, r6
    e5de:	f7fd f859 	bl	b694 <__sinit>
    e5e2:	e7d1      	b.n	e588 <fputwc+0x14>
    e5e4:	6da0      	ldr	r0, [r4, #88]	; 0x58
    e5e6:	f7fd fb55 	bl	bc94 <__retarget_lock_release_recursive>
    e5ea:	e7eb      	b.n	e5c4 <fputwc+0x50>
    e5ec:	0002120c 	.word	0x0002120c

0000e5f0 <_fstat_r>:
    e5f0:	2300      	movs	r3, #0
    e5f2:	b570      	push	{r4, r5, r6, lr}
    e5f4:	4d08      	ldr	r5, [pc, #32]	; (e618 <_fstat_r+0x28>)
    e5f6:	0004      	movs	r4, r0
    e5f8:	0008      	movs	r0, r1
    e5fa:	0011      	movs	r1, r2
    e5fc:	602b      	str	r3, [r5, #0]
    e5fe:	f002 f99d 	bl	1093c <_fstat>
    e602:	1c43      	adds	r3, r0, #1
    e604:	d002      	beq.n	e60c <_fstat_r+0x1c>
    e606:	bc70      	pop	{r4, r5, r6}
    e608:	bc02      	pop	{r1}
    e60a:	4708      	bx	r1
    e60c:	682b      	ldr	r3, [r5, #0]
    e60e:	2b00      	cmp	r3, #0
    e610:	d0f9      	beq.n	e606 <_fstat_r+0x16>
    e612:	6023      	str	r3, [r4, #0]
    e614:	e7f7      	b.n	e606 <_fstat_r+0x16>
    e616:	46c0      	nop			; (mov r8, r8)
    e618:	00021c30 	.word	0x00021c30

0000e61c <__sfvwrite_r>:
    e61c:	b5f0      	push	{r4, r5, r6, r7, lr}
    e61e:	46de      	mov	lr, fp
    e620:	4645      	mov	r5, r8
    e622:	4657      	mov	r7, sl
    e624:	464e      	mov	r6, r9
    e626:	b5e0      	push	{r5, r6, r7, lr}
    e628:	6893      	ldr	r3, [r2, #8]
    e62a:	4683      	mov	fp, r0
    e62c:	000c      	movs	r4, r1
    e62e:	4690      	mov	r8, r2
    e630:	b083      	sub	sp, #12
    e632:	2b00      	cmp	r3, #0
    e634:	d027      	beq.n	e686 <__sfvwrite_r+0x6a>
    e636:	220c      	movs	r2, #12
    e638:	5e8b      	ldrsh	r3, [r1, r2]
    e63a:	041b      	lsls	r3, r3, #16
    e63c:	0c1a      	lsrs	r2, r3, #16
    e63e:	0319      	lsls	r1, r3, #12
    e640:	d52b      	bpl.n	e69a <__sfvwrite_r+0x7e>
    e642:	6921      	ldr	r1, [r4, #16]
    e644:	2900      	cmp	r1, #0
    e646:	d028      	beq.n	e69a <__sfvwrite_r+0x7e>
    e648:	4641      	mov	r1, r8
    e64a:	680e      	ldr	r6, [r1, #0]
    e64c:	0791      	lsls	r1, r2, #30
    e64e:	d533      	bpl.n	e6b8 <__sfvwrite_r+0x9c>
    e650:	2700      	movs	r7, #0
    e652:	4bb4      	ldr	r3, [pc, #720]	; (e924 <__sfvwrite_r+0x308>)
    e654:	2500      	movs	r5, #0
    e656:	4699      	mov	r9, r3
    e658:	46ba      	mov	sl, r7
    e65a:	2d00      	cmp	r5, #0
    e65c:	d061      	beq.n	e722 <__sfvwrite_r+0x106>
    e65e:	002b      	movs	r3, r5
    e660:	454d      	cmp	r5, r9
    e662:	d900      	bls.n	e666 <__sfvwrite_r+0x4a>
    e664:	4baf      	ldr	r3, [pc, #700]	; (e924 <__sfvwrite_r+0x308>)
    e666:	4652      	mov	r2, sl
    e668:	4658      	mov	r0, fp
    e66a:	69e1      	ldr	r1, [r4, #28]
    e66c:	6a67      	ldr	r7, [r4, #36]	; 0x24
    e66e:	f000 f962 	bl	e936 <__sfvwrite_r+0x31a>
    e672:	2800      	cmp	r0, #0
    e674:	dd60      	ble.n	e738 <__sfvwrite_r+0x11c>
    e676:	4643      	mov	r3, r8
    e678:	689b      	ldr	r3, [r3, #8]
    e67a:	4482      	add	sl, r0
    e67c:	1a2d      	subs	r5, r5, r0
    e67e:	1a18      	subs	r0, r3, r0
    e680:	4643      	mov	r3, r8
    e682:	6098      	str	r0, [r3, #8]
    e684:	d1e9      	bne.n	e65a <__sfvwrite_r+0x3e>
    e686:	2000      	movs	r0, #0
    e688:	b003      	add	sp, #12
    e68a:	bcf0      	pop	{r4, r5, r6, r7}
    e68c:	46bb      	mov	fp, r7
    e68e:	46b2      	mov	sl, r6
    e690:	46a9      	mov	r9, r5
    e692:	46a0      	mov	r8, r4
    e694:	bcf0      	pop	{r4, r5, r6, r7}
    e696:	bc02      	pop	{r1}
    e698:	4708      	bx	r1
    e69a:	0021      	movs	r1, r4
    e69c:	4658      	mov	r0, fp
    e69e:	f7fb fcc7 	bl	a030 <__swsetup_r>
    e6a2:	2800      	cmp	r0, #0
    e6a4:	d000      	beq.n	e6a8 <__sfvwrite_r+0x8c>
    e6a6:	e13a      	b.n	e91e <__sfvwrite_r+0x302>
    e6a8:	4641      	mov	r1, r8
    e6aa:	220c      	movs	r2, #12
    e6ac:	5ea3      	ldrsh	r3, [r4, r2]
    e6ae:	041b      	lsls	r3, r3, #16
    e6b0:	0c1a      	lsrs	r2, r3, #16
    e6b2:	680e      	ldr	r6, [r1, #0]
    e6b4:	0791      	lsls	r1, r2, #30
    e6b6:	d4cb      	bmi.n	e650 <__sfvwrite_r+0x34>
    e6b8:	07d2      	lsls	r2, r2, #31
    e6ba:	d445      	bmi.n	e748 <__sfvwrite_r+0x12c>
    e6bc:	2200      	movs	r2, #0
    e6be:	2700      	movs	r7, #0
    e6c0:	4691      	mov	r9, r2
    e6c2:	2f00      	cmp	r7, #0
    e6c4:	d028      	beq.n	e718 <__sfvwrite_r+0xfc>
    e6c6:	2280      	movs	r2, #128	; 0x80
    e6c8:	0c1b      	lsrs	r3, r3, #16
    e6ca:	0092      	lsls	r2, r2, #2
    e6cc:	68a5      	ldr	r5, [r4, #8]
    e6ce:	4213      	tst	r3, r2
    e6d0:	d100      	bne.n	e6d4 <__sfvwrite_r+0xb8>
    e6d2:	e087      	b.n	e7e4 <__sfvwrite_r+0x1c8>
    e6d4:	46aa      	mov	sl, r5
    e6d6:	42bd      	cmp	r5, r7
    e6d8:	d900      	bls.n	e6dc <__sfvwrite_r+0xc0>
    e6da:	e0b7      	b.n	e84c <__sfvwrite_r+0x230>
    e6dc:	2290      	movs	r2, #144	; 0x90
    e6de:	00d2      	lsls	r2, r2, #3
    e6e0:	4213      	tst	r3, r2
    e6e2:	d000      	beq.n	e6e6 <__sfvwrite_r+0xca>
    e6e4:	e0c3      	b.n	e86e <__sfvwrite_r+0x252>
    e6e6:	6820      	ldr	r0, [r4, #0]
    e6e8:	4652      	mov	r2, sl
    e6ea:	4649      	mov	r1, r9
    e6ec:	f000 f9c6 	bl	ea7c <memmove>
    e6f0:	68a3      	ldr	r3, [r4, #8]
    e6f2:	1b5d      	subs	r5, r3, r5
    e6f4:	60a5      	str	r5, [r4, #8]
    e6f6:	003d      	movs	r5, r7
    e6f8:	2700      	movs	r7, #0
    e6fa:	6823      	ldr	r3, [r4, #0]
    e6fc:	4453      	add	r3, sl
    e6fe:	6023      	str	r3, [r4, #0]
    e700:	4643      	mov	r3, r8
    e702:	689b      	ldr	r3, [r3, #8]
    e704:	44a9      	add	r9, r5
    e706:	1b5d      	subs	r5, r3, r5
    e708:	4643      	mov	r3, r8
    e70a:	609d      	str	r5, [r3, #8]
    e70c:	d0bb      	beq.n	e686 <__sfvwrite_r+0x6a>
    e70e:	220c      	movs	r2, #12
    e710:	5ea3      	ldrsh	r3, [r4, r2]
    e712:	041b      	lsls	r3, r3, #16
    e714:	2f00      	cmp	r7, #0
    e716:	d1d6      	bne.n	e6c6 <__sfvwrite_r+0xaa>
    e718:	6832      	ldr	r2, [r6, #0]
    e71a:	6877      	ldr	r7, [r6, #4]
    e71c:	4691      	mov	r9, r2
    e71e:	3608      	adds	r6, #8
    e720:	e7cf      	b.n	e6c2 <__sfvwrite_r+0xa6>
    e722:	6833      	ldr	r3, [r6, #0]
    e724:	6875      	ldr	r5, [r6, #4]
    e726:	469a      	mov	sl, r3
    e728:	3608      	adds	r6, #8
    e72a:	e796      	b.n	e65a <__sfvwrite_r+0x3e>
    e72c:	0021      	movs	r1, r4
    e72e:	9801      	ldr	r0, [sp, #4]
    e730:	f7fc fee8 	bl	b504 <_fflush_r>
    e734:	2800      	cmp	r0, #0
    e736:	d034      	beq.n	e7a2 <__sfvwrite_r+0x186>
    e738:	220c      	movs	r2, #12
    e73a:	5ea3      	ldrsh	r3, [r4, r2]
    e73c:	2240      	movs	r2, #64	; 0x40
    e73e:	2001      	movs	r0, #1
    e740:	4313      	orrs	r3, r2
    e742:	81a3      	strh	r3, [r4, #12]
    e744:	4240      	negs	r0, r0
    e746:	e79f      	b.n	e688 <__sfvwrite_r+0x6c>
    e748:	2200      	movs	r2, #0
    e74a:	2300      	movs	r3, #0
    e74c:	4692      	mov	sl, r2
    e74e:	2700      	movs	r7, #0
    e750:	465a      	mov	r2, fp
    e752:	2000      	movs	r0, #0
    e754:	46b3      	mov	fp, r6
    e756:	9201      	str	r2, [sp, #4]
    e758:	001e      	movs	r6, r3
    e75a:	2f00      	cmp	r7, #0
    e75c:	d02c      	beq.n	e7b8 <__sfvwrite_r+0x19c>
    e75e:	2800      	cmp	r0, #0
    e760:	d034      	beq.n	e7cc <__sfvwrite_r+0x1b0>
    e762:	0033      	movs	r3, r6
    e764:	46b9      	mov	r9, r7
    e766:	429f      	cmp	r7, r3
    e768:	d900      	bls.n	e76c <__sfvwrite_r+0x150>
    e76a:	4699      	mov	r9, r3
    e76c:	68a2      	ldr	r2, [r4, #8]
    e76e:	6963      	ldr	r3, [r4, #20]
    e770:	6820      	ldr	r0, [r4, #0]
    e772:	189d      	adds	r5, r3, r2
    e774:	6922      	ldr	r2, [r4, #16]
    e776:	4282      	cmp	r2, r0
    e778:	d206      	bcs.n	e788 <__sfvwrite_r+0x16c>
    e77a:	2201      	movs	r2, #1
    e77c:	45a9      	cmp	r9, r5
    e77e:	dc00      	bgt.n	e782 <__sfvwrite_r+0x166>
    e780:	2200      	movs	r2, #0
    e782:	0612      	lsls	r2, r2, #24
    e784:	d000      	beq.n	e788 <__sfvwrite_r+0x16c>
    e786:	e0a0      	b.n	e8ca <__sfvwrite_r+0x2ae>
    e788:	454b      	cmp	r3, r9
    e78a:	dc63      	bgt.n	e854 <__sfvwrite_r+0x238>
    e78c:	6a65      	ldr	r5, [r4, #36]	; 0x24
    e78e:	4652      	mov	r2, sl
    e790:	69e1      	ldr	r1, [r4, #28]
    e792:	9801      	ldr	r0, [sp, #4]
    e794:	f000 f8ce 	bl	e934 <__sfvwrite_r+0x318>
    e798:	1e05      	subs	r5, r0, #0
    e79a:	ddcd      	ble.n	e738 <__sfvwrite_r+0x11c>
    e79c:	2001      	movs	r0, #1
    e79e:	1b76      	subs	r6, r6, r5
    e7a0:	d0c4      	beq.n	e72c <__sfvwrite_r+0x110>
    e7a2:	4643      	mov	r3, r8
    e7a4:	689b      	ldr	r3, [r3, #8]
    e7a6:	44aa      	add	sl, r5
    e7a8:	1b7f      	subs	r7, r7, r5
    e7aa:	1b5d      	subs	r5, r3, r5
    e7ac:	4643      	mov	r3, r8
    e7ae:	609d      	str	r5, [r3, #8]
    e7b0:	d100      	bne.n	e7b4 <__sfvwrite_r+0x198>
    e7b2:	e768      	b.n	e686 <__sfvwrite_r+0x6a>
    e7b4:	2f00      	cmp	r7, #0
    e7b6:	d1d2      	bne.n	e75e <__sfvwrite_r+0x142>
    e7b8:	465b      	mov	r3, fp
    e7ba:	681b      	ldr	r3, [r3, #0]
    e7bc:	469a      	mov	sl, r3
    e7be:	465b      	mov	r3, fp
    e7c0:	685f      	ldr	r7, [r3, #4]
    e7c2:	2308      	movs	r3, #8
    e7c4:	469c      	mov	ip, r3
    e7c6:	44e3      	add	fp, ip
    e7c8:	2f00      	cmp	r7, #0
    e7ca:	d0f5      	beq.n	e7b8 <__sfvwrite_r+0x19c>
    e7cc:	003a      	movs	r2, r7
    e7ce:	210a      	movs	r1, #10
    e7d0:	4650      	mov	r0, sl
    e7d2:	f7fd fdcd 	bl	c370 <memchr>
    e7d6:	2800      	cmp	r0, #0
    e7d8:	d100      	bne.n	e7dc <__sfvwrite_r+0x1c0>
    e7da:	e097      	b.n	e90c <__sfvwrite_r+0x2f0>
    e7dc:	4653      	mov	r3, sl
    e7de:	3001      	adds	r0, #1
    e7e0:	1ac6      	subs	r6, r0, r3
    e7e2:	e7be      	b.n	e762 <__sfvwrite_r+0x146>
    e7e4:	6820      	ldr	r0, [r4, #0]
    e7e6:	6923      	ldr	r3, [r4, #16]
    e7e8:	4298      	cmp	r0, r3
    e7ea:	d817      	bhi.n	e81c <__sfvwrite_r+0x200>
    e7ec:	6963      	ldr	r3, [r4, #20]
    e7ee:	469a      	mov	sl, r3
    e7f0:	42bb      	cmp	r3, r7
    e7f2:	d813      	bhi.n	e81c <__sfvwrite_r+0x200>
    e7f4:	4b4c      	ldr	r3, [pc, #304]	; (e928 <__sfvwrite_r+0x30c>)
    e7f6:	0038      	movs	r0, r7
    e7f8:	429f      	cmp	r7, r3
    e7fa:	d900      	bls.n	e7fe <__sfvwrite_r+0x1e2>
    e7fc:	484b      	ldr	r0, [pc, #300]	; (e92c <__sfvwrite_r+0x310>)
    e7fe:	4651      	mov	r1, sl
    e800:	f002 f90c 	bl	10a1c <____aeabi_idiv_from_thumb>
    e804:	6a65      	ldr	r5, [r4, #36]	; 0x24
    e806:	4653      	mov	r3, sl
    e808:	4343      	muls	r3, r0
    e80a:	464a      	mov	r2, r9
    e80c:	4658      	mov	r0, fp
    e80e:	69e1      	ldr	r1, [r4, #28]
    e810:	f000 f890 	bl	e934 <__sfvwrite_r+0x318>
    e814:	1e05      	subs	r5, r0, #0
    e816:	dd8f      	ble.n	e738 <__sfvwrite_r+0x11c>
    e818:	1b7f      	subs	r7, r7, r5
    e81a:	e771      	b.n	e700 <__sfvwrite_r+0xe4>
    e81c:	42bd      	cmp	r5, r7
    e81e:	d900      	bls.n	e822 <__sfvwrite_r+0x206>
    e820:	003d      	movs	r5, r7
    e822:	002a      	movs	r2, r5
    e824:	4649      	mov	r1, r9
    e826:	f000 f929 	bl	ea7c <memmove>
    e82a:	68a3      	ldr	r3, [r4, #8]
    e82c:	6822      	ldr	r2, [r4, #0]
    e82e:	1b5b      	subs	r3, r3, r5
    e830:	1952      	adds	r2, r2, r5
    e832:	60a3      	str	r3, [r4, #8]
    e834:	6022      	str	r2, [r4, #0]
    e836:	2b00      	cmp	r3, #0
    e838:	d1ee      	bne.n	e818 <__sfvwrite_r+0x1fc>
    e83a:	0021      	movs	r1, r4
    e83c:	4658      	mov	r0, fp
    e83e:	f7fc fe61 	bl	b504 <_fflush_r>
    e842:	2800      	cmp	r0, #0
    e844:	d000      	beq.n	e848 <__sfvwrite_r+0x22c>
    e846:	e777      	b.n	e738 <__sfvwrite_r+0x11c>
    e848:	1b7f      	subs	r7, r7, r5
    e84a:	e759      	b.n	e700 <__sfvwrite_r+0xe4>
    e84c:	003d      	movs	r5, r7
    e84e:	46ba      	mov	sl, r7
    e850:	6820      	ldr	r0, [r4, #0]
    e852:	e749      	b.n	e6e8 <__sfvwrite_r+0xcc>
    e854:	464a      	mov	r2, r9
    e856:	4651      	mov	r1, sl
    e858:	f000 f910 	bl	ea7c <memmove>
    e85c:	464a      	mov	r2, r9
    e85e:	68a3      	ldr	r3, [r4, #8]
    e860:	1a9b      	subs	r3, r3, r2
    e862:	60a3      	str	r3, [r4, #8]
    e864:	6823      	ldr	r3, [r4, #0]
    e866:	444b      	add	r3, r9
    e868:	464d      	mov	r5, r9
    e86a:	6023      	str	r3, [r4, #0]
    e86c:	e796      	b.n	e79c <__sfvwrite_r+0x180>
    e86e:	6960      	ldr	r0, [r4, #20]
    e870:	6822      	ldr	r2, [r4, #0]
    e872:	6921      	ldr	r1, [r4, #16]
    e874:	1a55      	subs	r5, r2, r1
    e876:	0042      	lsls	r2, r0, #1
    e878:	1812      	adds	r2, r2, r0
    e87a:	0fd0      	lsrs	r0, r2, #31
    e87c:	1882      	adds	r2, r0, r2
    e87e:	1c68      	adds	r0, r5, #1
    e880:	1052      	asrs	r2, r2, #1
    e882:	19c0      	adds	r0, r0, r7
    e884:	4692      	mov	sl, r2
    e886:	9501      	str	r5, [sp, #4]
    e888:	4290      	cmp	r0, r2
    e88a:	d901      	bls.n	e890 <__sfvwrite_r+0x274>
    e88c:	4682      	mov	sl, r0
    e88e:	0002      	movs	r2, r0
    e890:	055b      	lsls	r3, r3, #21
    e892:	d529      	bpl.n	e8e8 <__sfvwrite_r+0x2cc>
    e894:	0011      	movs	r1, r2
    e896:	4658      	mov	r0, fp
    e898:	f7fd faa6 	bl	bde8 <_malloc_r>
    e89c:	1e05      	subs	r5, r0, #0
    e89e:	d038      	beq.n	e912 <__sfvwrite_r+0x2f6>
    e8a0:	9a01      	ldr	r2, [sp, #4]
    e8a2:	6921      	ldr	r1, [r4, #16]
    e8a4:	f7fd fda0 	bl	c3e8 <memcpy>
    e8a8:	89a3      	ldrh	r3, [r4, #12]
    e8aa:	4a21      	ldr	r2, [pc, #132]	; (e930 <__sfvwrite_r+0x314>)
    e8ac:	4013      	ands	r3, r2
    e8ae:	2280      	movs	r2, #128	; 0x80
    e8b0:	4313      	orrs	r3, r2
    e8b2:	81a3      	strh	r3, [r4, #12]
    e8b4:	4652      	mov	r2, sl
    e8b6:	9b01      	ldr	r3, [sp, #4]
    e8b8:	18e8      	adds	r0, r5, r3
    e8ba:	1ad3      	subs	r3, r2, r3
    e8bc:	6125      	str	r5, [r4, #16]
    e8be:	46ba      	mov	sl, r7
    e8c0:	003d      	movs	r5, r7
    e8c2:	6020      	str	r0, [r4, #0]
    e8c4:	6162      	str	r2, [r4, #20]
    e8c6:	60a3      	str	r3, [r4, #8]
    e8c8:	e70e      	b.n	e6e8 <__sfvwrite_r+0xcc>
    e8ca:	4651      	mov	r1, sl
    e8cc:	002a      	movs	r2, r5
    e8ce:	f000 f8d5 	bl	ea7c <memmove>
    e8d2:	6823      	ldr	r3, [r4, #0]
    e8d4:	195b      	adds	r3, r3, r5
    e8d6:	0021      	movs	r1, r4
    e8d8:	6023      	str	r3, [r4, #0]
    e8da:	9801      	ldr	r0, [sp, #4]
    e8dc:	f7fc fe12 	bl	b504 <_fflush_r>
    e8e0:	2800      	cmp	r0, #0
    e8e2:	d100      	bne.n	e8e6 <__sfvwrite_r+0x2ca>
    e8e4:	e75a      	b.n	e79c <__sfvwrite_r+0x180>
    e8e6:	e727      	b.n	e738 <__sfvwrite_r+0x11c>
    e8e8:	4658      	mov	r0, fp
    e8ea:	f000 f93b 	bl	eb64 <_realloc_r>
    e8ee:	1e05      	subs	r5, r0, #0
    e8f0:	d1e0      	bne.n	e8b4 <__sfvwrite_r+0x298>
    e8f2:	6921      	ldr	r1, [r4, #16]
    e8f4:	4658      	mov	r0, fp
    e8f6:	f7fd f881 	bl	b9fc <_free_r>
    e8fa:	2280      	movs	r2, #128	; 0x80
    e8fc:	4659      	mov	r1, fp
    e8fe:	89a3      	ldrh	r3, [r4, #12]
    e900:	4393      	bics	r3, r2
    e902:	041b      	lsls	r3, r3, #16
    e904:	3a74      	subs	r2, #116	; 0x74
    e906:	600a      	str	r2, [r1, #0]
    e908:	141b      	asrs	r3, r3, #16
    e90a:	e717      	b.n	e73c <__sfvwrite_r+0x120>
    e90c:	1c7b      	adds	r3, r7, #1
    e90e:	001e      	movs	r6, r3
    e910:	e728      	b.n	e764 <__sfvwrite_r+0x148>
    e912:	230c      	movs	r3, #12
    e914:	465a      	mov	r2, fp
    e916:	6013      	str	r3, [r2, #0]
    e918:	220c      	movs	r2, #12
    e91a:	5ea3      	ldrsh	r3, [r4, r2]
    e91c:	e70e      	b.n	e73c <__sfvwrite_r+0x120>
    e91e:	2001      	movs	r0, #1
    e920:	4240      	negs	r0, r0
    e922:	e6b1      	b.n	e688 <__sfvwrite_r+0x6c>
    e924:	7ffffc00 	.word	0x7ffffc00
    e928:	7ffffffe 	.word	0x7ffffffe
    e92c:	7fffffff 	.word	0x7fffffff
    e930:	fffffb7f 	.word	0xfffffb7f
    e934:	4728      	bx	r5
    e936:	4738      	bx	r7

0000e938 <_isatty_r>:
    e938:	2300      	movs	r3, #0
    e93a:	b570      	push	{r4, r5, r6, lr}
    e93c:	4d07      	ldr	r5, [pc, #28]	; (e95c <_isatty_r+0x24>)
    e93e:	0004      	movs	r4, r0
    e940:	0008      	movs	r0, r1
    e942:	602b      	str	r3, [r5, #0]
    e944:	f002 f80a 	bl	1095c <_isatty>
    e948:	1c43      	adds	r3, r0, #1
    e94a:	d002      	beq.n	e952 <_isatty_r+0x1a>
    e94c:	bc70      	pop	{r4, r5, r6}
    e94e:	bc02      	pop	{r1}
    e950:	4708      	bx	r1
    e952:	682b      	ldr	r3, [r5, #0]
    e954:	2b00      	cmp	r3, #0
    e956:	d0f9      	beq.n	e94c <_isatty_r+0x14>
    e958:	6023      	str	r3, [r4, #0]
    e95a:	e7f7      	b.n	e94c <_isatty_r+0x14>
    e95c:	00021c30 	.word	0x00021c30

0000e960 <_setlocale_r>:
    e960:	b570      	push	{r4, r5, r6, lr}
    e962:	1e14      	subs	r4, r2, #0
    e964:	d005      	beq.n	e972 <_setlocale_r+0x12>
    e966:	0010      	movs	r0, r2
    e968:	490c      	ldr	r1, [pc, #48]	; (e99c <_setlocale_r+0x3c>)
    e96a:	f002 f84f 	bl	10a0c <__strcmp_from_thumb>
    e96e:	2800      	cmp	r0, #0
    e970:	d104      	bne.n	e97c <_setlocale_r+0x1c>
    e972:	4d0b      	ldr	r5, [pc, #44]	; (e9a0 <_setlocale_r+0x40>)
    e974:	0028      	movs	r0, r5
    e976:	bc70      	pop	{r4, r5, r6}
    e978:	bc02      	pop	{r1}
    e97a:	4708      	bx	r1
    e97c:	4d08      	ldr	r5, [pc, #32]	; (e9a0 <_setlocale_r+0x40>)
    e97e:	0020      	movs	r0, r4
    e980:	0029      	movs	r1, r5
    e982:	f002 f843 	bl	10a0c <__strcmp_from_thumb>
    e986:	2800      	cmp	r0, #0
    e988:	d0f4      	beq.n	e974 <_setlocale_r+0x14>
    e98a:	0020      	movs	r0, r4
    e98c:	4905      	ldr	r1, [pc, #20]	; (e9a4 <_setlocale_r+0x44>)
    e98e:	f002 f83d 	bl	10a0c <__strcmp_from_thumb>
    e992:	2800      	cmp	r0, #0
    e994:	d0ee      	beq.n	e974 <_setlocale_r+0x14>
    e996:	2000      	movs	r0, #0
    e998:	e7ed      	b.n	e976 <_setlocale_r+0x16>
    e99a:	46c0      	nop			; (mov r8, r8)
    e99c:	000110bc 	.word	0x000110bc
    e9a0:	000110b8 	.word	0x000110b8
    e9a4:	00011084 	.word	0x00011084

0000e9a8 <__locale_mb_cur_max>:
    e9a8:	2394      	movs	r3, #148	; 0x94
    e9aa:	4a02      	ldr	r2, [pc, #8]	; (e9b4 <__locale_mb_cur_max+0xc>)
    e9ac:	005b      	lsls	r3, r3, #1
    e9ae:	5cd0      	ldrb	r0, [r2, r3]
    e9b0:	4770      	bx	lr
    e9b2:	46c0      	nop			; (mov r8, r8)
    e9b4:	00021a4c 	.word	0x00021a4c

0000e9b8 <setlocale>:
    e9b8:	b570      	push	{r4, r5, r6, lr}
    e9ba:	1e0c      	subs	r4, r1, #0
    e9bc:	d005      	beq.n	e9ca <setlocale+0x12>
    e9be:	0020      	movs	r0, r4
    e9c0:	490c      	ldr	r1, [pc, #48]	; (e9f4 <setlocale+0x3c>)
    e9c2:	f002 f823 	bl	10a0c <__strcmp_from_thumb>
    e9c6:	2800      	cmp	r0, #0
    e9c8:	d104      	bne.n	e9d4 <setlocale+0x1c>
    e9ca:	4d0b      	ldr	r5, [pc, #44]	; (e9f8 <setlocale+0x40>)
    e9cc:	0028      	movs	r0, r5
    e9ce:	bc70      	pop	{r4, r5, r6}
    e9d0:	bc02      	pop	{r1}
    e9d2:	4708      	bx	r1
    e9d4:	4d08      	ldr	r5, [pc, #32]	; (e9f8 <setlocale+0x40>)
    e9d6:	0020      	movs	r0, r4
    e9d8:	0029      	movs	r1, r5
    e9da:	f002 f817 	bl	10a0c <__strcmp_from_thumb>
    e9de:	2800      	cmp	r0, #0
    e9e0:	d0f4      	beq.n	e9cc <setlocale+0x14>
    e9e2:	0020      	movs	r0, r4
    e9e4:	4905      	ldr	r1, [pc, #20]	; (e9fc <setlocale+0x44>)
    e9e6:	f002 f811 	bl	10a0c <__strcmp_from_thumb>
    e9ea:	2800      	cmp	r0, #0
    e9ec:	d0ee      	beq.n	e9cc <setlocale+0x14>
    e9ee:	2000      	movs	r0, #0
    e9f0:	e7ed      	b.n	e9ce <setlocale+0x16>
    e9f2:	46c0      	nop			; (mov r8, r8)
    e9f4:	000110bc 	.word	0x000110bc
    e9f8:	000110b8 	.word	0x000110b8
    e9fc:	00011084 	.word	0x00011084

0000ea00 <_lseek_r>:
    ea00:	b570      	push	{r4, r5, r6, lr}
    ea02:	0004      	movs	r4, r0
    ea04:	0008      	movs	r0, r1
    ea06:	0011      	movs	r1, r2
    ea08:	001a      	movs	r2, r3
    ea0a:	2300      	movs	r3, #0
    ea0c:	4d06      	ldr	r5, [pc, #24]	; (ea28 <_lseek_r+0x28>)
    ea0e:	602b      	str	r3, [r5, #0]
    ea10:	f001 ffb4 	bl	1097c <_lseek>
    ea14:	1c43      	adds	r3, r0, #1
    ea16:	d002      	beq.n	ea1e <_lseek_r+0x1e>
    ea18:	bc70      	pop	{r4, r5, r6}
    ea1a:	bc02      	pop	{r1}
    ea1c:	4708      	bx	r1
    ea1e:	682b      	ldr	r3, [r5, #0]
    ea20:	2b00      	cmp	r3, #0
    ea22:	d0f9      	beq.n	ea18 <_lseek_r+0x18>
    ea24:	6023      	str	r3, [r4, #0]
    ea26:	e7f7      	b.n	ea18 <_lseek_r+0x18>
    ea28:	00021c30 	.word	0x00021c30

0000ea2c <_mbtowc_r>:
    ea2c:	b530      	push	{r4, r5, lr}
    ea2e:	b083      	sub	sp, #12
    ea30:	9c06      	ldr	r4, [sp, #24]
    ea32:	9400      	str	r4, [sp, #0]
    ea34:	24e4      	movs	r4, #228	; 0xe4
    ea36:	4d04      	ldr	r5, [pc, #16]	; (ea48 <_mbtowc_r+0x1c>)
    ea38:	592c      	ldr	r4, [r5, r4]
    ea3a:	f000 f807 	bl	ea4c <_mbtowc_r+0x20>
    ea3e:	b003      	add	sp, #12
    ea40:	bc30      	pop	{r4, r5}
    ea42:	bc02      	pop	{r1}
    ea44:	4708      	bx	r1
    ea46:	46c0      	nop			; (mov r8, r8)
    ea48:	00021a4c 	.word	0x00021a4c
    ea4c:	4720      	bx	r4
    ea4e:	46c0      	nop			; (mov r8, r8)

0000ea50 <__ascii_mbtowc>:
    ea50:	b082      	sub	sp, #8
    ea52:	2900      	cmp	r1, #0
    ea54:	d00a      	beq.n	ea6c <__ascii_mbtowc+0x1c>
    ea56:	2a00      	cmp	r2, #0
    ea58:	d00b      	beq.n	ea72 <__ascii_mbtowc+0x22>
    ea5a:	2b00      	cmp	r3, #0
    ea5c:	d00b      	beq.n	ea76 <__ascii_mbtowc+0x26>
    ea5e:	7813      	ldrb	r3, [r2, #0]
    ea60:	600b      	str	r3, [r1, #0]
    ea62:	7810      	ldrb	r0, [r2, #0]
    ea64:	1e43      	subs	r3, r0, #1
    ea66:	4198      	sbcs	r0, r3
    ea68:	b002      	add	sp, #8
    ea6a:	4770      	bx	lr
    ea6c:	a901      	add	r1, sp, #4
    ea6e:	2a00      	cmp	r2, #0
    ea70:	d1f3      	bne.n	ea5a <__ascii_mbtowc+0xa>
    ea72:	2000      	movs	r0, #0
    ea74:	e7f8      	b.n	ea68 <__ascii_mbtowc+0x18>
    ea76:	2002      	movs	r0, #2
    ea78:	4240      	negs	r0, r0
    ea7a:	e7f5      	b.n	ea68 <__ascii_mbtowc+0x18>

0000ea7c <memmove>:
    ea7c:	b5f0      	push	{r4, r5, r6, r7, lr}
    ea7e:	46c6      	mov	lr, r8
    ea80:	b500      	push	{lr}
    ea82:	4288      	cmp	r0, r1
    ea84:	d90e      	bls.n	eaa4 <memmove+0x28>
    ea86:	188b      	adds	r3, r1, r2
    ea88:	4298      	cmp	r0, r3
    ea8a:	d20b      	bcs.n	eaa4 <memmove+0x28>
    ea8c:	1e53      	subs	r3, r2, #1
    ea8e:	2a00      	cmp	r2, #0
    ea90:	d003      	beq.n	ea9a <memmove+0x1e>
    ea92:	5cca      	ldrb	r2, [r1, r3]
    ea94:	54c2      	strb	r2, [r0, r3]
    ea96:	3b01      	subs	r3, #1
    ea98:	d2fb      	bcs.n	ea92 <memmove+0x16>
    ea9a:	bc80      	pop	{r7}
    ea9c:	46b8      	mov	r8, r7
    ea9e:	bcf0      	pop	{r4, r5, r6, r7}
    eaa0:	bc02      	pop	{r1}
    eaa2:	4708      	bx	r1
    eaa4:	2a0f      	cmp	r2, #15
    eaa6:	d80b      	bhi.n	eac0 <memmove+0x44>
    eaa8:	0005      	movs	r5, r0
    eaaa:	1e56      	subs	r6, r2, #1
    eaac:	2a00      	cmp	r2, #0
    eaae:	d0f4      	beq.n	ea9a <memmove+0x1e>
    eab0:	2300      	movs	r3, #0
    eab2:	5ccc      	ldrb	r4, [r1, r3]
    eab4:	001a      	movs	r2, r3
    eab6:	54ec      	strb	r4, [r5, r3]
    eab8:	3301      	adds	r3, #1
    eaba:	4296      	cmp	r6, r2
    eabc:	d1f9      	bne.n	eab2 <memmove+0x36>
    eabe:	e7ec      	b.n	ea9a <memmove+0x1e>
    eac0:	2703      	movs	r7, #3
    eac2:	000d      	movs	r5, r1
    eac4:	003e      	movs	r6, r7
    eac6:	4305      	orrs	r5, r0
    eac8:	000c      	movs	r4, r1
    eaca:	0003      	movs	r3, r0
    eacc:	402e      	ands	r6, r5
    eace:	422f      	tst	r7, r5
    ead0:	d12c      	bne.n	eb2c <memmove+0xb0>
    ead2:	0015      	movs	r5, r2
    ead4:	3d10      	subs	r5, #16
    ead6:	092d      	lsrs	r5, r5, #4
    ead8:	46a8      	mov	r8, r5
    eada:	012d      	lsls	r5, r5, #4
    eadc:	46ac      	mov	ip, r5
    eade:	4484      	add	ip, r0
    eae0:	6827      	ldr	r7, [r4, #0]
    eae2:	601f      	str	r7, [r3, #0]
    eae4:	6867      	ldr	r7, [r4, #4]
    eae6:	605f      	str	r7, [r3, #4]
    eae8:	68a7      	ldr	r7, [r4, #8]
    eaea:	609f      	str	r7, [r3, #8]
    eaec:	68e7      	ldr	r7, [r4, #12]
    eaee:	001d      	movs	r5, r3
    eaf0:	60df      	str	r7, [r3, #12]
    eaf2:	3410      	adds	r4, #16
    eaf4:	3310      	adds	r3, #16
    eaf6:	4565      	cmp	r5, ip
    eaf8:	d1f2      	bne.n	eae0 <memmove+0x64>
    eafa:	4645      	mov	r5, r8
    eafc:	230f      	movs	r3, #15
    eafe:	240c      	movs	r4, #12
    eb00:	3501      	adds	r5, #1
    eb02:	012d      	lsls	r5, r5, #4
    eb04:	1949      	adds	r1, r1, r5
    eb06:	4013      	ands	r3, r2
    eb08:	1945      	adds	r5, r0, r5
    eb0a:	4214      	tst	r4, r2
    eb0c:	d011      	beq.n	eb32 <memmove+0xb6>
    eb0e:	598c      	ldr	r4, [r1, r6]
    eb10:	51ac      	str	r4, [r5, r6]
    eb12:	3604      	adds	r6, #4
    eb14:	1b9c      	subs	r4, r3, r6
    eb16:	2c03      	cmp	r4, #3
    eb18:	d8f9      	bhi.n	eb0e <memmove+0x92>
    eb1a:	3b04      	subs	r3, #4
    eb1c:	089b      	lsrs	r3, r3, #2
    eb1e:	3301      	adds	r3, #1
    eb20:	009b      	lsls	r3, r3, #2
    eb22:	18ed      	adds	r5, r5, r3
    eb24:	18c9      	adds	r1, r1, r3
    eb26:	2303      	movs	r3, #3
    eb28:	401a      	ands	r2, r3
    eb2a:	e7be      	b.n	eaaa <memmove+0x2e>
    eb2c:	0005      	movs	r5, r0
    eb2e:	1e56      	subs	r6, r2, #1
    eb30:	e7be      	b.n	eab0 <memmove+0x34>
    eb32:	001a      	movs	r2, r3
    eb34:	e7b9      	b.n	eaaa <memmove+0x2e>
    eb36:	46c0      	nop			; (mov r8, r8)

0000eb38 <_read_r>:
    eb38:	b570      	push	{r4, r5, r6, lr}
    eb3a:	0004      	movs	r4, r0
    eb3c:	0008      	movs	r0, r1
    eb3e:	0011      	movs	r1, r2
    eb40:	001a      	movs	r2, r3
    eb42:	2300      	movs	r3, #0
    eb44:	4d06      	ldr	r5, [pc, #24]	; (eb60 <_read_r+0x28>)
    eb46:	602b      	str	r3, [r5, #0]
    eb48:	f001 ff20 	bl	1098c <_read>
    eb4c:	1c43      	adds	r3, r0, #1
    eb4e:	d002      	beq.n	eb56 <_read_r+0x1e>
    eb50:	bc70      	pop	{r4, r5, r6}
    eb52:	bc02      	pop	{r1}
    eb54:	4708      	bx	r1
    eb56:	682b      	ldr	r3, [r5, #0]
    eb58:	2b00      	cmp	r3, #0
    eb5a:	d0f9      	beq.n	eb50 <_read_r+0x18>
    eb5c:	6023      	str	r3, [r4, #0]
    eb5e:	e7f7      	b.n	eb50 <_read_r+0x18>
    eb60:	00021c30 	.word	0x00021c30

0000eb64 <_realloc_r>:
    eb64:	b5f0      	push	{r4, r5, r6, r7, lr}
    eb66:	4645      	mov	r5, r8
    eb68:	4657      	mov	r7, sl
    eb6a:	46de      	mov	lr, fp
    eb6c:	464e      	mov	r6, r9
    eb6e:	b5e0      	push	{r5, r6, r7, lr}
    eb70:	4690      	mov	r8, r2
    eb72:	0007      	movs	r7, r0
    eb74:	000d      	movs	r5, r1
    eb76:	b085      	sub	sp, #20
    eb78:	2900      	cmp	r1, #0
    eb7a:	d100      	bne.n	eb7e <_realloc_r+0x1a>
    eb7c:	e0ab      	b.n	ecd6 <_realloc_r+0x172>
    eb7e:	f7fd fc87 	bl	c490 <__malloc_lock>
    eb82:	2308      	movs	r3, #8
    eb84:	425b      	negs	r3, r3
    eb86:	4699      	mov	r9, r3
    eb88:	44a9      	add	r9, r5
    eb8a:	464b      	mov	r3, r9
    eb8c:	685b      	ldr	r3, [r3, #4]
    eb8e:	4646      	mov	r6, r8
    eb90:	2203      	movs	r2, #3
    eb92:	001c      	movs	r4, r3
    eb94:	360b      	adds	r6, #11
    eb96:	46ca      	mov	sl, r9
    eb98:	4394      	bics	r4, r2
    eb9a:	2e16      	cmp	r6, #22
    eb9c:	d867      	bhi.n	ec6e <_realloc_r+0x10a>
    eb9e:	2100      	movs	r1, #0
    eba0:	2210      	movs	r2, #16
    eba2:	2610      	movs	r6, #16
    eba4:	4546      	cmp	r6, r8
    eba6:	d200      	bcs.n	ebaa <_realloc_r+0x46>
    eba8:	e0ad      	b.n	ed06 <_realloc_r+0x1a2>
    ebaa:	2900      	cmp	r1, #0
    ebac:	d000      	beq.n	ebb0 <_realloc_r+0x4c>
    ebae:	e0aa      	b.n	ed06 <_realloc_r+0x1a2>
    ebb0:	4294      	cmp	r4, r2
    ebb2:	da67      	bge.n	ec84 <_realloc_r+0x120>
    ebb4:	4649      	mov	r1, r9
    ebb6:	1909      	adds	r1, r1, r4
    ebb8:	9101      	str	r1, [sp, #4]
    ebba:	49d5      	ldr	r1, [pc, #852]	; (ef10 <_realloc_r+0x3ac>)
    ebbc:	6888      	ldr	r0, [r1, #8]
    ebbe:	9901      	ldr	r1, [sp, #4]
    ebc0:	4288      	cmp	r0, r1
    ebc2:	d100      	bne.n	ebc6 <_realloc_r+0x62>
    ebc4:	e0a4      	b.n	ed10 <_realloc_r+0x1ac>
    ebc6:	6848      	ldr	r0, [r1, #4]
    ebc8:	2101      	movs	r1, #1
    ebca:	9002      	str	r0, [sp, #8]
    ebcc:	9103      	str	r1, [sp, #12]
    ebce:	0001      	movs	r1, r0
    ebd0:	2001      	movs	r0, #1
    ebd2:	4381      	bics	r1, r0
    ebd4:	468c      	mov	ip, r1
    ebd6:	9901      	ldr	r1, [sp, #4]
    ebd8:	468b      	mov	fp, r1
    ebda:	44dc      	add	ip, fp
    ebdc:	4661      	mov	r1, ip
    ebde:	6849      	ldr	r1, [r1, #4]
    ebe0:	4201      	tst	r1, r0
    ebe2:	d16b      	bne.n	ecbc <_realloc_r+0x158>
    ebe4:	2103      	movs	r1, #3
    ebe6:	9802      	ldr	r0, [sp, #8]
    ebe8:	4388      	bics	r0, r1
    ebea:	468c      	mov	ip, r1
    ebec:	1821      	adds	r1, r4, r0
    ebee:	4291      	cmp	r1, r2
    ebf0:	da42      	bge.n	ec78 <_realloc_r+0x114>
    ebf2:	2101      	movs	r1, #1
    ebf4:	4219      	tst	r1, r3
    ebf6:	d111      	bne.n	ec1c <_realloc_r+0xb8>
    ebf8:	464b      	mov	r3, r9
    ebfa:	6819      	ldr	r1, [r3, #0]
    ebfc:	1a5b      	subs	r3, r3, r1
    ebfe:	4661      	mov	r1, ip
    ec00:	469b      	mov	fp, r3
    ec02:	685b      	ldr	r3, [r3, #4]
    ec04:	438b      	bics	r3, r1
    ec06:	1818      	adds	r0, r3, r0
    ec08:	1901      	adds	r1, r0, r4
    ec0a:	9102      	str	r1, [sp, #8]
    ec0c:	4291      	cmp	r1, r2
    ec0e:	db00      	blt.n	ec12 <_realloc_r+0xae>
    ec10:	e101      	b.n	ee16 <_realloc_r+0x2b2>
    ec12:	18e3      	adds	r3, r4, r3
    ec14:	9301      	str	r3, [sp, #4]
    ec16:	4293      	cmp	r3, r2
    ec18:	db00      	blt.n	ec1c <_realloc_r+0xb8>
    ec1a:	e0d7      	b.n	edcc <_realloc_r+0x268>
    ec1c:	4641      	mov	r1, r8
    ec1e:	0038      	movs	r0, r7
    ec20:	f7fd f8e2 	bl	bde8 <_malloc_r>
    ec24:	4680      	mov	r8, r0
    ec26:	2800      	cmp	r0, #0
    ec28:	d01d      	beq.n	ec66 <_realloc_r+0x102>
    ec2a:	464a      	mov	r2, r9
    ec2c:	2301      	movs	r3, #1
    ec2e:	6852      	ldr	r2, [r2, #4]
    ec30:	439a      	bics	r2, r3
    ec32:	0013      	movs	r3, r2
    ec34:	0002      	movs	r2, r0
    ec36:	444b      	add	r3, r9
    ec38:	3a08      	subs	r2, #8
    ec3a:	4293      	cmp	r3, r2
    ec3c:	d100      	bne.n	ec40 <_realloc_r+0xdc>
    ec3e:	e0b6      	b.n	edae <_realloc_r+0x24a>
    ec40:	1f22      	subs	r2, r4, #4
    ec42:	2a24      	cmp	r2, #36	; 0x24
    ec44:	d900      	bls.n	ec48 <_realloc_r+0xe4>
    ec46:	e0e2      	b.n	ee0e <_realloc_r+0x2aa>
    ec48:	0003      	movs	r3, r0
    ec4a:	0029      	movs	r1, r5
    ec4c:	2a13      	cmp	r2, #19
    ec4e:	d900      	bls.n	ec52 <_realloc_r+0xee>
    ec50:	e0b2      	b.n	edb8 <_realloc_r+0x254>
    ec52:	680a      	ldr	r2, [r1, #0]
    ec54:	601a      	str	r2, [r3, #0]
    ec56:	684a      	ldr	r2, [r1, #4]
    ec58:	605a      	str	r2, [r3, #4]
    ec5a:	688a      	ldr	r2, [r1, #8]
    ec5c:	609a      	str	r2, [r3, #8]
    ec5e:	0029      	movs	r1, r5
    ec60:	0038      	movs	r0, r7
    ec62:	f7fc fecb 	bl	b9fc <_free_r>
    ec66:	0038      	movs	r0, r7
    ec68:	f7fd fc1c 	bl	c4a4 <__malloc_unlock>
    ec6c:	e01c      	b.n	eca8 <_realloc_r+0x144>
    ec6e:	3204      	adds	r2, #4
    ec70:	4396      	bics	r6, r2
    ec72:	0032      	movs	r2, r6
    ec74:	0ff1      	lsrs	r1, r6, #31
    ec76:	e795      	b.n	eba4 <_realloc_r+0x40>
    ec78:	000c      	movs	r4, r1
    ec7a:	9a01      	ldr	r2, [sp, #4]
    ec7c:	3208      	adds	r2, #8
    ec7e:	ca0c      	ldmia	r2, {r2, r3}
    ec80:	60d3      	str	r3, [r2, #12]
    ec82:	609a      	str	r2, [r3, #8]
    ec84:	1ba3      	subs	r3, r4, r6
    ec86:	2b0f      	cmp	r3, #15
    ec88:	d82a      	bhi.n	ece0 <_realloc_r+0x17c>
    ec8a:	4653      	mov	r3, sl
    ec8c:	2101      	movs	r1, #1
    ec8e:	4652      	mov	r2, sl
    ec90:	685b      	ldr	r3, [r3, #4]
    ec92:	400b      	ands	r3, r1
    ec94:	4323      	orrs	r3, r4
    ec96:	6053      	str	r3, [r2, #4]
    ec98:	4454      	add	r4, sl
    ec9a:	6863      	ldr	r3, [r4, #4]
    ec9c:	4319      	orrs	r1, r3
    ec9e:	6061      	str	r1, [r4, #4]
    eca0:	0038      	movs	r0, r7
    eca2:	f7fd fbff 	bl	c4a4 <__malloc_unlock>
    eca6:	46a8      	mov	r8, r5
    eca8:	4640      	mov	r0, r8
    ecaa:	b005      	add	sp, #20
    ecac:	bcf0      	pop	{r4, r5, r6, r7}
    ecae:	46bb      	mov	fp, r7
    ecb0:	46b2      	mov	sl, r6
    ecb2:	46a9      	mov	r9, r5
    ecb4:	46a0      	mov	r8, r4
    ecb6:	bcf0      	pop	{r4, r5, r6, r7}
    ecb8:	bc02      	pop	{r1}
    ecba:	4708      	bx	r1
    ecbc:	2101      	movs	r1, #1
    ecbe:	4219      	tst	r1, r3
    ecc0:	d1ac      	bne.n	ec1c <_realloc_r+0xb8>
    ecc2:	464b      	mov	r3, r9
    ecc4:	6819      	ldr	r1, [r3, #0]
    ecc6:	1a5b      	subs	r3, r3, r1
    ecc8:	469b      	mov	fp, r3
    ecca:	4659      	mov	r1, fp
    eccc:	2303      	movs	r3, #3
    ecce:	6849      	ldr	r1, [r1, #4]
    ecd0:	4399      	bics	r1, r3
    ecd2:	000b      	movs	r3, r1
    ecd4:	e79d      	b.n	ec12 <_realloc_r+0xae>
    ecd6:	0011      	movs	r1, r2
    ecd8:	f7fd f886 	bl	bde8 <_malloc_r>
    ecdc:	4680      	mov	r8, r0
    ecde:	e7e3      	b.n	eca8 <_realloc_r+0x144>
    ece0:	4652      	mov	r2, sl
    ece2:	2001      	movs	r0, #1
    ece4:	1991      	adds	r1, r2, r6
    ece6:	6852      	ldr	r2, [r2, #4]
    ece8:	4002      	ands	r2, r0
    ecea:	4316      	orrs	r6, r2
    ecec:	4652      	mov	r2, sl
    ecee:	4303      	orrs	r3, r0
    ecf0:	6056      	str	r6, [r2, #4]
    ecf2:	604b      	str	r3, [r1, #4]
    ecf4:	4454      	add	r4, sl
    ecf6:	6863      	ldr	r3, [r4, #4]
    ecf8:	4318      	orrs	r0, r3
    ecfa:	6060      	str	r0, [r4, #4]
    ecfc:	3108      	adds	r1, #8
    ecfe:	0038      	movs	r0, r7
    ed00:	f7fc fe7c 	bl	b9fc <_free_r>
    ed04:	e7cc      	b.n	eca0 <_realloc_r+0x13c>
    ed06:	230c      	movs	r3, #12
    ed08:	603b      	str	r3, [r7, #0]
    ed0a:	2300      	movs	r3, #0
    ed0c:	4698      	mov	r8, r3
    ed0e:	e7cb      	b.n	eca8 <_realloc_r+0x144>
    ed10:	6841      	ldr	r1, [r0, #4]
    ed12:	2003      	movs	r0, #3
    ed14:	4381      	bics	r1, r0
    ed16:	4684      	mov	ip, r0
    ed18:	1860      	adds	r0, r4, r1
    ed1a:	4683      	mov	fp, r0
    ed1c:	0030      	movs	r0, r6
    ed1e:	3010      	adds	r0, #16
    ed20:	9101      	str	r1, [sp, #4]
    ed22:	4583      	cmp	fp, r0
    ed24:	db00      	blt.n	ed28 <_realloc_r+0x1c4>
    ed26:	e0ae      	b.n	ee86 <_realloc_r+0x322>
    ed28:	07db      	lsls	r3, r3, #31
    ed2a:	d500      	bpl.n	ed2e <_realloc_r+0x1ca>
    ed2c:	e776      	b.n	ec1c <_realloc_r+0xb8>
    ed2e:	464b      	mov	r3, r9
    ed30:	6819      	ldr	r1, [r3, #0]
    ed32:	1a5b      	subs	r3, r3, r1
    ed34:	4661      	mov	r1, ip
    ed36:	469b      	mov	fp, r3
    ed38:	685b      	ldr	r3, [r3, #4]
    ed3a:	438b      	bics	r3, r1
    ed3c:	9901      	ldr	r1, [sp, #4]
    ed3e:	1859      	adds	r1, r3, r1
    ed40:	1909      	adds	r1, r1, r4
    ed42:	9101      	str	r1, [sp, #4]
    ed44:	4288      	cmp	r0, r1
    ed46:	dd00      	ble.n	ed4a <_realloc_r+0x1e6>
    ed48:	e763      	b.n	ec12 <_realloc_r+0xae>
    ed4a:	465b      	mov	r3, fp
    ed4c:	465a      	mov	r2, fp
    ed4e:	68db      	ldr	r3, [r3, #12]
    ed50:	6892      	ldr	r2, [r2, #8]
    ed52:	60d3      	str	r3, [r2, #12]
    ed54:	609a      	str	r2, [r3, #8]
    ed56:	2308      	movs	r3, #8
    ed58:	1f22      	subs	r2, r4, #4
    ed5a:	445b      	add	r3, fp
    ed5c:	4698      	mov	r8, r3
    ed5e:	2a24      	cmp	r2, #36	; 0x24
    ed60:	d900      	bls.n	ed64 <_realloc_r+0x200>
    ed62:	e0c7      	b.n	eef4 <_realloc_r+0x390>
    ed64:	2a13      	cmp	r2, #19
    ed66:	d909      	bls.n	ed7c <_realloc_r+0x218>
    ed68:	465b      	mov	r3, fp
    ed6a:	6829      	ldr	r1, [r5, #0]
    ed6c:	6099      	str	r1, [r3, #8]
    ed6e:	6869      	ldr	r1, [r5, #4]
    ed70:	60d9      	str	r1, [r3, #12]
    ed72:	2a1b      	cmp	r2, #27
    ed74:	d900      	bls.n	ed78 <_realloc_r+0x214>
    ed76:	e0cd      	b.n	ef14 <_realloc_r+0x3b0>
    ed78:	3508      	adds	r5, #8
    ed7a:	3310      	adds	r3, #16
    ed7c:	682a      	ldr	r2, [r5, #0]
    ed7e:	601a      	str	r2, [r3, #0]
    ed80:	686a      	ldr	r2, [r5, #4]
    ed82:	605a      	str	r2, [r3, #4]
    ed84:	68aa      	ldr	r2, [r5, #8]
    ed86:	609a      	str	r2, [r3, #8]
    ed88:	465b      	mov	r3, fp
    ed8a:	1999      	adds	r1, r3, r6
    ed8c:	4b60      	ldr	r3, [pc, #384]	; (ef10 <_realloc_r+0x3ac>)
    ed8e:	6099      	str	r1, [r3, #8]
    ed90:	9b01      	ldr	r3, [sp, #4]
    ed92:	1b9a      	subs	r2, r3, r6
    ed94:	2301      	movs	r3, #1
    ed96:	431a      	orrs	r2, r3
    ed98:	604a      	str	r2, [r1, #4]
    ed9a:	465a      	mov	r2, fp
    ed9c:	6852      	ldr	r2, [r2, #4]
    ed9e:	4013      	ands	r3, r2
    eda0:	431e      	orrs	r6, r3
    eda2:	465b      	mov	r3, fp
    eda4:	0038      	movs	r0, r7
    eda6:	605e      	str	r6, [r3, #4]
    eda8:	f7fd fb7c 	bl	c4a4 <__malloc_unlock>
    edac:	e77c      	b.n	eca8 <_realloc_r+0x144>
    edae:	2203      	movs	r2, #3
    edb0:	685b      	ldr	r3, [r3, #4]
    edb2:	4393      	bics	r3, r2
    edb4:	18e4      	adds	r4, r4, r3
    edb6:	e765      	b.n	ec84 <_realloc_r+0x120>
    edb8:	6829      	ldr	r1, [r5, #0]
    edba:	6001      	str	r1, [r0, #0]
    edbc:	6869      	ldr	r1, [r5, #4]
    edbe:	6041      	str	r1, [r0, #4]
    edc0:	2a1b      	cmp	r2, #27
    edc2:	d84e      	bhi.n	ee62 <_realloc_r+0x2fe>
    edc4:	0029      	movs	r1, r5
    edc6:	3308      	adds	r3, #8
    edc8:	3108      	adds	r1, #8
    edca:	e742      	b.n	ec52 <_realloc_r+0xee>
    edcc:	465b      	mov	r3, fp
    edce:	465a      	mov	r2, fp
    edd0:	68db      	ldr	r3, [r3, #12]
    edd2:	6892      	ldr	r2, [r2, #8]
    edd4:	60d3      	str	r3, [r2, #12]
    edd6:	609a      	str	r2, [r3, #8]
    edd8:	2308      	movs	r3, #8
    edda:	1f22      	subs	r2, r4, #4
    eddc:	445b      	add	r3, fp
    edde:	4698      	mov	r8, r3
    ede0:	2a24      	cmp	r2, #36	; 0x24
    ede2:	d848      	bhi.n	ee76 <_realloc_r+0x312>
    ede4:	2a13      	cmp	r2, #19
    ede6:	d908      	bls.n	edfa <_realloc_r+0x296>
    ede8:	465b      	mov	r3, fp
    edea:	6829      	ldr	r1, [r5, #0]
    edec:	6099      	str	r1, [r3, #8]
    edee:	6869      	ldr	r1, [r5, #4]
    edf0:	60d9      	str	r1, [r3, #12]
    edf2:	2a1b      	cmp	r2, #27
    edf4:	d863      	bhi.n	eebe <_realloc_r+0x35a>
    edf6:	3508      	adds	r5, #8
    edf8:	3310      	adds	r3, #16
    edfa:	682a      	ldr	r2, [r5, #0]
    edfc:	601a      	str	r2, [r3, #0]
    edfe:	686a      	ldr	r2, [r5, #4]
    ee00:	605a      	str	r2, [r3, #4]
    ee02:	68aa      	ldr	r2, [r5, #8]
    ee04:	46da      	mov	sl, fp
    ee06:	4645      	mov	r5, r8
    ee08:	609a      	str	r2, [r3, #8]
    ee0a:	9c01      	ldr	r4, [sp, #4]
    ee0c:	e73a      	b.n	ec84 <_realloc_r+0x120>
    ee0e:	0029      	movs	r1, r5
    ee10:	f7ff fe34 	bl	ea7c <memmove>
    ee14:	e723      	b.n	ec5e <_realloc_r+0xfa>
    ee16:	9a01      	ldr	r2, [sp, #4]
    ee18:	3208      	adds	r2, #8
    ee1a:	ca0c      	ldmia	r2, {r2, r3}
    ee1c:	60d3      	str	r3, [r2, #12]
    ee1e:	609a      	str	r2, [r3, #8]
    ee20:	465b      	mov	r3, fp
    ee22:	465a      	mov	r2, fp
    ee24:	68db      	ldr	r3, [r3, #12]
    ee26:	6892      	ldr	r2, [r2, #8]
    ee28:	60d3      	str	r3, [r2, #12]
    ee2a:	609a      	str	r2, [r3, #8]
    ee2c:	2308      	movs	r3, #8
    ee2e:	1f22      	subs	r2, r4, #4
    ee30:	445b      	add	r3, fp
    ee32:	4698      	mov	r8, r3
    ee34:	2a24      	cmp	r2, #36	; 0x24
    ee36:	d83a      	bhi.n	eeae <_realloc_r+0x34a>
    ee38:	2a13      	cmp	r2, #19
    ee3a:	d908      	bls.n	ee4e <_realloc_r+0x2ea>
    ee3c:	465b      	mov	r3, fp
    ee3e:	6829      	ldr	r1, [r5, #0]
    ee40:	6099      	str	r1, [r3, #8]
    ee42:	6869      	ldr	r1, [r5, #4]
    ee44:	60d9      	str	r1, [r3, #12]
    ee46:	2a1b      	cmp	r2, #27
    ee48:	d84b      	bhi.n	eee2 <_realloc_r+0x37e>
    ee4a:	3508      	adds	r5, #8
    ee4c:	3310      	adds	r3, #16
    ee4e:	682a      	ldr	r2, [r5, #0]
    ee50:	601a      	str	r2, [r3, #0]
    ee52:	686a      	ldr	r2, [r5, #4]
    ee54:	605a      	str	r2, [r3, #4]
    ee56:	68aa      	ldr	r2, [r5, #8]
    ee58:	46da      	mov	sl, fp
    ee5a:	4645      	mov	r5, r8
    ee5c:	609a      	str	r2, [r3, #8]
    ee5e:	9c02      	ldr	r4, [sp, #8]
    ee60:	e710      	b.n	ec84 <_realloc_r+0x120>
    ee62:	68a9      	ldr	r1, [r5, #8]
    ee64:	6081      	str	r1, [r0, #8]
    ee66:	68e9      	ldr	r1, [r5, #12]
    ee68:	60c1      	str	r1, [r0, #12]
    ee6a:	2a24      	cmp	r2, #36	; 0x24
    ee6c:	d030      	beq.n	eed0 <_realloc_r+0x36c>
    ee6e:	0029      	movs	r1, r5
    ee70:	3310      	adds	r3, #16
    ee72:	3110      	adds	r1, #16
    ee74:	e6ed      	b.n	ec52 <_realloc_r+0xee>
    ee76:	0029      	movs	r1, r5
    ee78:	0018      	movs	r0, r3
    ee7a:	f7ff fdff 	bl	ea7c <memmove>
    ee7e:	4645      	mov	r5, r8
    ee80:	46da      	mov	sl, fp
    ee82:	9c01      	ldr	r4, [sp, #4]
    ee84:	e6fe      	b.n	ec84 <_realloc_r+0x120>
    ee86:	464b      	mov	r3, r9
    ee88:	1999      	adds	r1, r3, r6
    ee8a:	4b21      	ldr	r3, [pc, #132]	; (ef10 <_realloc_r+0x3ac>)
    ee8c:	6099      	str	r1, [r3, #8]
    ee8e:	465b      	mov	r3, fp
    ee90:	1b9a      	subs	r2, r3, r6
    ee92:	2301      	movs	r3, #1
    ee94:	431a      	orrs	r2, r3
    ee96:	604a      	str	r2, [r1, #4]
    ee98:	464a      	mov	r2, r9
    ee9a:	6852      	ldr	r2, [r2, #4]
    ee9c:	4013      	ands	r3, r2
    ee9e:	431e      	orrs	r6, r3
    eea0:	464b      	mov	r3, r9
    eea2:	0038      	movs	r0, r7
    eea4:	605e      	str	r6, [r3, #4]
    eea6:	f7fd fafd 	bl	c4a4 <__malloc_unlock>
    eeaa:	46a8      	mov	r8, r5
    eeac:	e6fc      	b.n	eca8 <_realloc_r+0x144>
    eeae:	0029      	movs	r1, r5
    eeb0:	0018      	movs	r0, r3
    eeb2:	f7ff fde3 	bl	ea7c <memmove>
    eeb6:	4645      	mov	r5, r8
    eeb8:	46da      	mov	sl, fp
    eeba:	9c02      	ldr	r4, [sp, #8]
    eebc:	e6e2      	b.n	ec84 <_realloc_r+0x120>
    eebe:	68a9      	ldr	r1, [r5, #8]
    eec0:	6119      	str	r1, [r3, #16]
    eec2:	68e9      	ldr	r1, [r5, #12]
    eec4:	6159      	str	r1, [r3, #20]
    eec6:	2a24      	cmp	r2, #36	; 0x24
    eec8:	d019      	beq.n	eefe <_realloc_r+0x39a>
    eeca:	3510      	adds	r5, #16
    eecc:	3318      	adds	r3, #24
    eece:	e794      	b.n	edfa <_realloc_r+0x296>
    eed0:	692a      	ldr	r2, [r5, #16]
    eed2:	0029      	movs	r1, r5
    eed4:	6102      	str	r2, [r0, #16]
    eed6:	0002      	movs	r2, r0
    eed8:	6968      	ldr	r0, [r5, #20]
    eeda:	3118      	adds	r1, #24
    eedc:	6150      	str	r0, [r2, #20]
    eede:	3318      	adds	r3, #24
    eee0:	e6b7      	b.n	ec52 <_realloc_r+0xee>
    eee2:	68a9      	ldr	r1, [r5, #8]
    eee4:	6119      	str	r1, [r3, #16]
    eee6:	68e9      	ldr	r1, [r5, #12]
    eee8:	6159      	str	r1, [r3, #20]
    eeea:	2a24      	cmp	r2, #36	; 0x24
    eeec:	d01b      	beq.n	ef26 <_realloc_r+0x3c2>
    eeee:	3510      	adds	r5, #16
    eef0:	3318      	adds	r3, #24
    eef2:	e7ac      	b.n	ee4e <_realloc_r+0x2ea>
    eef4:	0029      	movs	r1, r5
    eef6:	0018      	movs	r0, r3
    eef8:	f7ff fdc0 	bl	ea7c <memmove>
    eefc:	e744      	b.n	ed88 <_realloc_r+0x224>
    eefe:	692a      	ldr	r2, [r5, #16]
    ef00:	619a      	str	r2, [r3, #24]
    ef02:	465a      	mov	r2, fp
    ef04:	6969      	ldr	r1, [r5, #20]
    ef06:	3320      	adds	r3, #32
    ef08:	61d1      	str	r1, [r2, #28]
    ef0a:	3518      	adds	r5, #24
    ef0c:	e775      	b.n	edfa <_realloc_r+0x296>
    ef0e:	46c0      	nop			; (mov r8, r8)
    ef10:	0002163c 	.word	0x0002163c
    ef14:	68a9      	ldr	r1, [r5, #8]
    ef16:	6119      	str	r1, [r3, #16]
    ef18:	68e9      	ldr	r1, [r5, #12]
    ef1a:	6159      	str	r1, [r3, #20]
    ef1c:	2a24      	cmp	r2, #36	; 0x24
    ef1e:	d00a      	beq.n	ef36 <_realloc_r+0x3d2>
    ef20:	3510      	adds	r5, #16
    ef22:	3318      	adds	r3, #24
    ef24:	e72a      	b.n	ed7c <_realloc_r+0x218>
    ef26:	692a      	ldr	r2, [r5, #16]
    ef28:	619a      	str	r2, [r3, #24]
    ef2a:	465a      	mov	r2, fp
    ef2c:	6969      	ldr	r1, [r5, #20]
    ef2e:	3320      	adds	r3, #32
    ef30:	61d1      	str	r1, [r2, #28]
    ef32:	3518      	adds	r5, #24
    ef34:	e78b      	b.n	ee4e <_realloc_r+0x2ea>
    ef36:	692a      	ldr	r2, [r5, #16]
    ef38:	619a      	str	r2, [r3, #24]
    ef3a:	465a      	mov	r2, fp
    ef3c:	6969      	ldr	r1, [r5, #20]
    ef3e:	3320      	adds	r3, #32
    ef40:	61d1      	str	r1, [r2, #28]
    ef42:	3518      	adds	r5, #24
    ef44:	e71a      	b.n	ed7c <_realloc_r+0x218>
    ef46:	46c0      	nop			; (mov r8, r8)

0000ef48 <cleanup_glue>:
    ef48:	b5f0      	push	{r4, r5, r6, r7, lr}
    ef4a:	46c6      	mov	lr, r8
    ef4c:	680e      	ldr	r6, [r1, #0]
    ef4e:	0004      	movs	r4, r0
    ef50:	000d      	movs	r5, r1
    ef52:	b500      	push	{lr}
    ef54:	2e00      	cmp	r6, #0
    ef56:	d017      	beq.n	ef88 <cleanup_glue+0x40>
    ef58:	6837      	ldr	r7, [r6, #0]
    ef5a:	2f00      	cmp	r7, #0
    ef5c:	d010      	beq.n	ef80 <cleanup_glue+0x38>
    ef5e:	683b      	ldr	r3, [r7, #0]
    ef60:	4698      	mov	r8, r3
    ef62:	2b00      	cmp	r3, #0
    ef64:	d008      	beq.n	ef78 <cleanup_glue+0x30>
    ef66:	6819      	ldr	r1, [r3, #0]
    ef68:	2900      	cmp	r1, #0
    ef6a:	d001      	beq.n	ef70 <cleanup_glue+0x28>
    ef6c:	f7ff ffec 	bl	ef48 <cleanup_glue>
    ef70:	4641      	mov	r1, r8
    ef72:	0020      	movs	r0, r4
    ef74:	f7fc fd42 	bl	b9fc <_free_r>
    ef78:	0039      	movs	r1, r7
    ef7a:	0020      	movs	r0, r4
    ef7c:	f7fc fd3e 	bl	b9fc <_free_r>
    ef80:	0031      	movs	r1, r6
    ef82:	0020      	movs	r0, r4
    ef84:	f7fc fd3a 	bl	b9fc <_free_r>
    ef88:	0029      	movs	r1, r5
    ef8a:	0020      	movs	r0, r4
    ef8c:	f7fc fd36 	bl	b9fc <_free_r>
    ef90:	bc80      	pop	{r7}
    ef92:	46b8      	mov	r8, r7
    ef94:	bcf0      	pop	{r4, r5, r6, r7}
    ef96:	bc01      	pop	{r0}
    ef98:	4700      	bx	r0
    ef9a:	46c0      	nop			; (mov r8, r8)

0000ef9c <_reclaim_reent>:
    ef9c:	4b28      	ldr	r3, [pc, #160]	; (f040 <_reclaim_reent+0xa4>)
    ef9e:	681b      	ldr	r3, [r3, #0]
    efa0:	b570      	push	{r4, r5, r6, lr}
    efa2:	0005      	movs	r5, r0
    efa4:	4283      	cmp	r3, r0
    efa6:	d047      	beq.n	f038 <_reclaim_reent+0x9c>
    efa8:	6cc1      	ldr	r1, [r0, #76]	; 0x4c
    efaa:	2900      	cmp	r1, #0
    efac:	d011      	beq.n	efd2 <_reclaim_reent+0x36>
    efae:	2600      	movs	r6, #0
    efb0:	598c      	ldr	r4, [r1, r6]
    efb2:	2c00      	cmp	r4, #0
    efb4:	d007      	beq.n	efc6 <_reclaim_reent+0x2a>
    efb6:	0021      	movs	r1, r4
    efb8:	6824      	ldr	r4, [r4, #0]
    efba:	0028      	movs	r0, r5
    efbc:	f7fc fd1e 	bl	b9fc <_free_r>
    efc0:	2c00      	cmp	r4, #0
    efc2:	d1f8      	bne.n	efb6 <_reclaim_reent+0x1a>
    efc4:	6ce9      	ldr	r1, [r5, #76]	; 0x4c
    efc6:	3604      	adds	r6, #4
    efc8:	2e80      	cmp	r6, #128	; 0x80
    efca:	d1f1      	bne.n	efb0 <_reclaim_reent+0x14>
    efcc:	0028      	movs	r0, r5
    efce:	f7fc fd15 	bl	b9fc <_free_r>
    efd2:	6c29      	ldr	r1, [r5, #64]	; 0x40
    efd4:	2900      	cmp	r1, #0
    efd6:	d002      	beq.n	efde <_reclaim_reent+0x42>
    efd8:	0028      	movs	r0, r5
    efda:	f7fc fd0f 	bl	b9fc <_free_r>
    efde:	23a4      	movs	r3, #164	; 0xa4
    efe0:	005b      	lsls	r3, r3, #1
    efe2:	58ec      	ldr	r4, [r5, r3]
    efe4:	2c00      	cmp	r4, #0
    efe6:	d00b      	beq.n	f000 <_reclaim_reent+0x64>
    efe8:	002e      	movs	r6, r5
    efea:	364d      	adds	r6, #77	; 0x4d
    efec:	36ff      	adds	r6, #255	; 0xff
    efee:	42b4      	cmp	r4, r6
    eff0:	d006      	beq.n	f000 <_reclaim_reent+0x64>
    eff2:	0021      	movs	r1, r4
    eff4:	6824      	ldr	r4, [r4, #0]
    eff6:	0028      	movs	r0, r5
    eff8:	f7fc fd00 	bl	b9fc <_free_r>
    effc:	42a6      	cmp	r6, r4
    effe:	d1f8      	bne.n	eff2 <_reclaim_reent+0x56>
    f000:	6d69      	ldr	r1, [r5, #84]	; 0x54
    f002:	2900      	cmp	r1, #0
    f004:	d002      	beq.n	f00c <_reclaim_reent+0x70>
    f006:	0028      	movs	r0, r5
    f008:	f7fc fcf8 	bl	b9fc <_free_r>
    f00c:	6bab      	ldr	r3, [r5, #56]	; 0x38
    f00e:	2b00      	cmp	r3, #0
    f010:	d012      	beq.n	f038 <_reclaim_reent+0x9c>
    f012:	6beb      	ldr	r3, [r5, #60]	; 0x3c
    f014:	0028      	movs	r0, r5
    f016:	f000 f815 	bl	f044 <_reclaim_reent+0xa8>
    f01a:	23b8      	movs	r3, #184	; 0xb8
    f01c:	009b      	lsls	r3, r3, #2
    f01e:	58ec      	ldr	r4, [r5, r3]
    f020:	2c00      	cmp	r4, #0
    f022:	d009      	beq.n	f038 <_reclaim_reent+0x9c>
    f024:	6821      	ldr	r1, [r4, #0]
    f026:	2900      	cmp	r1, #0
    f028:	d002      	beq.n	f030 <_reclaim_reent+0x94>
    f02a:	0028      	movs	r0, r5
    f02c:	f7ff ff8c 	bl	ef48 <cleanup_glue>
    f030:	0021      	movs	r1, r4
    f032:	0028      	movs	r0, r5
    f034:	f7fc fce2 	bl	b9fc <_free_r>
    f038:	bc70      	pop	{r4, r5, r6}
    f03a:	bc01      	pop	{r0}
    f03c:	4700      	bx	r0
    f03e:	46c0      	nop			; (mov r8, r8)
    f040:	0002120c 	.word	0x0002120c
    f044:	4718      	bx	r3
    f046:	46c0      	nop			; (mov r8, r8)

0000f048 <strcmp>:
    f048:	e020c001 	eor	ip, r0, r1
    f04c:	e31c0003 	tst	ip, #3
    f050:	1a000021 	bne	f0dc <strcmp+0x94>
    f054:	e210c003 	ands	ip, r0, #3
    f058:	e3c00003 	bic	r0, r0, #3
    f05c:	e3c11003 	bic	r1, r1, #3
    f060:	e4902004 	ldr	r2, [r0], #4
    f064:	04913004 	ldreq	r3, [r1], #4
    f068:	0a000006 	beq	f088 <strcmp+0x40>
    f06c:	e22cc003 	eor	ip, ip, #3
    f070:	e3e034ff 	mvn	r3, #-16777216	; 0xff000000
    f074:	e1a0c18c 	lsl	ip, ip, #3
    f078:	e1a0cc33 	lsr	ip, r3, ip
    f07c:	e4913004 	ldr	r3, [r1], #4
    f080:	e182200c 	orr	r2, r2, ip
    f084:	e183300c 	orr	r3, r3, ip
    f088:	e52d4004 	push	{r4}		; (str r4, [sp, #-4]!)
    f08c:	e3a04001 	mov	r4, #1
    f090:	e1844404 	orr	r4, r4, r4, lsl #8
    f094:	e1844804 	orr	r4, r4, r4, lsl #16
    f098:	e042c004 	sub	ip, r2, r4
    f09c:	e1520003 	cmp	r2, r3
    f0a0:	01ccc002 	biceq	ip, ip, r2
    f0a4:	011c0384 	tsteq	ip, r4, lsl #7
    f0a8:	04902004 	ldreq	r2, [r0], #4
    f0ac:	04913004 	ldreq	r3, [r1], #4
    f0b0:	0afffff8 	beq	f098 <strcmp+0x50>
    f0b4:	e1a00c02 	lsl	r0, r2, #24
    f0b8:	e1a02422 	lsr	r2, r2, #8
    f0bc:	e3500001 	cmp	r0, #1
    f0c0:	21500c03 	cmpcs	r0, r3, lsl #24
    f0c4:	01a03423 	lsreq	r3, r3, #8
    f0c8:	0afffff9 	beq	f0b4 <strcmp+0x6c>
    f0cc:	e20330ff 	and	r3, r3, #255	; 0xff
    f0d0:	e0630c20 	rsb	r0, r3, r0, lsr #24
    f0d4:	e49d4004 	pop	{r4}		; (ldr r4, [sp], #4)
    f0d8:	e12fff1e 	bx	lr
    f0dc:	e3100003 	tst	r0, #3
    f0e0:	0a000006 	beq	f100 <strcmp+0xb8>
    f0e4:	e4d02001 	ldrb	r2, [r0], #1
    f0e8:	e4d13001 	ldrb	r3, [r1], #1
    f0ec:	e3520001 	cmp	r2, #1
    f0f0:	21520003 	cmpcs	r2, r3
    f0f4:	0afffff8 	beq	f0dc <strcmp+0x94>
    f0f8:	e0420003 	sub	r0, r2, r3
    f0fc:	e12fff1e 	bx	lr
    f100:	e92d0030 	push	{r4, r5}
    f104:	e3a04001 	mov	r4, #1
    f108:	e1844404 	orr	r4, r4, r4, lsl #8
    f10c:	e1844804 	orr	r4, r4, r4, lsl #16
    f110:	e4902004 	ldr	r2, [r0], #4
    f114:	e2015003 	and	r5, r1, #3
    f118:	e3c11003 	bic	r1, r1, #3
    f11c:	e4913004 	ldr	r3, [r1], #4
    f120:	e3550002 	cmp	r5, #2
    f124:	0a000017 	beq	f188 <strcmp+0x140>
    f128:	8a00002d 	bhi	f1e4 <strcmp+0x19c>
    f12c:	e3c254ff 	bic	r5, r2, #-16777216	; 0xff000000
    f130:	e1550423 	cmp	r5, r3, lsr #8
    f134:	e042c004 	sub	ip, r2, r4
    f138:	e1ccc002 	bic	ip, ip, r2
    f13c:	1a000007 	bne	f160 <strcmp+0x118>
    f140:	e01cc384 	ands	ip, ip, r4, lsl #7
    f144:	04913004 	ldreq	r3, [r1], #4
    f148:	1a000006 	bne	f168 <strcmp+0x120>
    f14c:	e0255002 	eor	r5, r5, r2
    f150:	e1550c03 	cmp	r5, r3, lsl #24
    f154:	1a000008 	bne	f17c <strcmp+0x134>
    f158:	e4902004 	ldr	r2, [r0], #4
    f15c:	eafffff2 	b	f12c <strcmp+0xe4>
    f160:	e1a03423 	lsr	r3, r3, #8
    f164:	ea000036 	b	f244 <strcmp+0x1fc>
    f168:	e3dcc4ff 	bics	ip, ip, #-16777216	; 0xff000000
    f16c:	1a000031 	bne	f238 <strcmp+0x1f0>
    f170:	e5d13000 	ldrb	r3, [r1]
    f174:	e1a05c22 	lsr	r5, r2, #24
    f178:	ea000031 	b	f244 <strcmp+0x1fc>
    f17c:	e1a05c22 	lsr	r5, r2, #24
    f180:	e20330ff 	and	r3, r3, #255	; 0xff
    f184:	ea00002e 	b	f244 <strcmp+0x1fc>
    f188:	e1a05802 	lsl	r5, r2, #16
    f18c:	e042c004 	sub	ip, r2, r4
    f190:	e1a05825 	lsr	r5, r5, #16
    f194:	e1ccc002 	bic	ip, ip, r2
    f198:	e1550823 	cmp	r5, r3, lsr #16
    f19c:	1a00000e 	bne	f1dc <strcmp+0x194>
    f1a0:	e01cc384 	ands	ip, ip, r4, lsl #7
    f1a4:	04913004 	ldreq	r3, [r1], #4
    f1a8:	1a000004 	bne	f1c0 <strcmp+0x178>
    f1ac:	e0255002 	eor	r5, r5, r2
    f1b0:	e1550803 	cmp	r5, r3, lsl #16
    f1b4:	1a000006 	bne	f1d4 <strcmp+0x18c>
    f1b8:	e4902004 	ldr	r2, [r0], #4
    f1bc:	eafffff1 	b	f188 <strcmp+0x140>
    f1c0:	e1b0c80c 	lsls	ip, ip, #16
    f1c4:	1a00001b 	bne	f238 <strcmp+0x1f0>
    f1c8:	e1d130b0 	ldrh	r3, [r1]
    f1cc:	e1a05822 	lsr	r5, r2, #16
    f1d0:	ea00001b 	b	f244 <strcmp+0x1fc>
    f1d4:	e1a03803 	lsl	r3, r3, #16
    f1d8:	e1a05822 	lsr	r5, r2, #16
    f1dc:	e1a03823 	lsr	r3, r3, #16
    f1e0:	ea000017 	b	f244 <strcmp+0x1fc>
    f1e4:	e20250ff 	and	r5, r2, #255	; 0xff
    f1e8:	e1550c23 	cmp	r5, r3, lsr #24
    f1ec:	e042c004 	sub	ip, r2, r4
    f1f0:	e1ccc002 	bic	ip, ip, r2
    f1f4:	1a000007 	bne	f218 <strcmp+0x1d0>
    f1f8:	e01cc384 	ands	ip, ip, r4, lsl #7
    f1fc:	04913004 	ldreq	r3, [r1], #4
    f200:	1a000006 	bne	f220 <strcmp+0x1d8>
    f204:	e0255002 	eor	r5, r5, r2
    f208:	e1550403 	cmp	r5, r3, lsl #8
    f20c:	1a000006 	bne	f22c <strcmp+0x1e4>
    f210:	e4902004 	ldr	r2, [r0], #4
    f214:	eafffff2 	b	f1e4 <strcmp+0x19c>
    f218:	e1a03c23 	lsr	r3, r3, #24
    f21c:	ea000008 	b	f244 <strcmp+0x1fc>
    f220:	e31200ff 	tst	r2, #255	; 0xff
    f224:	0a000003 	beq	f238 <strcmp+0x1f0>
    f228:	e4913004 	ldr	r3, [r1], #4
    f22c:	e1a05422 	lsr	r5, r2, #8
    f230:	e3c334ff 	bic	r3, r3, #-16777216	; 0xff000000
    f234:	ea000002 	b	f244 <strcmp+0x1fc>
    f238:	e3a00000 	mov	r0, #0
    f23c:	e8bd0030 	pop	{r4, r5}
    f240:	e12fff1e 	bx	lr
    f244:	e20520ff 	and	r2, r5, #255	; 0xff
    f248:	e20300ff 	and	r0, r3, #255	; 0xff
    f24c:	e3500001 	cmp	r0, #1
    f250:	21500002 	cmpcs	r0, r2
    f254:	01a05425 	lsreq	r5, r5, #8
    f258:	01a03423 	lsreq	r3, r3, #8
    f25c:	0afffff8 	beq	f244 <strcmp+0x1fc>
    f260:	e0420000 	sub	r0, r2, r0
    f264:	e8bd0030 	pop	{r4, r5}
    f268:	e12fff1e 	bx	lr

0000f26c <__swbuf_r>:
    f26c:	b5f8      	push	{r3, r4, r5, r6, r7, lr}
    f26e:	0005      	movs	r5, r0
    f270:	000e      	movs	r6, r1
    f272:	0014      	movs	r4, r2
    f274:	2800      	cmp	r0, #0
    f276:	d002      	beq.n	f27e <__swbuf_r+0x12>
    f278:	6b83      	ldr	r3, [r0, #56]	; 0x38
    f27a:	2b00      	cmp	r3, #0
    f27c:	d051      	beq.n	f322 <__swbuf_r+0xb6>
    f27e:	69a3      	ldr	r3, [r4, #24]
    f280:	60a3      	str	r3, [r4, #8]
    f282:	230c      	movs	r3, #12
    f284:	5ee0      	ldrsh	r0, [r4, r3]
    f286:	0403      	lsls	r3, r0, #16
    f288:	0c1a      	lsrs	r2, r3, #16
    f28a:	031b      	lsls	r3, r3, #12
    f28c:	d522      	bpl.n	f2d4 <__swbuf_r+0x68>
    f28e:	6923      	ldr	r3, [r4, #16]
    f290:	2b00      	cmp	r3, #0
    f292:	d01f      	beq.n	f2d4 <__swbuf_r+0x68>
    f294:	21ff      	movs	r1, #255	; 0xff
    f296:	0637      	lsls	r7, r6, #24
    f298:	400e      	ands	r6, r1
    f29a:	2180      	movs	r1, #128	; 0x80
    f29c:	0189      	lsls	r1, r1, #6
    f29e:	0e3f      	lsrs	r7, r7, #24
    f2a0:	420a      	tst	r2, r1
    f2a2:	d02a      	beq.n	f2fa <__swbuf_r+0x8e>
    f2a4:	6822      	ldr	r2, [r4, #0]
    f2a6:	6961      	ldr	r1, [r4, #20]
    f2a8:	1ad3      	subs	r3, r2, r3
    f2aa:	4299      	cmp	r1, r3
    f2ac:	dd30      	ble.n	f310 <__swbuf_r+0xa4>
    f2ae:	3301      	adds	r3, #1
    f2b0:	68a1      	ldr	r1, [r4, #8]
    f2b2:	3901      	subs	r1, #1
    f2b4:	60a1      	str	r1, [r4, #8]
    f2b6:	1c51      	adds	r1, r2, #1
    f2b8:	6021      	str	r1, [r4, #0]
    f2ba:	7017      	strb	r7, [r2, #0]
    f2bc:	6962      	ldr	r2, [r4, #20]
    f2be:	429a      	cmp	r2, r3
    f2c0:	d032      	beq.n	f328 <__swbuf_r+0xbc>
    f2c2:	2e0a      	cmp	r6, #10
    f2c4:	d102      	bne.n	f2cc <__swbuf_r+0x60>
    f2c6:	89a3      	ldrh	r3, [r4, #12]
    f2c8:	07db      	lsls	r3, r3, #31
    f2ca:	d42d      	bmi.n	f328 <__swbuf_r+0xbc>
    f2cc:	0030      	movs	r0, r6
    f2ce:	bcf8      	pop	{r3, r4, r5, r6, r7}
    f2d0:	bc02      	pop	{r1}
    f2d2:	4708      	bx	r1
    f2d4:	0021      	movs	r1, r4
    f2d6:	0028      	movs	r0, r5
    f2d8:	f7fa feaa 	bl	a030 <__swsetup_r>
    f2dc:	2800      	cmp	r0, #0
    f2de:	d129      	bne.n	f334 <__swbuf_r+0xc8>
    f2e0:	21ff      	movs	r1, #255	; 0xff
    f2e2:	0637      	lsls	r7, r6, #24
    f2e4:	400e      	ands	r6, r1
    f2e6:	2180      	movs	r1, #128	; 0x80
    f2e8:	230c      	movs	r3, #12
    f2ea:	5ee0      	ldrsh	r0, [r4, r3]
    f2ec:	0402      	lsls	r2, r0, #16
    f2ee:	0c12      	lsrs	r2, r2, #16
    f2f0:	0189      	lsls	r1, r1, #6
    f2f2:	6923      	ldr	r3, [r4, #16]
    f2f4:	0e3f      	lsrs	r7, r7, #24
    f2f6:	420a      	tst	r2, r1
    f2f8:	d1d4      	bne.n	f2a4 <__swbuf_r+0x38>
    f2fa:	4301      	orrs	r1, r0
    f2fc:	81a1      	strh	r1, [r4, #12]
    f2fe:	4a0f      	ldr	r2, [pc, #60]	; (f33c <__swbuf_r+0xd0>)
    f300:	6e61      	ldr	r1, [r4, #100]	; 0x64
    f302:	400a      	ands	r2, r1
    f304:	6662      	str	r2, [r4, #100]	; 0x64
    f306:	6961      	ldr	r1, [r4, #20]
    f308:	6822      	ldr	r2, [r4, #0]
    f30a:	1ad3      	subs	r3, r2, r3
    f30c:	4299      	cmp	r1, r3
    f30e:	dcce      	bgt.n	f2ae <__swbuf_r+0x42>
    f310:	0021      	movs	r1, r4
    f312:	0028      	movs	r0, r5
    f314:	f7fc f8f6 	bl	b504 <_fflush_r>
    f318:	2800      	cmp	r0, #0
    f31a:	d10b      	bne.n	f334 <__swbuf_r+0xc8>
    f31c:	2301      	movs	r3, #1
    f31e:	6822      	ldr	r2, [r4, #0]
    f320:	e7c6      	b.n	f2b0 <__swbuf_r+0x44>
    f322:	f7fc f9b7 	bl	b694 <__sinit>
    f326:	e7aa      	b.n	f27e <__swbuf_r+0x12>
    f328:	0021      	movs	r1, r4
    f32a:	0028      	movs	r0, r5
    f32c:	f7fc f8ea 	bl	b504 <_fflush_r>
    f330:	2800      	cmp	r0, #0
    f332:	d0cb      	beq.n	f2cc <__swbuf_r+0x60>
    f334:	2601      	movs	r6, #1
    f336:	4276      	negs	r6, r6
    f338:	e7c8      	b.n	f2cc <__swbuf_r+0x60>
    f33a:	46c0      	nop			; (mov r8, r8)
    f33c:	ffffdfff 	.word	0xffffdfff

0000f340 <__swbuf>:
    f340:	0003      	movs	r3, r0
    f342:	b510      	push	{r4, lr}
    f344:	000a      	movs	r2, r1
    f346:	4904      	ldr	r1, [pc, #16]	; (f358 <__swbuf+0x18>)
    f348:	6808      	ldr	r0, [r1, #0]
    f34a:	0019      	movs	r1, r3
    f34c:	f7ff ff8e 	bl	f26c <__swbuf_r>
    f350:	bc10      	pop	{r4}
    f352:	bc02      	pop	{r1}
    f354:	4708      	bx	r1
    f356:	46c0      	nop			; (mov r8, r8)
    f358:	0002120c 	.word	0x0002120c

0000f35c <_wcrtomb_r>:
    f35c:	b570      	push	{r4, r5, r6, lr}
    f35e:	0004      	movs	r4, r0
    f360:	001d      	movs	r5, r3
    f362:	b084      	sub	sp, #16
    f364:	2900      	cmp	r1, #0
    f366:	d00c      	beq.n	f382 <_wcrtomb_r+0x26>
    f368:	23e0      	movs	r3, #224	; 0xe0
    f36a:	480d      	ldr	r0, [pc, #52]	; (f3a0 <_wcrtomb_r+0x44>)
    f36c:	58c6      	ldr	r6, [r0, r3]
    f36e:	002b      	movs	r3, r5
    f370:	0020      	movs	r0, r4
    f372:	f000 f817 	bl	f3a4 <_wcrtomb_r+0x48>
    f376:	1c43      	adds	r3, r0, #1
    f378:	d00d      	beq.n	f396 <_wcrtomb_r+0x3a>
    f37a:	b004      	add	sp, #16
    f37c:	bc70      	pop	{r4, r5, r6}
    f37e:	bc02      	pop	{r1}
    f380:	4708      	bx	r1
    f382:	23e0      	movs	r3, #224	; 0xe0
    f384:	4a06      	ldr	r2, [pc, #24]	; (f3a0 <_wcrtomb_r+0x44>)
    f386:	a901      	add	r1, sp, #4
    f388:	58d6      	ldr	r6, [r2, r3]
    f38a:	002b      	movs	r3, r5
    f38c:	2200      	movs	r2, #0
    f38e:	f000 f809 	bl	f3a4 <_wcrtomb_r+0x48>
    f392:	1c43      	adds	r3, r0, #1
    f394:	d1f1      	bne.n	f37a <_wcrtomb_r+0x1e>
    f396:	2300      	movs	r3, #0
    f398:	602b      	str	r3, [r5, #0]
    f39a:	338a      	adds	r3, #138	; 0x8a
    f39c:	6023      	str	r3, [r4, #0]
    f39e:	e7ec      	b.n	f37a <_wcrtomb_r+0x1e>
    f3a0:	00021a4c 	.word	0x00021a4c
    f3a4:	4730      	bx	r6
    f3a6:	46c0      	nop			; (mov r8, r8)

0000f3a8 <wcrtomb>:
    f3a8:	4b10      	ldr	r3, [pc, #64]	; (f3ec <wcrtomb+0x44>)
    f3aa:	b570      	push	{r4, r5, r6, lr}
    f3ac:	0014      	movs	r4, r2
    f3ae:	681d      	ldr	r5, [r3, #0]
    f3b0:	23e0      	movs	r3, #224	; 0xe0
    f3b2:	4a0f      	ldr	r2, [pc, #60]	; (f3f0 <wcrtomb+0x48>)
    f3b4:	b084      	sub	sp, #16
    f3b6:	58d6      	ldr	r6, [r2, r3]
    f3b8:	0023      	movs	r3, r4
    f3ba:	2800      	cmp	r0, #0
    f3bc:	d00a      	beq.n	f3d4 <wcrtomb+0x2c>
    f3be:	000a      	movs	r2, r1
    f3c0:	0001      	movs	r1, r0
    f3c2:	0028      	movs	r0, r5
    f3c4:	f000 f816 	bl	f3f4 <wcrtomb+0x4c>
    f3c8:	1c43      	adds	r3, r0, #1
    f3ca:	d00a      	beq.n	f3e2 <wcrtomb+0x3a>
    f3cc:	b004      	add	sp, #16
    f3ce:	bc70      	pop	{r4, r5, r6}
    f3d0:	bc02      	pop	{r1}
    f3d2:	4708      	bx	r1
    f3d4:	2200      	movs	r2, #0
    f3d6:	0028      	movs	r0, r5
    f3d8:	a901      	add	r1, sp, #4
    f3da:	f000 f80b 	bl	f3f4 <wcrtomb+0x4c>
    f3de:	1c43      	adds	r3, r0, #1
    f3e0:	d1f4      	bne.n	f3cc <wcrtomb+0x24>
    f3e2:	2300      	movs	r3, #0
    f3e4:	6023      	str	r3, [r4, #0]
    f3e6:	338a      	adds	r3, #138	; 0x8a
    f3e8:	602b      	str	r3, [r5, #0]
    f3ea:	e7ef      	b.n	f3cc <wcrtomb+0x24>
    f3ec:	0002120c 	.word	0x0002120c
    f3f0:	00021a4c 	.word	0x00021a4c
    f3f4:	4730      	bx	r6
    f3f6:	46c0      	nop			; (mov r8, r8)

0000f3f8 <_wctomb_r>:
    f3f8:	b570      	push	{r4, r5, r6, lr}
    f3fa:	24e0      	movs	r4, #224	; 0xe0
    f3fc:	4d03      	ldr	r5, [pc, #12]	; (f40c <_wctomb_r+0x14>)
    f3fe:	592c      	ldr	r4, [r5, r4]
    f400:	f000 f806 	bl	f410 <_wctomb_r+0x18>
    f404:	bc70      	pop	{r4, r5, r6}
    f406:	bc02      	pop	{r1}
    f408:	4708      	bx	r1
    f40a:	46c0      	nop			; (mov r8, r8)
    f40c:	00021a4c 	.word	0x00021a4c
    f410:	4720      	bx	r4
    f412:	46c0      	nop			; (mov r8, r8)

0000f414 <__ascii_wctomb>:
    f414:	2900      	cmp	r1, #0
    f416:	d009      	beq.n	f42c <__ascii_wctomb+0x18>
    f418:	2aff      	cmp	r2, #255	; 0xff
    f41a:	d802      	bhi.n	f422 <__ascii_wctomb+0xe>
    f41c:	2001      	movs	r0, #1
    f41e:	700a      	strb	r2, [r1, #0]
    f420:	4770      	bx	lr
    f422:	238a      	movs	r3, #138	; 0x8a
    f424:	6003      	str	r3, [r0, #0]
    f426:	2001      	movs	r0, #1
    f428:	4240      	negs	r0, r0
    f42a:	e7f9      	b.n	f420 <__ascii_wctomb+0xc>
    f42c:	2000      	movs	r0, #0
    f42e:	e7f7      	b.n	f420 <__ascii_wctomb+0xc>

0000f430 <abort>:
    f430:	2006      	movs	r0, #6
    f432:	b510      	push	{r4, lr}
    f434:	f000 f8b4 	bl	f5a0 <raise>
    f438:	2001      	movs	r0, #1
    f43a:	f001 fac5 	bl	109c8 <_exit>
    f43e:	46c0      	nop			; (mov r8, r8)

0000f440 <_init_signal_r>:
    f440:	b570      	push	{r4, r5, r6, lr}
    f442:	25b7      	movs	r5, #183	; 0xb7
    f444:	00ad      	lsls	r5, r5, #2
    f446:	5943      	ldr	r3, [r0, r5]
    f448:	0004      	movs	r4, r0
    f44a:	2b00      	cmp	r3, #0
    f44c:	d003      	beq.n	f456 <_init_signal_r+0x16>
    f44e:	2000      	movs	r0, #0
    f450:	bc70      	pop	{r4, r5, r6}
    f452:	bc02      	pop	{r1}
    f454:	4708      	bx	r1
    f456:	2180      	movs	r1, #128	; 0x80
    f458:	f7fc fcc6 	bl	bde8 <_malloc_r>
    f45c:	5160      	str	r0, [r4, r5]
    f45e:	2800      	cmp	r0, #0
    f460:	d006      	beq.n	f470 <_init_signal_r+0x30>
    f462:	0002      	movs	r2, r0
    f464:	2300      	movs	r3, #0
    f466:	3280      	adds	r2, #128	; 0x80
    f468:	c008      	stmia	r0!, {r3}
    f46a:	4290      	cmp	r0, r2
    f46c:	d1fc      	bne.n	f468 <_init_signal_r+0x28>
    f46e:	e7ee      	b.n	f44e <_init_signal_r+0xe>
    f470:	2001      	movs	r0, #1
    f472:	4240      	negs	r0, r0
    f474:	e7ec      	b.n	f450 <_init_signal_r+0x10>
    f476:	46c0      	nop			; (mov r8, r8)

0000f478 <_signal_r>:
    f478:	b5f0      	push	{r4, r5, r6, r7, lr}
    f47a:	46c6      	mov	lr, r8
    f47c:	0006      	movs	r6, r0
    f47e:	000c      	movs	r4, r1
    f480:	0017      	movs	r7, r2
    f482:	b500      	push	{lr}
    f484:	291f      	cmp	r1, #31
    f486:	d80e      	bhi.n	f4a6 <_signal_r+0x2e>
    f488:	23b7      	movs	r3, #183	; 0xb7
    f48a:	009b      	lsls	r3, r3, #2
    f48c:	58c5      	ldr	r5, [r0, r3]
    f48e:	4698      	mov	r8, r3
    f490:	2d00      	cmp	r5, #0
    f492:	d00d      	beq.n	f4b0 <_signal_r+0x38>
    f494:	00a4      	lsls	r4, r4, #2
    f496:	192d      	adds	r5, r5, r4
    f498:	6828      	ldr	r0, [r5, #0]
    f49a:	602f      	str	r7, [r5, #0]
    f49c:	bc80      	pop	{r7}
    f49e:	46b8      	mov	r8, r7
    f4a0:	bcf0      	pop	{r4, r5, r6, r7}
    f4a2:	bc02      	pop	{r1}
    f4a4:	4708      	bx	r1
    f4a6:	2316      	movs	r3, #22
    f4a8:	6003      	str	r3, [r0, #0]
    f4aa:	2001      	movs	r0, #1
    f4ac:	4240      	negs	r0, r0
    f4ae:	e7f5      	b.n	f49c <_signal_r+0x24>
    f4b0:	2180      	movs	r1, #128	; 0x80
    f4b2:	f7fc fc99 	bl	bde8 <_malloc_r>
    f4b6:	4643      	mov	r3, r8
    f4b8:	1e05      	subs	r5, r0, #0
    f4ba:	50f0      	str	r0, [r6, r3]
    f4bc:	d007      	beq.n	f4ce <_signal_r+0x56>
    f4be:	0001      	movs	r1, r0
    f4c0:	0003      	movs	r3, r0
    f4c2:	2200      	movs	r2, #0
    f4c4:	3180      	adds	r1, #128	; 0x80
    f4c6:	c304      	stmia	r3!, {r2}
    f4c8:	428b      	cmp	r3, r1
    f4ca:	d1fc      	bne.n	f4c6 <_signal_r+0x4e>
    f4cc:	e7e2      	b.n	f494 <_signal_r+0x1c>
    f4ce:	2001      	movs	r0, #1
    f4d0:	4240      	negs	r0, r0
    f4d2:	e7e3      	b.n	f49c <_signal_r+0x24>

0000f4d4 <_raise_r>:
    f4d4:	b570      	push	{r4, r5, r6, lr}
    f4d6:	0005      	movs	r5, r0
    f4d8:	000c      	movs	r4, r1
    f4da:	291f      	cmp	r1, #31
    f4dc:	d825      	bhi.n	f52a <_raise_r+0x56>
    f4de:	23b7      	movs	r3, #183	; 0xb7
    f4e0:	009b      	lsls	r3, r3, #2
    f4e2:	58c3      	ldr	r3, [r0, r3]
    f4e4:	2b00      	cmp	r3, #0
    f4e6:	d011      	beq.n	f50c <_raise_r+0x38>
    f4e8:	008a      	lsls	r2, r1, #2
    f4ea:	189b      	adds	r3, r3, r2
    f4ec:	681a      	ldr	r2, [r3, #0]
    f4ee:	2a00      	cmp	r2, #0
    f4f0:	d00c      	beq.n	f50c <_raise_r+0x38>
    f4f2:	2a01      	cmp	r2, #1
    f4f4:	d017      	beq.n	f526 <_raise_r+0x52>
    f4f6:	1c51      	adds	r1, r2, #1
    f4f8:	d011      	beq.n	f51e <_raise_r+0x4a>
    f4fa:	2100      	movs	r1, #0
    f4fc:	0020      	movs	r0, r4
    f4fe:	6019      	str	r1, [r3, #0]
    f500:	f000 f818 	bl	f534 <_raise_r+0x60>
    f504:	2000      	movs	r0, #0
    f506:	bc70      	pop	{r4, r5, r6}
    f508:	bc02      	pop	{r1}
    f50a:	4708      	bx	r1
    f50c:	0028      	movs	r0, r5
    f50e:	f000 f917 	bl	f740 <_getpid_r>
    f512:	0022      	movs	r2, r4
    f514:	0001      	movs	r1, r0
    f516:	0028      	movs	r0, r5
    f518:	f000 f8fc 	bl	f714 <_kill_r>
    f51c:	e7f3      	b.n	f506 <_raise_r+0x32>
    f51e:	2316      	movs	r3, #22
    f520:	6003      	str	r3, [r0, #0]
    f522:	2001      	movs	r0, #1
    f524:	e7ef      	b.n	f506 <_raise_r+0x32>
    f526:	2000      	movs	r0, #0
    f528:	e7ed      	b.n	f506 <_raise_r+0x32>
    f52a:	2316      	movs	r3, #22
    f52c:	6003      	str	r3, [r0, #0]
    f52e:	2001      	movs	r0, #1
    f530:	4240      	negs	r0, r0
    f532:	e7e8      	b.n	f506 <_raise_r+0x32>
    f534:	4710      	bx	r2
    f536:	46c0      	nop			; (mov r8, r8)

0000f538 <__sigtramp_r>:
    f538:	b570      	push	{r4, r5, r6, lr}
    f53a:	0004      	movs	r4, r0
    f53c:	000d      	movs	r5, r1
    f53e:	291f      	cmp	r1, #31
    f540:	d82a      	bhi.n	f598 <__sigtramp_r+0x60>
    f542:	26b7      	movs	r6, #183	; 0xb7
    f544:	00b6      	lsls	r6, r6, #2
    f546:	5982      	ldr	r2, [r0, r6]
    f548:	2a00      	cmp	r2, #0
    f54a:	d013      	beq.n	f574 <__sigtramp_r+0x3c>
    f54c:	00a8      	lsls	r0, r5, #2
    f54e:	1812      	adds	r2, r2, r0
    f550:	6813      	ldr	r3, [r2, #0]
    f552:	2b00      	cmp	r3, #0
    f554:	d00c      	beq.n	f570 <__sigtramp_r+0x38>
    f556:	1c59      	adds	r1, r3, #1
    f558:	d01c      	beq.n	f594 <__sigtramp_r+0x5c>
    f55a:	2b01      	cmp	r3, #1
    f55c:	d018      	beq.n	f590 <__sigtramp_r+0x58>
    f55e:	2100      	movs	r1, #0
    f560:	0028      	movs	r0, r5
    f562:	6011      	str	r1, [r2, #0]
    f564:	f000 f81b 	bl	f59e <__sigtramp_r+0x66>
    f568:	2000      	movs	r0, #0
    f56a:	bc70      	pop	{r4, r5, r6}
    f56c:	bc02      	pop	{r1}
    f56e:	4708      	bx	r1
    f570:	2001      	movs	r0, #1
    f572:	e7fa      	b.n	f56a <__sigtramp_r+0x32>
    f574:	2180      	movs	r1, #128	; 0x80
    f576:	f7fc fc37 	bl	bde8 <_malloc_r>
    f57a:	1e02      	subs	r2, r0, #0
    f57c:	51a0      	str	r0, [r4, r6]
    f57e:	d00b      	beq.n	f598 <__sigtramp_r+0x60>
    f580:	0004      	movs	r4, r0
    f582:	0003      	movs	r3, r0
    f584:	2000      	movs	r0, #0
    f586:	3480      	adds	r4, #128	; 0x80
    f588:	c301      	stmia	r3!, {r0}
    f58a:	42a3      	cmp	r3, r4
    f58c:	d1fc      	bne.n	f588 <__sigtramp_r+0x50>
    f58e:	e7dd      	b.n	f54c <__sigtramp_r+0x14>
    f590:	2003      	movs	r0, #3
    f592:	e7ea      	b.n	f56a <__sigtramp_r+0x32>
    f594:	2002      	movs	r0, #2
    f596:	e7e8      	b.n	f56a <__sigtramp_r+0x32>
    f598:	2001      	movs	r0, #1
    f59a:	4240      	negs	r0, r0
    f59c:	e7e5      	b.n	f56a <__sigtramp_r+0x32>
    f59e:	4718      	bx	r3

0000f5a0 <raise>:
    f5a0:	4b17      	ldr	r3, [pc, #92]	; (f600 <raise+0x60>)
    f5a2:	b570      	push	{r4, r5, r6, lr}
    f5a4:	0004      	movs	r4, r0
    f5a6:	681d      	ldr	r5, [r3, #0]
    f5a8:	281f      	cmp	r0, #31
    f5aa:	d824      	bhi.n	f5f6 <raise+0x56>
    f5ac:	23b7      	movs	r3, #183	; 0xb7
    f5ae:	009b      	lsls	r3, r3, #2
    f5b0:	58eb      	ldr	r3, [r5, r3]
    f5b2:	2b00      	cmp	r3, #0
    f5b4:	d010      	beq.n	f5d8 <raise+0x38>
    f5b6:	0082      	lsls	r2, r0, #2
    f5b8:	189b      	adds	r3, r3, r2
    f5ba:	681a      	ldr	r2, [r3, #0]
    f5bc:	2a00      	cmp	r2, #0
    f5be:	d00b      	beq.n	f5d8 <raise+0x38>
    f5c0:	2a01      	cmp	r2, #1
    f5c2:	d016      	beq.n	f5f2 <raise+0x52>
    f5c4:	1c51      	adds	r1, r2, #1
    f5c6:	d010      	beq.n	f5ea <raise+0x4a>
    f5c8:	2100      	movs	r1, #0
    f5ca:	6019      	str	r1, [r3, #0]
    f5cc:	f000 f81a 	bl	f604 <raise+0x64>
    f5d0:	2000      	movs	r0, #0
    f5d2:	bc70      	pop	{r4, r5, r6}
    f5d4:	bc02      	pop	{r1}
    f5d6:	4708      	bx	r1
    f5d8:	0028      	movs	r0, r5
    f5da:	f000 f8b1 	bl	f740 <_getpid_r>
    f5de:	0022      	movs	r2, r4
    f5e0:	0001      	movs	r1, r0
    f5e2:	0028      	movs	r0, r5
    f5e4:	f000 f896 	bl	f714 <_kill_r>
    f5e8:	e7f3      	b.n	f5d2 <raise+0x32>
    f5ea:	2316      	movs	r3, #22
    f5ec:	2001      	movs	r0, #1
    f5ee:	602b      	str	r3, [r5, #0]
    f5f0:	e7ef      	b.n	f5d2 <raise+0x32>
    f5f2:	2000      	movs	r0, #0
    f5f4:	e7ed      	b.n	f5d2 <raise+0x32>
    f5f6:	2316      	movs	r3, #22
    f5f8:	2001      	movs	r0, #1
    f5fa:	602b      	str	r3, [r5, #0]
    f5fc:	4240      	negs	r0, r0
    f5fe:	e7e8      	b.n	f5d2 <raise+0x32>
    f600:	0002120c 	.word	0x0002120c
    f604:	4710      	bx	r2
    f606:	46c0      	nop			; (mov r8, r8)

0000f608 <signal>:
    f608:	b5f8      	push	{r3, r4, r5, r6, r7, lr}
    f60a:	4b14      	ldr	r3, [pc, #80]	; (f65c <signal+0x54>)
    f60c:	0004      	movs	r4, r0
    f60e:	000d      	movs	r5, r1
    f610:	681e      	ldr	r6, [r3, #0]
    f612:	281f      	cmp	r0, #31
    f614:	d80b      	bhi.n	f62e <signal+0x26>
    f616:	27b7      	movs	r7, #183	; 0xb7
    f618:	00bf      	lsls	r7, r7, #2
    f61a:	59f0      	ldr	r0, [r6, r7]
    f61c:	2800      	cmp	r0, #0
    f61e:	d00b      	beq.n	f638 <signal+0x30>
    f620:	00a4      	lsls	r4, r4, #2
    f622:	1904      	adds	r4, r0, r4
    f624:	6820      	ldr	r0, [r4, #0]
    f626:	6025      	str	r5, [r4, #0]
    f628:	bcf8      	pop	{r3, r4, r5, r6, r7}
    f62a:	bc02      	pop	{r1}
    f62c:	4708      	bx	r1
    f62e:	2316      	movs	r3, #22
    f630:	2001      	movs	r0, #1
    f632:	6033      	str	r3, [r6, #0]
    f634:	4240      	negs	r0, r0
    f636:	e7f7      	b.n	f628 <signal+0x20>
    f638:	2180      	movs	r1, #128	; 0x80
    f63a:	0030      	movs	r0, r6
    f63c:	f7fc fbd4 	bl	bde8 <_malloc_r>
    f640:	51f0      	str	r0, [r6, r7]
    f642:	2800      	cmp	r0, #0
    f644:	d007      	beq.n	f656 <signal+0x4e>
    f646:	0001      	movs	r1, r0
    f648:	0003      	movs	r3, r0
    f64a:	2200      	movs	r2, #0
    f64c:	3180      	adds	r1, #128	; 0x80
    f64e:	c304      	stmia	r3!, {r2}
    f650:	4299      	cmp	r1, r3
    f652:	d1fc      	bne.n	f64e <signal+0x46>
    f654:	e7e4      	b.n	f620 <signal+0x18>
    f656:	2001      	movs	r0, #1
    f658:	4240      	negs	r0, r0
    f65a:	e7e5      	b.n	f628 <signal+0x20>
    f65c:	0002120c 	.word	0x0002120c

0000f660 <_init_signal>:
    f660:	b570      	push	{r4, r5, r6, lr}
    f662:	25b7      	movs	r5, #183	; 0xb7
    f664:	4b0d      	ldr	r3, [pc, #52]	; (f69c <_init_signal+0x3c>)
    f666:	681c      	ldr	r4, [r3, #0]
    f668:	00ad      	lsls	r5, r5, #2
    f66a:	5963      	ldr	r3, [r4, r5]
    f66c:	2b00      	cmp	r3, #0
    f66e:	d003      	beq.n	f678 <_init_signal+0x18>
    f670:	2000      	movs	r0, #0
    f672:	bc70      	pop	{r4, r5, r6}
    f674:	bc02      	pop	{r1}
    f676:	4708      	bx	r1
    f678:	2180      	movs	r1, #128	; 0x80
    f67a:	0020      	movs	r0, r4
    f67c:	f7fc fbb4 	bl	bde8 <_malloc_r>
    f680:	5160      	str	r0, [r4, r5]
    f682:	2800      	cmp	r0, #0
    f684:	d006      	beq.n	f694 <_init_signal+0x34>
    f686:	0002      	movs	r2, r0
    f688:	2300      	movs	r3, #0
    f68a:	3280      	adds	r2, #128	; 0x80
    f68c:	c008      	stmia	r0!, {r3}
    f68e:	4290      	cmp	r0, r2
    f690:	d1fc      	bne.n	f68c <_init_signal+0x2c>
    f692:	e7ed      	b.n	f670 <_init_signal+0x10>
    f694:	2001      	movs	r0, #1
    f696:	4240      	negs	r0, r0
    f698:	e7eb      	b.n	f672 <_init_signal+0x12>
    f69a:	46c0      	nop			; (mov r8, r8)
    f69c:	0002120c 	.word	0x0002120c

0000f6a0 <__sigtramp>:
    f6a0:	4b1a      	ldr	r3, [pc, #104]	; (f70c <__sigtramp+0x6c>)
    f6a2:	b570      	push	{r4, r5, r6, lr}
    f6a4:	0005      	movs	r5, r0
    f6a6:	681c      	ldr	r4, [r3, #0]
    f6a8:	281f      	cmp	r0, #31
    f6aa:	d82b      	bhi.n	f704 <__sigtramp+0x64>
    f6ac:	26b7      	movs	r6, #183	; 0xb7
    f6ae:	00b6      	lsls	r6, r6, #2
    f6b0:	59a2      	ldr	r2, [r4, r6]
    f6b2:	2a00      	cmp	r2, #0
    f6b4:	d013      	beq.n	f6de <__sigtramp+0x3e>
    f6b6:	00a8      	lsls	r0, r5, #2
    f6b8:	1812      	adds	r2, r2, r0
    f6ba:	6813      	ldr	r3, [r2, #0]
    f6bc:	2b00      	cmp	r3, #0
    f6be:	d00c      	beq.n	f6da <__sigtramp+0x3a>
    f6c0:	1c59      	adds	r1, r3, #1
    f6c2:	d01d      	beq.n	f700 <__sigtramp+0x60>
    f6c4:	2b01      	cmp	r3, #1
    f6c6:	d019      	beq.n	f6fc <__sigtramp+0x5c>
    f6c8:	2100      	movs	r1, #0
    f6ca:	0028      	movs	r0, r5
    f6cc:	6011      	str	r1, [r2, #0]
    f6ce:	f000 f81f 	bl	f710 <__sigtramp+0x70>
    f6d2:	2000      	movs	r0, #0
    f6d4:	bc70      	pop	{r4, r5, r6}
    f6d6:	bc02      	pop	{r1}
    f6d8:	4708      	bx	r1
    f6da:	2001      	movs	r0, #1
    f6dc:	e7fa      	b.n	f6d4 <__sigtramp+0x34>
    f6de:	2180      	movs	r1, #128	; 0x80
    f6e0:	0020      	movs	r0, r4
    f6e2:	f7fc fb81 	bl	bde8 <_malloc_r>
    f6e6:	1e02      	subs	r2, r0, #0
    f6e8:	51a0      	str	r0, [r4, r6]
    f6ea:	d00b      	beq.n	f704 <__sigtramp+0x64>
    f6ec:	0004      	movs	r4, r0
    f6ee:	0003      	movs	r3, r0
    f6f0:	2100      	movs	r1, #0
    f6f2:	3480      	adds	r4, #128	; 0x80
    f6f4:	c302      	stmia	r3!, {r1}
    f6f6:	42a3      	cmp	r3, r4
    f6f8:	d1fc      	bne.n	f6f4 <__sigtramp+0x54>
    f6fa:	e7dc      	b.n	f6b6 <__sigtramp+0x16>
    f6fc:	2003      	movs	r0, #3
    f6fe:	e7e9      	b.n	f6d4 <__sigtramp+0x34>
    f700:	2002      	movs	r0, #2
    f702:	e7e7      	b.n	f6d4 <__sigtramp+0x34>
    f704:	2001      	movs	r0, #1
    f706:	4240      	negs	r0, r0
    f708:	e7e4      	b.n	f6d4 <__sigtramp+0x34>
    f70a:	46c0      	nop			; (mov r8, r8)
    f70c:	0002120c 	.word	0x0002120c
    f710:	4718      	bx	r3
    f712:	46c0      	nop			; (mov r8, r8)

0000f714 <_kill_r>:
    f714:	2300      	movs	r3, #0
    f716:	b570      	push	{r4, r5, r6, lr}
    f718:	4d08      	ldr	r5, [pc, #32]	; (f73c <_kill_r+0x28>)
    f71a:	0004      	movs	r4, r0
    f71c:	0008      	movs	r0, r1
    f71e:	0011      	movs	r1, r2
    f720:	602b      	str	r3, [r5, #0]
    f722:	f001 f923 	bl	1096c <_kill>
    f726:	1c43      	adds	r3, r0, #1
    f728:	d002      	beq.n	f730 <_kill_r+0x1c>
    f72a:	bc70      	pop	{r4, r5, r6}
    f72c:	bc02      	pop	{r1}
    f72e:	4708      	bx	r1
    f730:	682b      	ldr	r3, [r5, #0]
    f732:	2b00      	cmp	r3, #0
    f734:	d0f9      	beq.n	f72a <_kill_r+0x16>
    f736:	6023      	str	r3, [r4, #0]
    f738:	e7f7      	b.n	f72a <_kill_r+0x16>
    f73a:	46c0      	nop			; (mov r8, r8)
    f73c:	00021c30 	.word	0x00021c30

0000f740 <_getpid_r>:
    f740:	b510      	push	{r4, lr}
    f742:	f001 f903 	bl	1094c <_getpid>
    f746:	bc10      	pop	{r4}
    f748:	bc02      	pop	{r1}
    f74a:	4708      	bx	r1
    f74c:	e92d4070 	push	{r4, r5, r6, lr}
    f750:	e3a0c0ff 	mov	ip, #255	; 0xff
    f754:	e38ccc07 	orr	ip, ip, #1792	; 0x700
    f758:	e01c4a21 	ands	r4, ip, r1, lsr #20
    f75c:	101c5a23 	andsne	r5, ip, r3, lsr #20
    f760:	1134000c 	teqne	r4, ip
    f764:	1135000c 	teqne	r5, ip
    f768:	0b000075 	bleq	f944 <_getpid_r+0x204>
    f76c:	e0844005 	add	r4, r4, r5
    f770:	e0216003 	eor	r6, r1, r3
    f774:	e1c11a8c 	bic	r1, r1, ip, lsl #21
    f778:	e1c33a8c 	bic	r3, r3, ip, lsl #21
    f77c:	e1905601 	orrs	r5, r0, r1, lsl #12
    f780:	11925603 	orrsne	r5, r2, r3, lsl #12
    f784:	e3811601 	orr	r1, r1, #1048576	; 0x100000
    f788:	e3833601 	orr	r3, r3, #1048576	; 0x100000
    f78c:	0a00001d 	beq	f808 <_getpid_r+0xc8>
    f790:	e08ec290 	umull	ip, lr, r0, r2
    f794:	e3a05000 	mov	r5, #0
    f798:	e0a5e291 	umlal	lr, r5, r1, r2
    f79c:	e2062102 	and	r2, r6, #-2147483648	; 0x80000000
    f7a0:	e0a5e390 	umlal	lr, r5, r0, r3
    f7a4:	e3a06000 	mov	r6, #0
    f7a8:	e0a65391 	umlal	r5, r6, r1, r3
    f7ac:	e33c0000 	teq	ip, #0
    f7b0:	138ee001 	orrne	lr, lr, #1
    f7b4:	e24440ff 	sub	r4, r4, #255	; 0xff
    f7b8:	e3560c02 	cmp	r6, #512	; 0x200
    f7bc:	e2c44c03 	sbc	r4, r4, #768	; 0x300
    f7c0:	2a000002 	bcs	f7d0 <_getpid_r+0x90>
    f7c4:	e1b0e08e 	lsls	lr, lr, #1
    f7c8:	e0b55005 	adcs	r5, r5, r5
    f7cc:	e0a66006 	adc	r6, r6, r6
    f7d0:	e1821586 	orr	r1, r2, r6, lsl #11
    f7d4:	e1811aa5 	orr	r1, r1, r5, lsr #21
    f7d8:	e1a00585 	lsl	r0, r5, #11
    f7dc:	e1800aae 	orr	r0, r0, lr, lsr #21
    f7e0:	e1a0e58e 	lsl	lr, lr, #11
    f7e4:	e254c0fd 	subs	ip, r4, #253	; 0xfd
    f7e8:	835c0c07 	cmphi	ip, #1792	; 0x700
    f7ec:	8a000011 	bhi	f838 <_getpid_r+0xf8>
    f7f0:	e35e0102 	cmp	lr, #-2147483648	; 0x80000000
    f7f4:	01b0e0a0 	lsrseq	lr, r0, #1
    f7f8:	e2b00000 	adcs	r0, r0, #0
    f7fc:	e0a11a04 	adc	r1, r1, r4, lsl #20
    f800:	e8bd4070 	pop	{r4, r5, r6, lr}
    f804:	e12fff1e 	bx	lr
    f808:	e2066102 	and	r6, r6, #-2147483648	; 0x80000000
    f80c:	e1861001 	orr	r1, r6, r1
    f810:	e1800002 	orr	r0, r0, r2
    f814:	e0211003 	eor	r1, r1, r3
    f818:	e05440ac 	subs	r4, r4, ip, lsr #1
    f81c:	c074500c 	rsbsgt	r5, r4, ip
    f820:	c1811a04 	orrgt	r1, r1, r4, lsl #20
    f824:	c8bd4070 	popgt	{r4, r5, r6, lr}
    f828:	c12fff1e 	bxgt	lr
    f82c:	e3811601 	orr	r1, r1, #1048576	; 0x100000
    f830:	e3a0e000 	mov	lr, #0
    f834:	e2544001 	subs	r4, r4, #1
    f838:	ca00005d 	bgt	f9b4 <_getpid_r+0x274>
    f83c:	e3740036 	cmn	r4, #54	; 0x36
    f840:	d3a00000 	movle	r0, #0
    f844:	d2011102 	andle	r1, r1, #-2147483648	; 0x80000000
    f848:	d8bd4070 	pople	{r4, r5, r6, lr}
    f84c:	d12fff1e 	bxle	lr
    f850:	e2644000 	rsb	r4, r4, #0
    f854:	e2544020 	subs	r4, r4, #32
    f858:	aa00001a 	bge	f8c8 <_getpid_r+0x188>
    f85c:	e294400c 	adds	r4, r4, #12
    f860:	ca00000c 	bgt	f898 <_getpid_r+0x158>
    f864:	e2844014 	add	r4, r4, #20
    f868:	e2645020 	rsb	r5, r4, #32
    f86c:	e1a03510 	lsl	r3, r0, r5
    f870:	e1a00430 	lsr	r0, r0, r4
    f874:	e1800511 	orr	r0, r0, r1, lsl r5
    f878:	e2012102 	and	r2, r1, #-2147483648	; 0x80000000
    f87c:	e3c11102 	bic	r1, r1, #-2147483648	; 0x80000000
    f880:	e0900fa3 	adds	r0, r0, r3, lsr #31
    f884:	e0a21431 	adc	r1, r2, r1, lsr r4
    f888:	e19ee083 	orrs	lr, lr, r3, lsl #1
    f88c:	01c00fa3 	biceq	r0, r0, r3, lsr #31
    f890:	e8bd4070 	pop	{r4, r5, r6, lr}
    f894:	e12fff1e 	bx	lr
    f898:	e264400c 	rsb	r4, r4, #12
    f89c:	e2645020 	rsb	r5, r4, #32
    f8a0:	e1a03410 	lsl	r3, r0, r4
    f8a4:	e1a00530 	lsr	r0, r0, r5
    f8a8:	e1800411 	orr	r0, r0, r1, lsl r4
    f8ac:	e2011102 	and	r1, r1, #-2147483648	; 0x80000000
    f8b0:	e0900fa3 	adds	r0, r0, r3, lsr #31
    f8b4:	e2a11000 	adc	r1, r1, #0
    f8b8:	e19ee083 	orrs	lr, lr, r3, lsl #1
    f8bc:	01c00fa3 	biceq	r0, r0, r3, lsr #31
    f8c0:	e8bd4070 	pop	{r4, r5, r6, lr}
    f8c4:	e12fff1e 	bx	lr
    f8c8:	e2645020 	rsb	r5, r4, #32
    f8cc:	e18ee510 	orr	lr, lr, r0, lsl r5
    f8d0:	e1a03430 	lsr	r3, r0, r4
    f8d4:	e1833511 	orr	r3, r3, r1, lsl r5
    f8d8:	e1a00431 	lsr	r0, r1, r4
    f8dc:	e2011102 	and	r1, r1, #-2147483648	; 0x80000000
    f8e0:	e1c00431 	bic	r0, r0, r1, lsr r4
    f8e4:	e0800fa3 	add	r0, r0, r3, lsr #31
    f8e8:	e19ee083 	orrs	lr, lr, r3, lsl #1
    f8ec:	01c00fa3 	biceq	r0, r0, r3, lsr #31
    f8f0:	e8bd4070 	pop	{r4, r5, r6, lr}
    f8f4:	e12fff1e 	bx	lr
    f8f8:	e3340000 	teq	r4, #0
    f8fc:	1a000008 	bne	f924 <_getpid_r+0x1e4>
    f900:	e2016102 	and	r6, r1, #-2147483648	; 0x80000000
    f904:	e1b00080 	lsls	r0, r0, #1
    f908:	e0a11001 	adc	r1, r1, r1
    f90c:	e3110601 	tst	r1, #1048576	; 0x100000
    f910:	02444001 	subeq	r4, r4, #1
    f914:	0afffffa 	beq	f904 <_getpid_r+0x1c4>
    f918:	e1811006 	orr	r1, r1, r6
    f91c:	e3350000 	teq	r5, #0
    f920:	112fff1e 	bxne	lr
    f924:	e2036102 	and	r6, r3, #-2147483648	; 0x80000000
    f928:	e1b02082 	lsls	r2, r2, #1
    f92c:	e0a33003 	adc	r3, r3, r3
    f930:	e3130601 	tst	r3, #1048576	; 0x100000
    f934:	02455001 	subeq	r5, r5, #1
    f938:	0afffffa 	beq	f928 <_getpid_r+0x1e8>
    f93c:	e1833006 	orr	r3, r3, r6
    f940:	e12fff1e 	bx	lr
    f944:	e134000c 	teq	r4, ip
    f948:	e00c5a23 	and	r5, ip, r3, lsr #20
    f94c:	1135000c 	teqne	r5, ip
    f950:	0a000007 	beq	f974 <_getpid_r+0x234>
    f954:	e1906081 	orrs	r6, r0, r1, lsl #1
    f958:	11926083 	orrsne	r6, r2, r3, lsl #1
    f95c:	1affffe5 	bne	f8f8 <_getpid_r+0x1b8>
    f960:	e0211003 	eor	r1, r1, r3
    f964:	e2011102 	and	r1, r1, #-2147483648	; 0x80000000
    f968:	e3a00000 	mov	r0, #0
    f96c:	e8bd4070 	pop	{r4, r5, r6, lr}
    f970:	e12fff1e 	bx	lr
    f974:	e1906081 	orrs	r6, r0, r1, lsl #1
    f978:	01a00002 	moveq	r0, r2
    f97c:	01a01003 	moveq	r1, r3
    f980:	11926083 	orrsne	r6, r2, r3, lsl #1
    f984:	0a000010 	beq	f9cc <_getpid_r+0x28c>
    f988:	e134000c 	teq	r4, ip
    f98c:	1a000001 	bne	f998 <_getpid_r+0x258>
    f990:	e1906601 	orrs	r6, r0, r1, lsl #12
    f994:	1a00000c 	bne	f9cc <_getpid_r+0x28c>
    f998:	e135000c 	teq	r5, ip
    f99c:	1a000003 	bne	f9b0 <_getpid_r+0x270>
    f9a0:	e1926603 	orrs	r6, r2, r3, lsl #12
    f9a4:	11a00002 	movne	r0, r2
    f9a8:	11a01003 	movne	r1, r3
    f9ac:	1a000006 	bne	f9cc <_getpid_r+0x28c>
    f9b0:	e0211003 	eor	r1, r1, r3
    f9b4:	e2011102 	and	r1, r1, #-2147483648	; 0x80000000
    f9b8:	e381147f 	orr	r1, r1, #2130706432	; 0x7f000000
    f9bc:	e381160f 	orr	r1, r1, #15728640	; 0xf00000
    f9c0:	e3a00000 	mov	r0, #0
    f9c4:	e8bd4070 	pop	{r4, r5, r6, lr}
    f9c8:	e12fff1e 	bx	lr
    f9cc:	e381147f 	orr	r1, r1, #2130706432	; 0x7f000000
    f9d0:	e381173e 	orr	r1, r1, #16252928	; 0xf80000
    f9d4:	e8bd4070 	pop	{r4, r5, r6, lr}
    f9d8:	e12fff1e 	bx	lr

0000f9dc <__udivsi3>:
    f9dc:	e2512001 	subs	r2, r1, #1
    f9e0:	012fff1e 	bxeq	lr
    f9e4:	3a000036 	bcc	fac4 <__udivsi3+0xe8>
    f9e8:	e1500001 	cmp	r0, r1
    f9ec:	9a000022 	bls	fa7c <__udivsi3+0xa0>
    f9f0:	e1110002 	tst	r1, r2
    f9f4:	0a000023 	beq	fa88 <__udivsi3+0xac>
    f9f8:	e311020e 	tst	r1, #-536870912	; 0xe0000000
    f9fc:	01a01181 	lsleq	r1, r1, #3
    fa00:	03a03008 	moveq	r3, #8
    fa04:	13a03001 	movne	r3, #1
    fa08:	e3510201 	cmp	r1, #268435456	; 0x10000000
    fa0c:	31510000 	cmpcc	r1, r0
    fa10:	31a01201 	lslcc	r1, r1, #4
    fa14:	31a03203 	lslcc	r3, r3, #4
    fa18:	3afffffa 	bcc	fa08 <__udivsi3+0x2c>
    fa1c:	e3510102 	cmp	r1, #-2147483648	; 0x80000000
    fa20:	31510000 	cmpcc	r1, r0
    fa24:	31a01081 	lslcc	r1, r1, #1
    fa28:	31a03083 	lslcc	r3, r3, #1
    fa2c:	3afffffa 	bcc	fa1c <__udivsi3+0x40>
    fa30:	e3a02000 	mov	r2, #0
    fa34:	e1500001 	cmp	r0, r1
    fa38:	20400001 	subcs	r0, r0, r1
    fa3c:	21822003 	orrcs	r2, r2, r3
    fa40:	e15000a1 	cmp	r0, r1, lsr #1
    fa44:	204000a1 	subcs	r0, r0, r1, lsr #1
    fa48:	218220a3 	orrcs	r2, r2, r3, lsr #1
    fa4c:	e1500121 	cmp	r0, r1, lsr #2
    fa50:	20400121 	subcs	r0, r0, r1, lsr #2
    fa54:	21822123 	orrcs	r2, r2, r3, lsr #2
    fa58:	e15001a1 	cmp	r0, r1, lsr #3
    fa5c:	204001a1 	subcs	r0, r0, r1, lsr #3
    fa60:	218221a3 	orrcs	r2, r2, r3, lsr #3
    fa64:	e3500000 	cmp	r0, #0
    fa68:	11b03223 	lsrsne	r3, r3, #4
    fa6c:	11a01221 	lsrne	r1, r1, #4
    fa70:	1affffef 	bne	fa34 <__udivsi3+0x58>
    fa74:	e1a00002 	mov	r0, r2
    fa78:	e12fff1e 	bx	lr
    fa7c:	03a00001 	moveq	r0, #1
    fa80:	13a00000 	movne	r0, #0
    fa84:	e12fff1e 	bx	lr
    fa88:	e3510801 	cmp	r1, #65536	; 0x10000
    fa8c:	21a01821 	lsrcs	r1, r1, #16
    fa90:	23a02010 	movcs	r2, #16
    fa94:	33a02000 	movcc	r2, #0
    fa98:	e3510c01 	cmp	r1, #256	; 0x100
    fa9c:	21a01421 	lsrcs	r1, r1, #8
    faa0:	22822008 	addcs	r2, r2, #8
    faa4:	e3510010 	cmp	r1, #16
    faa8:	21a01221 	lsrcs	r1, r1, #4
    faac:	22822004 	addcs	r2, r2, #4
    fab0:	e3510004 	cmp	r1, #4
    fab4:	82822003 	addhi	r2, r2, #3
    fab8:	908220a1 	addls	r2, r2, r1, lsr #1
    fabc:	e1a00230 	lsr	r0, r0, r2
    fac0:	e12fff1e 	bx	lr
    fac4:	e12fff1f 	bx	pc
    fac8:	e1a00000 	nop			; (mov r0, r0)
    facc:	e3500000 	cmp	r0, #0
    fad0:	13e00000 	mvnne	r0, #0
    fad4:	ea0003d2 	b	10a24 <____aeabi_idiv0_from_arm>

0000fad8 <__aeabi_uidivmod>:
    fad8:	e3510000 	cmp	r1, #0
    fadc:	0afffff8 	beq	fac4 <__udivsi3+0xe8>
    fae0:	e92d4003 	push	{r0, r1, lr}
    fae4:	ebffffbc 	bl	f9dc <__udivsi3>
    fae8:	e8bd4006 	pop	{r1, r2, lr}
    faec:	e0030092 	mul	r3, r2, r0
    faf0:	e0411003 	sub	r1, r1, r3
    faf4:	e12fff1e 	bx	lr

0000faf8 <__divsi3>:
    faf8:	e3510000 	cmp	r1, #0
    fafc:	0a000043 	beq	fc10 <.divsi3_skip_div0_test+0x110>

0000fb00 <.divsi3_skip_div0_test>:
    fb00:	e020c001 	eor	ip, r0, r1
    fb04:	42611000 	rsbmi	r1, r1, #0
    fb08:	e2512001 	subs	r2, r1, #1
    fb0c:	0a000027 	beq	fbb0 <.divsi3_skip_div0_test+0xb0>
    fb10:	e1b03000 	movs	r3, r0
    fb14:	42603000 	rsbmi	r3, r0, #0
    fb18:	e1530001 	cmp	r3, r1
    fb1c:	9a000026 	bls	fbbc <.divsi3_skip_div0_test+0xbc>
    fb20:	e1110002 	tst	r1, r2
    fb24:	0a000028 	beq	fbcc <.divsi3_skip_div0_test+0xcc>
    fb28:	e311020e 	tst	r1, #-536870912	; 0xe0000000
    fb2c:	01a01181 	lsleq	r1, r1, #3
    fb30:	03a02008 	moveq	r2, #8
    fb34:	13a02001 	movne	r2, #1
    fb38:	e3510201 	cmp	r1, #268435456	; 0x10000000
    fb3c:	31510003 	cmpcc	r1, r3
    fb40:	31a01201 	lslcc	r1, r1, #4
    fb44:	31a02202 	lslcc	r2, r2, #4
    fb48:	3afffffa 	bcc	fb38 <.divsi3_skip_div0_test+0x38>
    fb4c:	e3510102 	cmp	r1, #-2147483648	; 0x80000000
    fb50:	31510003 	cmpcc	r1, r3
    fb54:	31a01081 	lslcc	r1, r1, #1
    fb58:	31a02082 	lslcc	r2, r2, #1
    fb5c:	3afffffa 	bcc	fb4c <.divsi3_skip_div0_test+0x4c>
    fb60:	e3a00000 	mov	r0, #0
    fb64:	e1530001 	cmp	r3, r1
    fb68:	20433001 	subcs	r3, r3, r1
    fb6c:	21800002 	orrcs	r0, r0, r2
    fb70:	e15300a1 	cmp	r3, r1, lsr #1
    fb74:	204330a1 	subcs	r3, r3, r1, lsr #1
    fb78:	218000a2 	orrcs	r0, r0, r2, lsr #1
    fb7c:	e1530121 	cmp	r3, r1, lsr #2
    fb80:	20433121 	subcs	r3, r3, r1, lsr #2
    fb84:	21800122 	orrcs	r0, r0, r2, lsr #2
    fb88:	e15301a1 	cmp	r3, r1, lsr #3
    fb8c:	204331a1 	subcs	r3, r3, r1, lsr #3
    fb90:	218001a2 	orrcs	r0, r0, r2, lsr #3
    fb94:	e3530000 	cmp	r3, #0
    fb98:	11b02222 	lsrsne	r2, r2, #4
    fb9c:	11a01221 	lsrne	r1, r1, #4
    fba0:	1affffef 	bne	fb64 <.divsi3_skip_div0_test+0x64>
    fba4:	e35c0000 	cmp	ip, #0
    fba8:	42600000 	rsbmi	r0, r0, #0
    fbac:	e12fff1e 	bx	lr
    fbb0:	e13c0000 	teq	ip, r0
    fbb4:	42600000 	rsbmi	r0, r0, #0
    fbb8:	e12fff1e 	bx	lr
    fbbc:	33a00000 	movcc	r0, #0
    fbc0:	01a00fcc 	asreq	r0, ip, #31
    fbc4:	03800001 	orreq	r0, r0, #1
    fbc8:	e12fff1e 	bx	lr
    fbcc:	e3510801 	cmp	r1, #65536	; 0x10000
    fbd0:	21a01821 	lsrcs	r1, r1, #16
    fbd4:	23a02010 	movcs	r2, #16
    fbd8:	33a02000 	movcc	r2, #0
    fbdc:	e3510c01 	cmp	r1, #256	; 0x100
    fbe0:	21a01421 	lsrcs	r1, r1, #8
    fbe4:	22822008 	addcs	r2, r2, #8
    fbe8:	e3510010 	cmp	r1, #16
    fbec:	21a01221 	lsrcs	r1, r1, #4
    fbf0:	22822004 	addcs	r2, r2, #4
    fbf4:	e3510004 	cmp	r1, #4
    fbf8:	82822003 	addhi	r2, r2, #3
    fbfc:	908220a1 	addls	r2, r2, r1, lsr #1
    fc00:	e35c0000 	cmp	ip, #0
    fc04:	e1a00233 	lsr	r0, r3, r2
    fc08:	42600000 	rsbmi	r0, r0, #0
    fc0c:	e12fff1e 	bx	lr
    fc10:	e12fff1f 	bx	pc
    fc14:	e1a00000 	nop			; (mov r0, r0)
    fc18:	e3500000 	cmp	r0, #0
    fc1c:	c3e00102 	mvngt	r0, #-2147483648	; 0x80000000
    fc20:	b3a00102 	movlt	r0, #-2147483648	; 0x80000000
    fc24:	ea00037e 	b	10a24 <____aeabi_idiv0_from_arm>

0000fc28 <__aeabi_idivmod>:
    fc28:	e3510000 	cmp	r1, #0
    fc2c:	0afffff7 	beq	fc10 <.divsi3_skip_div0_test+0x110>
    fc30:	e92d4003 	push	{r0, r1, lr}
    fc34:	ebffffb1 	bl	fb00 <.divsi3_skip_div0_test>
    fc38:	e8bd4006 	pop	{r1, r2, lr}
    fc3c:	e0030092 	mul	r3, r2, r0
    fc40:	e0411003 	sub	r1, r1, r3
    fc44:	e12fff1e 	bx	lr

0000fc48 <__aeabi_idiv0>:
    fc48:	4770      	bx	lr
    fc4a:	46c0      	nop			; (mov r8, r8)

0000fc4c <__aeabi_drsub>:
    fc4c:	e2211102 	eor	r1, r1, #-2147483648	; 0x80000000
    fc50:	ea000000 	b	fc58 <__adddf3>

0000fc54 <__aeabi_dsub>:
    fc54:	e2233102 	eor	r3, r3, #-2147483648	; 0x80000000

0000fc58 <__adddf3>:
    fc58:	e92d4030 	push	{r4, r5, lr}
    fc5c:	e1a04081 	lsl	r4, r1, #1
    fc60:	e1a05083 	lsl	r5, r3, #1
    fc64:	e1340005 	teq	r4, r5
    fc68:	01300002 	teqeq	r0, r2
    fc6c:	1194c000 	orrsne	ip, r4, r0
    fc70:	1195c002 	orrsne	ip, r5, r2
    fc74:	11f0cac4 	mvnsne	ip, r4, asr #21
    fc78:	11f0cac5 	mvnsne	ip, r5, asr #21
    fc7c:	0a00008c 	beq	feb4 <__adddf3+0x25c>
    fc80:	e1a04aa4 	lsr	r4, r4, #21
    fc84:	e0745aa5 	rsbs	r5, r4, r5, lsr #21
    fc88:	b2655000 	rsblt	r5, r5, #0
    fc8c:	da000006 	ble	fcac <__adddf3+0x54>
    fc90:	e0844005 	add	r4, r4, r5
    fc94:	e0202002 	eor	r2, r0, r2
    fc98:	e0213003 	eor	r3, r1, r3
    fc9c:	e0220000 	eor	r0, r2, r0
    fca0:	e0231001 	eor	r1, r3, r1
    fca4:	e0202002 	eor	r2, r0, r2
    fca8:	e0213003 	eor	r3, r1, r3
    fcac:	e3550036 	cmp	r5, #54	; 0x36
    fcb0:	88bd4030 	pophi	{r4, r5, lr}
    fcb4:	812fff1e 	bxhi	lr
    fcb8:	e3110102 	tst	r1, #-2147483648	; 0x80000000
    fcbc:	e1a01601 	lsl	r1, r1, #12
    fcc0:	e3a0c601 	mov	ip, #1048576	; 0x100000
    fcc4:	e18c1621 	orr	r1, ip, r1, lsr #12
    fcc8:	0a000001 	beq	fcd4 <__adddf3+0x7c>
    fccc:	e2700000 	rsbs	r0, r0, #0
    fcd0:	e2e11000 	rsc	r1, r1, #0
    fcd4:	e3130102 	tst	r3, #-2147483648	; 0x80000000
    fcd8:	e1a03603 	lsl	r3, r3, #12
    fcdc:	e18c3623 	orr	r3, ip, r3, lsr #12
    fce0:	0a000001 	beq	fcec <__adddf3+0x94>
    fce4:	e2722000 	rsbs	r2, r2, #0
    fce8:	e2e33000 	rsc	r3, r3, #0
    fcec:	e1340005 	teq	r4, r5
    fcf0:	0a000069 	beq	fe9c <__adddf3+0x244>
    fcf4:	e2444001 	sub	r4, r4, #1
    fcf8:	e275e020 	rsbs	lr, r5, #32
    fcfc:	ba000005 	blt	fd18 <__adddf3+0xc0>
    fd00:	e1a0ce12 	lsl	ip, r2, lr
    fd04:	e0900532 	adds	r0, r0, r2, lsr r5
    fd08:	e2a11000 	adc	r1, r1, #0
    fd0c:	e0900e13 	adds	r0, r0, r3, lsl lr
    fd10:	e0b11553 	adcs	r1, r1, r3, asr r5
    fd14:	ea000006 	b	fd34 <__adddf3+0xdc>
    fd18:	e2455020 	sub	r5, r5, #32
    fd1c:	e28ee020 	add	lr, lr, #32
    fd20:	e3520001 	cmp	r2, #1
    fd24:	e1a0ce13 	lsl	ip, r3, lr
    fd28:	238cc002 	orrcs	ip, ip, #2
    fd2c:	e0900553 	adds	r0, r0, r3, asr r5
    fd30:	e0b11fc3 	adcs	r1, r1, r3, asr #31
    fd34:	e2015102 	and	r5, r1, #-2147483648	; 0x80000000
    fd38:	5a000002 	bpl	fd48 <__adddf3+0xf0>
    fd3c:	e27cc000 	rsbs	ip, ip, #0
    fd40:	e2f00000 	rscs	r0, r0, #0
    fd44:	e2e11000 	rsc	r1, r1, #0
    fd48:	e3510601 	cmp	r1, #1048576	; 0x100000
    fd4c:	3a00000f 	bcc	fd90 <__adddf3+0x138>
    fd50:	e3510602 	cmp	r1, #2097152	; 0x200000
    fd54:	3a000006 	bcc	fd74 <__adddf3+0x11c>
    fd58:	e1b010a1 	lsrs	r1, r1, #1
    fd5c:	e1b00060 	rrxs	r0, r0
    fd60:	e1a0c06c 	rrx	ip, ip
    fd64:	e2844001 	add	r4, r4, #1
    fd68:	e1a02a84 	lsl	r2, r4, #21
    fd6c:	e3720501 	cmn	r2, #4194304	; 0x400000
    fd70:	2a00006b 	bcs	ff24 <__adddf3+0x2cc>
    fd74:	e35c0102 	cmp	ip, #-2147483648	; 0x80000000
    fd78:	01b0c0a0 	lsrseq	ip, r0, #1
    fd7c:	e2b00000 	adcs	r0, r0, #0
    fd80:	e0a11a04 	adc	r1, r1, r4, lsl #20
    fd84:	e1811005 	orr	r1, r1, r5
    fd88:	e8bd4030 	pop	{r4, r5, lr}
    fd8c:	e12fff1e 	bx	lr
    fd90:	e1b0c08c 	lsls	ip, ip, #1
    fd94:	e0b00000 	adcs	r0, r0, r0
    fd98:	e0a11001 	adc	r1, r1, r1
    fd9c:	e2544001 	subs	r4, r4, #1
    fda0:	23510601 	cmpcs	r1, #1048576	; 0x100000
    fda4:	2afffff2 	bcs	fd74 <__adddf3+0x11c>
    fda8:	e3310000 	teq	r1, #0
    fdac:	13a03014 	movne	r3, #20
    fdb0:	03a03034 	moveq	r3, #52	; 0x34
    fdb4:	01a01000 	moveq	r1, r0
    fdb8:	03a00000 	moveq	r0, #0
    fdbc:	e1a02001 	mov	r2, r1
    fdc0:	e3520801 	cmp	r2, #65536	; 0x10000
    fdc4:	21a02822 	lsrcs	r2, r2, #16
    fdc8:	22433010 	subcs	r3, r3, #16
    fdcc:	e3520c01 	cmp	r2, #256	; 0x100
    fdd0:	21a02422 	lsrcs	r2, r2, #8
    fdd4:	22433008 	subcs	r3, r3, #8
    fdd8:	e3520010 	cmp	r2, #16
    fddc:	21a02222 	lsrcs	r2, r2, #4
    fde0:	22433004 	subcs	r3, r3, #4
    fde4:	e3520004 	cmp	r2, #4
    fde8:	22433002 	subcs	r3, r3, #2
    fdec:	304330a2 	subcc	r3, r3, r2, lsr #1
    fdf0:	e04331a2 	sub	r3, r3, r2, lsr #3
    fdf4:	e2532020 	subs	r2, r3, #32
    fdf8:	aa000007 	bge	fe1c <__adddf3+0x1c4>
    fdfc:	e292200c 	adds	r2, r2, #12
    fe00:	da000004 	ble	fe18 <__adddf3+0x1c0>
    fe04:	e282c014 	add	ip, r2, #20
    fe08:	e262200c 	rsb	r2, r2, #12
    fe0c:	e1a00c11 	lsl	r0, r1, ip
    fe10:	e1a01231 	lsr	r1, r1, r2
    fe14:	ea000004 	b	fe2c <__adddf3+0x1d4>
    fe18:	e2822014 	add	r2, r2, #20
    fe1c:	d262c020 	rsble	ip, r2, #32
    fe20:	e1a01211 	lsl	r1, r1, r2
    fe24:	d1811c30 	orrle	r1, r1, r0, lsr ip
    fe28:	d1a00210 	lslle	r0, r0, r2
    fe2c:	e0544003 	subs	r4, r4, r3
    fe30:	a0811a04 	addge	r1, r1, r4, lsl #20
    fe34:	a1811005 	orrge	r1, r1, r5
    fe38:	a8bd4030 	popge	{r4, r5, lr}
    fe3c:	a12fff1e 	bxge	lr
    fe40:	e1e04004 	mvn	r4, r4
    fe44:	e254401f 	subs	r4, r4, #31
    fe48:	aa00000f 	bge	fe8c <__adddf3+0x234>
    fe4c:	e294400c 	adds	r4, r4, #12
    fe50:	ca000006 	bgt	fe70 <__adddf3+0x218>
    fe54:	e2844014 	add	r4, r4, #20
    fe58:	e2642020 	rsb	r2, r4, #32
    fe5c:	e1a00430 	lsr	r0, r0, r4
    fe60:	e1800211 	orr	r0, r0, r1, lsl r2
    fe64:	e1851431 	orr	r1, r5, r1, lsr r4
    fe68:	e8bd4030 	pop	{r4, r5, lr}
    fe6c:	e12fff1e 	bx	lr
    fe70:	e264400c 	rsb	r4, r4, #12
    fe74:	e2642020 	rsb	r2, r4, #32
    fe78:	e1a00230 	lsr	r0, r0, r2
    fe7c:	e1800411 	orr	r0, r0, r1, lsl r4
    fe80:	e1a01005 	mov	r1, r5
    fe84:	e8bd4030 	pop	{r4, r5, lr}
    fe88:	e12fff1e 	bx	lr
    fe8c:	e1a00431 	lsr	r0, r1, r4
    fe90:	e1a01005 	mov	r1, r5
    fe94:	e8bd4030 	pop	{r4, r5, lr}
    fe98:	e12fff1e 	bx	lr
    fe9c:	e3340000 	teq	r4, #0
    fea0:	e2233601 	eor	r3, r3, #1048576	; 0x100000
    fea4:	02211601 	eoreq	r1, r1, #1048576	; 0x100000
    fea8:	02844001 	addeq	r4, r4, #1
    feac:	12455001 	subne	r5, r5, #1
    feb0:	eaffff8f 	b	fcf4 <__adddf3+0x9c>
    feb4:	e1f0cac4 	mvns	ip, r4, asr #21
    feb8:	11f0cac5 	mvnsne	ip, r5, asr #21
    febc:	0a00001d 	beq	ff38 <__adddf3+0x2e0>
    fec0:	e1340005 	teq	r4, r5
    fec4:	01300002 	teqeq	r0, r2
    fec8:	0a000004 	beq	fee0 <__adddf3+0x288>
    fecc:	e194c000 	orrs	ip, r4, r0
    fed0:	01a01003 	moveq	r1, r3
    fed4:	01a00002 	moveq	r0, r2
    fed8:	e8bd4030 	pop	{r4, r5, lr}
    fedc:	e12fff1e 	bx	lr
    fee0:	e1310003 	teq	r1, r3
    fee4:	13a01000 	movne	r1, #0
    fee8:	13a00000 	movne	r0, #0
    feec:	18bd4030 	popne	{r4, r5, lr}
    fef0:	112fff1e 	bxne	lr
    fef4:	e1b0caa4 	lsrs	ip, r4, #21
    fef8:	1a000004 	bne	ff10 <__adddf3+0x2b8>
    fefc:	e1b00080 	lsls	r0, r0, #1
    ff00:	e0b11001 	adcs	r1, r1, r1
    ff04:	23811102 	orrcs	r1, r1, #-2147483648	; 0x80000000
    ff08:	e8bd4030 	pop	{r4, r5, lr}
    ff0c:	e12fff1e 	bx	lr
    ff10:	e2944501 	adds	r4, r4, #4194304	; 0x400000
    ff14:	32811601 	addcc	r1, r1, #1048576	; 0x100000
    ff18:	38bd4030 	popcc	{r4, r5, lr}
    ff1c:	312fff1e 	bxcc	lr
    ff20:	e2015102 	and	r5, r1, #-2147483648	; 0x80000000
    ff24:	e385147f 	orr	r1, r5, #2130706432	; 0x7f000000
    ff28:	e381160f 	orr	r1, r1, #15728640	; 0xf00000
    ff2c:	e3a00000 	mov	r0, #0
    ff30:	e8bd4030 	pop	{r4, r5, lr}
    ff34:	e12fff1e 	bx	lr
    ff38:	e1f0cac4 	mvns	ip, r4, asr #21
    ff3c:	11a01003 	movne	r1, r3
    ff40:	11a00002 	movne	r0, r2
    ff44:	01f0cac5 	mvnseq	ip, r5, asr #21
    ff48:	11a03001 	movne	r3, r1
    ff4c:	11a02000 	movne	r2, r0
    ff50:	e1904601 	orrs	r4, r0, r1, lsl #12
    ff54:	01925603 	orrseq	r5, r2, r3, lsl #12
    ff58:	01310003 	teqeq	r1, r3
    ff5c:	13811702 	orrne	r1, r1, #524288	; 0x80000
    ff60:	e8bd4030 	pop	{r4, r5, lr}
    ff64:	e12fff1e 	bx	lr

0000ff68 <__aeabi_ui2d>:
    ff68:	e3300000 	teq	r0, #0
    ff6c:	03a01000 	moveq	r1, #0
    ff70:	012fff1e 	bxeq	lr
    ff74:	e92d4030 	push	{r4, r5, lr}
    ff78:	e3a04b01 	mov	r4, #1024	; 0x400
    ff7c:	e2844032 	add	r4, r4, #50	; 0x32
    ff80:	e3a05000 	mov	r5, #0
    ff84:	e3a01000 	mov	r1, #0
    ff88:	eaffff86 	b	fda8 <__adddf3+0x150>

0000ff8c <__aeabi_i2d>:
    ff8c:	e3300000 	teq	r0, #0
    ff90:	03a01000 	moveq	r1, #0
    ff94:	012fff1e 	bxeq	lr
    ff98:	e92d4030 	push	{r4, r5, lr}
    ff9c:	e3a04b01 	mov	r4, #1024	; 0x400
    ffa0:	e2844032 	add	r4, r4, #50	; 0x32
    ffa4:	e2105102 	ands	r5, r0, #-2147483648	; 0x80000000
    ffa8:	42600000 	rsbmi	r0, r0, #0
    ffac:	e3a01000 	mov	r1, #0
    ffb0:	eaffff7c 	b	fda8 <__adddf3+0x150>

0000ffb4 <__aeabi_f2d>:
    ffb4:	e1b02080 	lsls	r2, r0, #1
    ffb8:	e1a011c2 	asr	r1, r2, #3
    ffbc:	e1a01061 	rrx	r1, r1
    ffc0:	e1a00e02 	lsl	r0, r2, #28
    ffc4:	121234ff 	andsne	r3, r2, #-16777216	; 0xff000000
    ffc8:	133304ff 	teqne	r3, #-16777216	; 0xff000000
    ffcc:	1221130e 	eorne	r1, r1, #939524096	; 0x38000000
    ffd0:	112fff1e 	bxne	lr
    ffd4:	e3d224ff 	bics	r2, r2, #-16777216	; 0xff000000
    ffd8:	012fff1e 	bxeq	lr
    ffdc:	e33304ff 	teq	r3, #-16777216	; 0xff000000
    ffe0:	03811702 	orreq	r1, r1, #524288	; 0x80000
    ffe4:	012fff1e 	bxeq	lr
    ffe8:	e92d4030 	push	{r4, r5, lr}
    ffec:	e3a04d0e 	mov	r4, #896	; 0x380
    fff0:	e2015102 	and	r5, r1, #-2147483648	; 0x80000000
    fff4:	e3c11102 	bic	r1, r1, #-2147483648	; 0x80000000
    fff8:	eaffff6a 	b	fda8 <__adddf3+0x150>

0000fffc <__aeabi_ul2d>:
    fffc:	e1902001 	orrs	r2, r0, r1
   10000:	012fff1e 	bxeq	lr
   10004:	e92d4030 	push	{r4, r5, lr}
   10008:	e3a05000 	mov	r5, #0
   1000c:	ea000006 	b	1002c <__aeabi_l2d+0x1c>

00010010 <__aeabi_l2d>:
   10010:	e1902001 	orrs	r2, r0, r1
   10014:	012fff1e 	bxeq	lr
   10018:	e92d4030 	push	{r4, r5, lr}
   1001c:	e2115102 	ands	r5, r1, #-2147483648	; 0x80000000
   10020:	5a000001 	bpl	1002c <__aeabi_l2d+0x1c>
   10024:	e2700000 	rsbs	r0, r0, #0
   10028:	e2e11000 	rsc	r1, r1, #0
   1002c:	e3a04b01 	mov	r4, #1024	; 0x400
   10030:	e2844032 	add	r4, r4, #50	; 0x32
   10034:	e1b0cb21 	lsrs	ip, r1, #22
   10038:	0affff42 	beq	fd48 <__adddf3+0xf0>
   1003c:	e3a02003 	mov	r2, #3
   10040:	e1b0c1ac 	lsrs	ip, ip, #3
   10044:	12822003 	addne	r2, r2, #3
   10048:	e1b0c1ac 	lsrs	ip, ip, #3
   1004c:	12822003 	addne	r2, r2, #3
   10050:	e08221ac 	add	r2, r2, ip, lsr #3
   10054:	e2623020 	rsb	r3, r2, #32
   10058:	e1a0c310 	lsl	ip, r0, r3
   1005c:	e1a00230 	lsr	r0, r0, r2
   10060:	e1800311 	orr	r0, r0, r1, lsl r3
   10064:	e1a01231 	lsr	r1, r1, r2
   10068:	e0844002 	add	r4, r4, r2
   1006c:	eaffff35 	b	fd48 <__adddf3+0xf0>

00010070 <__aeabi_dmul>:
   10070:	e92d4070 	push	{r4, r5, r6, lr}
   10074:	e3a0c0ff 	mov	ip, #255	; 0xff
   10078:	e38ccc07 	orr	ip, ip, #1792	; 0x700
   1007c:	e01c4a21 	ands	r4, ip, r1, lsr #20
   10080:	101c5a23 	andsne	r5, ip, r3, lsr #20
   10084:	1134000c 	teqne	r4, ip
   10088:	1135000c 	teqne	r5, ip
   1008c:	0b000075 	bleq	10268 <__aeabi_dmul+0x1f8>
   10090:	e0844005 	add	r4, r4, r5
   10094:	e0216003 	eor	r6, r1, r3
   10098:	e1c11a8c 	bic	r1, r1, ip, lsl #21
   1009c:	e1c33a8c 	bic	r3, r3, ip, lsl #21
   100a0:	e1905601 	orrs	r5, r0, r1, lsl #12
   100a4:	11925603 	orrsne	r5, r2, r3, lsl #12
   100a8:	e3811601 	orr	r1, r1, #1048576	; 0x100000
   100ac:	e3833601 	orr	r3, r3, #1048576	; 0x100000
   100b0:	0a00001d 	beq	1012c <__aeabi_dmul+0xbc>
   100b4:	e08ec290 	umull	ip, lr, r0, r2
   100b8:	e3a05000 	mov	r5, #0
   100bc:	e0a5e291 	umlal	lr, r5, r1, r2
   100c0:	e2062102 	and	r2, r6, #-2147483648	; 0x80000000
   100c4:	e0a5e390 	umlal	lr, r5, r0, r3
   100c8:	e3a06000 	mov	r6, #0
   100cc:	e0a65391 	umlal	r5, r6, r1, r3
   100d0:	e33c0000 	teq	ip, #0
   100d4:	138ee001 	orrne	lr, lr, #1
   100d8:	e24440ff 	sub	r4, r4, #255	; 0xff
   100dc:	e3560c02 	cmp	r6, #512	; 0x200
   100e0:	e2c44c03 	sbc	r4, r4, #768	; 0x300
   100e4:	2a000002 	bcs	100f4 <__aeabi_dmul+0x84>
   100e8:	e1b0e08e 	lsls	lr, lr, #1
   100ec:	e0b55005 	adcs	r5, r5, r5
   100f0:	e0a66006 	adc	r6, r6, r6
   100f4:	e1821586 	orr	r1, r2, r6, lsl #11
   100f8:	e1811aa5 	orr	r1, r1, r5, lsr #21
   100fc:	e1a00585 	lsl	r0, r5, #11
   10100:	e1800aae 	orr	r0, r0, lr, lsr #21
   10104:	e1a0e58e 	lsl	lr, lr, #11
   10108:	e254c0fd 	subs	ip, r4, #253	; 0xfd
   1010c:	835c0c07 	cmphi	ip, #1792	; 0x700
   10110:	8a000011 	bhi	1015c <__aeabi_dmul+0xec>
   10114:	e35e0102 	cmp	lr, #-2147483648	; 0x80000000
   10118:	01b0e0a0 	lsrseq	lr, r0, #1
   1011c:	e2b00000 	adcs	r0, r0, #0
   10120:	e0a11a04 	adc	r1, r1, r4, lsl #20
   10124:	e8bd4070 	pop	{r4, r5, r6, lr}
   10128:	e12fff1e 	bx	lr
   1012c:	e2066102 	and	r6, r6, #-2147483648	; 0x80000000
   10130:	e1861001 	orr	r1, r6, r1
   10134:	e1800002 	orr	r0, r0, r2
   10138:	e0211003 	eor	r1, r1, r3
   1013c:	e05440ac 	subs	r4, r4, ip, lsr #1
   10140:	c074500c 	rsbsgt	r5, r4, ip
   10144:	c1811a04 	orrgt	r1, r1, r4, lsl #20
   10148:	c8bd4070 	popgt	{r4, r5, r6, lr}
   1014c:	c12fff1e 	bxgt	lr
   10150:	e3811601 	orr	r1, r1, #1048576	; 0x100000
   10154:	e3a0e000 	mov	lr, #0
   10158:	e2544001 	subs	r4, r4, #1
   1015c:	ca00005d 	bgt	102d8 <__aeabi_dmul+0x268>
   10160:	e3740036 	cmn	r4, #54	; 0x36
   10164:	d3a00000 	movle	r0, #0
   10168:	d2011102 	andle	r1, r1, #-2147483648	; 0x80000000
   1016c:	d8bd4070 	pople	{r4, r5, r6, lr}
   10170:	d12fff1e 	bxle	lr
   10174:	e2644000 	rsb	r4, r4, #0
   10178:	e2544020 	subs	r4, r4, #32
   1017c:	aa00001a 	bge	101ec <__aeabi_dmul+0x17c>
   10180:	e294400c 	adds	r4, r4, #12
   10184:	ca00000c 	bgt	101bc <__aeabi_dmul+0x14c>
   10188:	e2844014 	add	r4, r4, #20
   1018c:	e2645020 	rsb	r5, r4, #32
   10190:	e1a03510 	lsl	r3, r0, r5
   10194:	e1a00430 	lsr	r0, r0, r4
   10198:	e1800511 	orr	r0, r0, r1, lsl r5
   1019c:	e2012102 	and	r2, r1, #-2147483648	; 0x80000000
   101a0:	e3c11102 	bic	r1, r1, #-2147483648	; 0x80000000
   101a4:	e0900fa3 	adds	r0, r0, r3, lsr #31
   101a8:	e0a21431 	adc	r1, r2, r1, lsr r4
   101ac:	e19ee083 	orrs	lr, lr, r3, lsl #1
   101b0:	01c00fa3 	biceq	r0, r0, r3, lsr #31
   101b4:	e8bd4070 	pop	{r4, r5, r6, lr}
   101b8:	e12fff1e 	bx	lr
   101bc:	e264400c 	rsb	r4, r4, #12
   101c0:	e2645020 	rsb	r5, r4, #32
   101c4:	e1a03410 	lsl	r3, r0, r4
   101c8:	e1a00530 	lsr	r0, r0, r5
   101cc:	e1800411 	orr	r0, r0, r1, lsl r4
   101d0:	e2011102 	and	r1, r1, #-2147483648	; 0x80000000
   101d4:	e0900fa3 	adds	r0, r0, r3, lsr #31
   101d8:	e2a11000 	adc	r1, r1, #0
   101dc:	e19ee083 	orrs	lr, lr, r3, lsl #1
   101e0:	01c00fa3 	biceq	r0, r0, r3, lsr #31
   101e4:	e8bd4070 	pop	{r4, r5, r6, lr}
   101e8:	e12fff1e 	bx	lr
   101ec:	e2645020 	rsb	r5, r4, #32
   101f0:	e18ee510 	orr	lr, lr, r0, lsl r5
   101f4:	e1a03430 	lsr	r3, r0, r4
   101f8:	e1833511 	orr	r3, r3, r1, lsl r5
   101fc:	e1a00431 	lsr	r0, r1, r4
   10200:	e2011102 	and	r1, r1, #-2147483648	; 0x80000000
   10204:	e1c00431 	bic	r0, r0, r1, lsr r4
   10208:	e0800fa3 	add	r0, r0, r3, lsr #31
   1020c:	e19ee083 	orrs	lr, lr, r3, lsl #1
   10210:	01c00fa3 	biceq	r0, r0, r3, lsr #31
   10214:	e8bd4070 	pop	{r4, r5, r6, lr}
   10218:	e12fff1e 	bx	lr
   1021c:	e3340000 	teq	r4, #0
   10220:	1a000008 	bne	10248 <__aeabi_dmul+0x1d8>
   10224:	e2016102 	and	r6, r1, #-2147483648	; 0x80000000
   10228:	e1b00080 	lsls	r0, r0, #1
   1022c:	e0a11001 	adc	r1, r1, r1
   10230:	e3110601 	tst	r1, #1048576	; 0x100000
   10234:	02444001 	subeq	r4, r4, #1
   10238:	0afffffa 	beq	10228 <__aeabi_dmul+0x1b8>
   1023c:	e1811006 	orr	r1, r1, r6
   10240:	e3350000 	teq	r5, #0
   10244:	112fff1e 	bxne	lr
   10248:	e2036102 	and	r6, r3, #-2147483648	; 0x80000000
   1024c:	e1b02082 	lsls	r2, r2, #1
   10250:	e0a33003 	adc	r3, r3, r3
   10254:	e3130601 	tst	r3, #1048576	; 0x100000
   10258:	02455001 	subeq	r5, r5, #1
   1025c:	0afffffa 	beq	1024c <__aeabi_dmul+0x1dc>
   10260:	e1833006 	orr	r3, r3, r6
   10264:	e12fff1e 	bx	lr
   10268:	e134000c 	teq	r4, ip
   1026c:	e00c5a23 	and	r5, ip, r3, lsr #20
   10270:	1135000c 	teqne	r5, ip
   10274:	0a000007 	beq	10298 <__aeabi_dmul+0x228>
   10278:	e1906081 	orrs	r6, r0, r1, lsl #1
   1027c:	11926083 	orrsne	r6, r2, r3, lsl #1
   10280:	1affffe5 	bne	1021c <__aeabi_dmul+0x1ac>
   10284:	e0211003 	eor	r1, r1, r3
   10288:	e2011102 	and	r1, r1, #-2147483648	; 0x80000000
   1028c:	e3a00000 	mov	r0, #0
   10290:	e8bd4070 	pop	{r4, r5, r6, lr}
   10294:	e12fff1e 	bx	lr
   10298:	e1906081 	orrs	r6, r0, r1, lsl #1
   1029c:	01a00002 	moveq	r0, r2
   102a0:	01a01003 	moveq	r1, r3
   102a4:	11926083 	orrsne	r6, r2, r3, lsl #1
   102a8:	0a000010 	beq	102f0 <__aeabi_dmul+0x280>
   102ac:	e134000c 	teq	r4, ip
   102b0:	1a000001 	bne	102bc <__aeabi_dmul+0x24c>
   102b4:	e1906601 	orrs	r6, r0, r1, lsl #12
   102b8:	1a00000c 	bne	102f0 <__aeabi_dmul+0x280>
   102bc:	e135000c 	teq	r5, ip
   102c0:	1a000003 	bne	102d4 <__aeabi_dmul+0x264>
   102c4:	e1926603 	orrs	r6, r2, r3, lsl #12
   102c8:	11a00002 	movne	r0, r2
   102cc:	11a01003 	movne	r1, r3
   102d0:	1a000006 	bne	102f0 <__aeabi_dmul+0x280>
   102d4:	e0211003 	eor	r1, r1, r3
   102d8:	e2011102 	and	r1, r1, #-2147483648	; 0x80000000
   102dc:	e381147f 	orr	r1, r1, #2130706432	; 0x7f000000
   102e0:	e381160f 	orr	r1, r1, #15728640	; 0xf00000
   102e4:	e3a00000 	mov	r0, #0
   102e8:	e8bd4070 	pop	{r4, r5, r6, lr}
   102ec:	e12fff1e 	bx	lr
   102f0:	e381147f 	orr	r1, r1, #2130706432	; 0x7f000000
   102f4:	e381173e 	orr	r1, r1, #16252928	; 0xf80000
   102f8:	e8bd4070 	pop	{r4, r5, r6, lr}
   102fc:	e12fff1e 	bx	lr

00010300 <__aeabi_ddiv>:
   10300:	e92d4070 	push	{r4, r5, r6, lr}
   10304:	e3a0c0ff 	mov	ip, #255	; 0xff
   10308:	e38ccc07 	orr	ip, ip, #1792	; 0x700
   1030c:	e01c4a21 	ands	r4, ip, r1, lsr #20
   10310:	101c5a23 	andsne	r5, ip, r3, lsr #20
   10314:	1134000c 	teqne	r4, ip
   10318:	1135000c 	teqne	r5, ip
   1031c:	0b00005e 	bleq	1049c <__aeabi_ddiv+0x19c>
   10320:	e0444005 	sub	r4, r4, r5
   10324:	e021e003 	eor	lr, r1, r3
   10328:	e1925603 	orrs	r5, r2, r3, lsl #12
   1032c:	e1a01601 	lsl	r1, r1, #12
   10330:	0a00004c 	beq	10468 <__aeabi_ddiv+0x168>
   10334:	e1a03603 	lsl	r3, r3, #12
   10338:	e3a05201 	mov	r5, #268435456	; 0x10000000
   1033c:	e1853223 	orr	r3, r5, r3, lsr #4
   10340:	e1833c22 	orr	r3, r3, r2, lsr #24
   10344:	e1a02402 	lsl	r2, r2, #8
   10348:	e1855221 	orr	r5, r5, r1, lsr #4
   1034c:	e1855c20 	orr	r5, r5, r0, lsr #24
   10350:	e1a06400 	lsl	r6, r0, #8
   10354:	e20e1102 	and	r1, lr, #-2147483648	; 0x80000000
   10358:	e1550003 	cmp	r5, r3
   1035c:	01560002 	cmpeq	r6, r2
   10360:	e2a440fd 	adc	r4, r4, #253	; 0xfd
   10364:	e2844c03 	add	r4, r4, #768	; 0x300
   10368:	2a000001 	bcs	10374 <__aeabi_ddiv+0x74>
   1036c:	e1b030a3 	lsrs	r3, r3, #1
   10370:	e1a02062 	rrx	r2, r2
   10374:	e0566002 	subs	r6, r6, r2
   10378:	e0c55003 	sbc	r5, r5, r3
   1037c:	e1b030a3 	lsrs	r3, r3, #1
   10380:	e1a02062 	rrx	r2, r2
   10384:	e3a00601 	mov	r0, #1048576	; 0x100000
   10388:	e3a0c702 	mov	ip, #524288	; 0x80000
   1038c:	e056e002 	subs	lr, r6, r2
   10390:	e0d5e003 	sbcs	lr, r5, r3
   10394:	20466002 	subcs	r6, r6, r2
   10398:	21a0500e 	movcs	r5, lr
   1039c:	2180000c 	orrcs	r0, r0, ip
   103a0:	e1b030a3 	lsrs	r3, r3, #1
   103a4:	e1a02062 	rrx	r2, r2
   103a8:	e056e002 	subs	lr, r6, r2
   103ac:	e0d5e003 	sbcs	lr, r5, r3
   103b0:	20466002 	subcs	r6, r6, r2
   103b4:	21a0500e 	movcs	r5, lr
   103b8:	218000ac 	orrcs	r0, r0, ip, lsr #1
   103bc:	e1b030a3 	lsrs	r3, r3, #1
   103c0:	e1a02062 	rrx	r2, r2
   103c4:	e056e002 	subs	lr, r6, r2
   103c8:	e0d5e003 	sbcs	lr, r5, r3
   103cc:	20466002 	subcs	r6, r6, r2
   103d0:	21a0500e 	movcs	r5, lr
   103d4:	2180012c 	orrcs	r0, r0, ip, lsr #2
   103d8:	e1b030a3 	lsrs	r3, r3, #1
   103dc:	e1a02062 	rrx	r2, r2
   103e0:	e056e002 	subs	lr, r6, r2
   103e4:	e0d5e003 	sbcs	lr, r5, r3
   103e8:	20466002 	subcs	r6, r6, r2
   103ec:	21a0500e 	movcs	r5, lr
   103f0:	218001ac 	orrcs	r0, r0, ip, lsr #3
   103f4:	e195e006 	orrs	lr, r5, r6
   103f8:	0a00000d 	beq	10434 <__aeabi_ddiv+0x134>
   103fc:	e1a05205 	lsl	r5, r5, #4
   10400:	e1855e26 	orr	r5, r5, r6, lsr #28
   10404:	e1a06206 	lsl	r6, r6, #4
   10408:	e1a03183 	lsl	r3, r3, #3
   1040c:	e1833ea2 	orr	r3, r3, r2, lsr #29
   10410:	e1a02182 	lsl	r2, r2, #3
   10414:	e1b0c22c 	lsrs	ip, ip, #4
   10418:	1affffdb 	bne	1038c <__aeabi_ddiv+0x8c>
   1041c:	e3110601 	tst	r1, #1048576	; 0x100000
   10420:	1a000006 	bne	10440 <__aeabi_ddiv+0x140>
   10424:	e1811000 	orr	r1, r1, r0
   10428:	e3a00000 	mov	r0, #0
   1042c:	e3a0c102 	mov	ip, #-2147483648	; 0x80000000
   10430:	eaffffd5 	b	1038c <__aeabi_ddiv+0x8c>
   10434:	e3110601 	tst	r1, #1048576	; 0x100000
   10438:	01811000 	orreq	r1, r1, r0
   1043c:	03a00000 	moveq	r0, #0
   10440:	e254c0fd 	subs	ip, r4, #253	; 0xfd
   10444:	835c0c07 	cmphi	ip, #1792	; 0x700
   10448:	8affff43 	bhi	1015c <__aeabi_dmul+0xec>
   1044c:	e055c003 	subs	ip, r5, r3
   10450:	0056c002 	subseq	ip, r6, r2
   10454:	01b0c0a0 	lsrseq	ip, r0, #1
   10458:	e2b00000 	adcs	r0, r0, #0
   1045c:	e0a11a04 	adc	r1, r1, r4, lsl #20
   10460:	e8bd4070 	pop	{r4, r5, r6, lr}
   10464:	e12fff1e 	bx	lr
   10468:	e20ee102 	and	lr, lr, #-2147483648	; 0x80000000
   1046c:	e18e1621 	orr	r1, lr, r1, lsr #12
   10470:	e09440ac 	adds	r4, r4, ip, lsr #1
   10474:	c074500c 	rsbsgt	r5, r4, ip
   10478:	c1811a04 	orrgt	r1, r1, r4, lsl #20
   1047c:	c8bd4070 	popgt	{r4, r5, r6, lr}
   10480:	c12fff1e 	bxgt	lr
   10484:	e3811601 	orr	r1, r1, #1048576	; 0x100000
   10488:	e3a0e000 	mov	lr, #0
   1048c:	e2544001 	subs	r4, r4, #1
   10490:	eaffff31 	b	1015c <__aeabi_dmul+0xec>
   10494:	e185e006 	orr	lr, r5, r6
   10498:	eaffff2f 	b	1015c <__aeabi_dmul+0xec>
   1049c:	e00c5a23 	and	r5, ip, r3, lsr #20
   104a0:	e134000c 	teq	r4, ip
   104a4:	0135000c 	teqeq	r5, ip
   104a8:	0affff90 	beq	102f0 <__aeabi_dmul+0x280>
   104ac:	e134000c 	teq	r4, ip
   104b0:	1a000006 	bne	104d0 <__aeabi_ddiv+0x1d0>
   104b4:	e1904601 	orrs	r4, r0, r1, lsl #12
   104b8:	1affff8c 	bne	102f0 <__aeabi_dmul+0x280>
   104bc:	e135000c 	teq	r5, ip
   104c0:	1affff83 	bne	102d4 <__aeabi_dmul+0x264>
   104c4:	e1a00002 	mov	r0, r2
   104c8:	e1a01003 	mov	r1, r3
   104cc:	eaffff87 	b	102f0 <__aeabi_dmul+0x280>
   104d0:	e135000c 	teq	r5, ip
   104d4:	1a000004 	bne	104ec <__aeabi_ddiv+0x1ec>
   104d8:	e1925603 	orrs	r5, r2, r3, lsl #12
   104dc:	0affff68 	beq	10284 <__aeabi_dmul+0x214>
   104e0:	e1a00002 	mov	r0, r2
   104e4:	e1a01003 	mov	r1, r3
   104e8:	eaffff80 	b	102f0 <__aeabi_dmul+0x280>
   104ec:	e1906081 	orrs	r6, r0, r1, lsl #1
   104f0:	11926083 	orrsne	r6, r2, r3, lsl #1
   104f4:	1affff48 	bne	1021c <__aeabi_dmul+0x1ac>
   104f8:	e1904081 	orrs	r4, r0, r1, lsl #1
   104fc:	1affff74 	bne	102d4 <__aeabi_dmul+0x264>
   10500:	e1925083 	orrs	r5, r2, r3, lsl #1
   10504:	1affff5e 	bne	10284 <__aeabi_dmul+0x214>
   10508:	eaffff78 	b	102f0 <__aeabi_dmul+0x280>

0001050c <__gedf2>:
   1050c:	e3e0c000 	mvn	ip, #0
   10510:	ea000002 	b	10520 <__cmpdf2+0x4>

00010514 <__ledf2>:
   10514:	e3a0c001 	mov	ip, #1
   10518:	ea000000 	b	10520 <__cmpdf2+0x4>

0001051c <__cmpdf2>:
   1051c:	e3a0c001 	mov	ip, #1
   10520:	e52dc004 	push	{ip}		; (str ip, [sp, #-4]!)
   10524:	e1a0c081 	lsl	ip, r1, #1
   10528:	e1f0cacc 	mvns	ip, ip, asr #21
   1052c:	e1a0c083 	lsl	ip, r3, #1
   10530:	11f0cacc 	mvnsne	ip, ip, asr #21
   10534:	0a00000e 	beq	10574 <__cmpdf2+0x58>
   10538:	e28dd004 	add	sp, sp, #4
   1053c:	e190c081 	orrs	ip, r0, r1, lsl #1
   10540:	0192c083 	orrseq	ip, r2, r3, lsl #1
   10544:	11310003 	teqne	r1, r3
   10548:	01300002 	teqeq	r0, r2
   1054c:	03a00000 	moveq	r0, #0
   10550:	012fff1e 	bxeq	lr
   10554:	e3700000 	cmn	r0, #0
   10558:	e1310003 	teq	r1, r3
   1055c:	51510003 	cmppl	r1, r3
   10560:	01500002 	cmpeq	r0, r2
   10564:	21a00fc3 	asrcs	r0, r3, #31
   10568:	31e00fc3 	mvncc	r0, r3, asr #31
   1056c:	e3800001 	orr	r0, r0, #1
   10570:	e12fff1e 	bx	lr
   10574:	e1a0c081 	lsl	ip, r1, #1
   10578:	e1f0cacc 	mvns	ip, ip, asr #21
   1057c:	1a000001 	bne	10588 <__cmpdf2+0x6c>
   10580:	e190c601 	orrs	ip, r0, r1, lsl #12
   10584:	1a000004 	bne	1059c <__cmpdf2+0x80>
   10588:	e1a0c083 	lsl	ip, r3, #1
   1058c:	e1f0cacc 	mvns	ip, ip, asr #21
   10590:	1affffe8 	bne	10538 <__cmpdf2+0x1c>
   10594:	e192c603 	orrs	ip, r2, r3, lsl #12
   10598:	0affffe6 	beq	10538 <__cmpdf2+0x1c>
   1059c:	e49d0004 	pop	{r0}		; (ldr r0, [sp], #4)
   105a0:	e12fff1e 	bx	lr

000105a4 <__aeabi_cdrcmple>:
   105a4:	e1a0c000 	mov	ip, r0
   105a8:	e1a00002 	mov	r0, r2
   105ac:	e1a0200c 	mov	r2, ip
   105b0:	e1a0c001 	mov	ip, r1
   105b4:	e1a01003 	mov	r1, r3
   105b8:	e1a0300c 	mov	r3, ip
   105bc:	eaffffff 	b	105c0 <__aeabi_cdcmpeq>

000105c0 <__aeabi_cdcmpeq>:
   105c0:	e92d4001 	push	{r0, lr}
   105c4:	ebffffd4 	bl	1051c <__cmpdf2>
   105c8:	e3500000 	cmp	r0, #0
   105cc:	43700000 	cmnmi	r0, #0
   105d0:	e8bd4001 	pop	{r0, lr}
   105d4:	e12fff1e 	bx	lr

000105d8 <__aeabi_dcmpeq>:
   105d8:	e52de008 	str	lr, [sp, #-8]!
   105dc:	ebfffff7 	bl	105c0 <__aeabi_cdcmpeq>
   105e0:	03a00001 	moveq	r0, #1
   105e4:	13a00000 	movne	r0, #0
   105e8:	e49de008 	ldr	lr, [sp], #8
   105ec:	e12fff1e 	bx	lr

000105f0 <__aeabi_dcmplt>:
   105f0:	e52de008 	str	lr, [sp, #-8]!
   105f4:	ebfffff1 	bl	105c0 <__aeabi_cdcmpeq>
   105f8:	33a00001 	movcc	r0, #1
   105fc:	23a00000 	movcs	r0, #0
   10600:	e49de008 	ldr	lr, [sp], #8
   10604:	e12fff1e 	bx	lr

00010608 <__aeabi_dcmple>:
   10608:	e52de008 	str	lr, [sp, #-8]!
   1060c:	ebffffeb 	bl	105c0 <__aeabi_cdcmpeq>
   10610:	93a00001 	movls	r0, #1
   10614:	83a00000 	movhi	r0, #0
   10618:	e49de008 	ldr	lr, [sp], #8
   1061c:	e12fff1e 	bx	lr

00010620 <__aeabi_dcmpge>:
   10620:	e52de008 	str	lr, [sp, #-8]!
   10624:	ebffffde 	bl	105a4 <__aeabi_cdrcmple>
   10628:	93a00001 	movls	r0, #1
   1062c:	83a00000 	movhi	r0, #0
   10630:	e49de008 	ldr	lr, [sp], #8
   10634:	e12fff1e 	bx	lr

00010638 <__aeabi_dcmpgt>:
   10638:	e52de008 	str	lr, [sp, #-8]!
   1063c:	ebffffd8 	bl	105a4 <__aeabi_cdrcmple>
   10640:	33a00001 	movcc	r0, #1
   10644:	23a00000 	movcs	r0, #0
   10648:	e49de008 	ldr	lr, [sp], #8
   1064c:	e12fff1e 	bx	lr

00010650 <__aeabi_dcmpun>:
   10650:	e1a0c081 	lsl	ip, r1, #1
   10654:	e1f0cacc 	mvns	ip, ip, asr #21
   10658:	1a000001 	bne	10664 <__aeabi_dcmpun+0x14>
   1065c:	e190c601 	orrs	ip, r0, r1, lsl #12
   10660:	1a000006 	bne	10680 <__aeabi_dcmpun+0x30>
   10664:	e1a0c083 	lsl	ip, r3, #1
   10668:	e1f0cacc 	mvns	ip, ip, asr #21
   1066c:	1a000001 	bne	10678 <__aeabi_dcmpun+0x28>
   10670:	e192c603 	orrs	ip, r2, r3, lsl #12
   10674:	1a000001 	bne	10680 <__aeabi_dcmpun+0x30>
   10678:	e3a00000 	mov	r0, #0
   1067c:	e12fff1e 	bx	lr
   10680:	e3a00001 	mov	r0, #1
   10684:	e12fff1e 	bx	lr

00010688 <__aeabi_d2iz>:
   10688:	e1a02081 	lsl	r2, r1, #1
   1068c:	e2922602 	adds	r2, r2, #2097152	; 0x200000
   10690:	2a00000c 	bcs	106c8 <__aeabi_d2iz+0x40>
   10694:	5a000009 	bpl	106c0 <__aeabi_d2iz+0x38>
   10698:	e3e03e3e 	mvn	r3, #992	; 0x3e0
   1069c:	e0532ac2 	subs	r2, r3, r2, asr #21
   106a0:	9a00000a 	bls	106d0 <__aeabi_d2iz+0x48>
   106a4:	e1a03581 	lsl	r3, r1, #11
   106a8:	e3833102 	orr	r3, r3, #-2147483648	; 0x80000000
   106ac:	e1833aa0 	orr	r3, r3, r0, lsr #21
   106b0:	e3110102 	tst	r1, #-2147483648	; 0x80000000
   106b4:	e1a00233 	lsr	r0, r3, r2
   106b8:	12600000 	rsbne	r0, r0, #0
   106bc:	e12fff1e 	bx	lr
   106c0:	e3a00000 	mov	r0, #0
   106c4:	e12fff1e 	bx	lr
   106c8:	e1900601 	orrs	r0, r0, r1, lsl #12
   106cc:	1a000002 	bne	106dc <__aeabi_d2iz+0x54>
   106d0:	e2110102 	ands	r0, r1, #-2147483648	; 0x80000000
   106d4:	03e00102 	mvneq	r0, #-2147483648	; 0x80000000
   106d8:	e12fff1e 	bx	lr
   106dc:	e3a00000 	mov	r0, #0
   106e0:	e12fff1e 	bx	lr

000106e4 <__aeabi_uldivmod>:
   106e4:	e3530000 	cmp	r3, #0
   106e8:	03520000 	cmpeq	r2, #0
   106ec:	1a000004 	bne	10704 <__aeabi_uldivmod+0x20>
   106f0:	e3510000 	cmp	r1, #0
   106f4:	03500000 	cmpeq	r0, #0
   106f8:	13e01000 	mvnne	r1, #0
   106fc:	13e00000 	mvnne	r0, #0
   10700:	ea0000ba 	b	109f0 <____aeabi_ldiv0_from_arm>
   10704:	e24dd008 	sub	sp, sp, #8
   10708:	e92d6000 	push	{sp, lr}
   1070c:	eb0000cb 	bl	10a40 <____udivmoddi4_from_arm>
   10710:	e59de004 	ldr	lr, [sp, #4]
   10714:	e28dd008 	add	sp, sp, #8
   10718:	e8bd000c 	pop	{r2, r3}
   1071c:	e12fff1e 	bx	lr

00010720 <__udivmoddi4>:
   10720:	b5f0      	push	{r4, r5, r6, r7, lr}
   10722:	4657      	mov	r7, sl
   10724:	464e      	mov	r6, r9
   10726:	4645      	mov	r5, r8
   10728:	46de      	mov	lr, fp
   1072a:	b5e0      	push	{r5, r6, r7, lr}
   1072c:	0004      	movs	r4, r0
   1072e:	000d      	movs	r5, r1
   10730:	4692      	mov	sl, r2
   10732:	4699      	mov	r9, r3
   10734:	b083      	sub	sp, #12
   10736:	428b      	cmp	r3, r1
   10738:	d830      	bhi.n	1079c <__udivmoddi4+0x7c>
   1073a:	d02d      	beq.n	10798 <__udivmoddi4+0x78>
   1073c:	4649      	mov	r1, r9
   1073e:	4650      	mov	r0, sl
   10740:	f000 f984 	bl	10a4c <____clzdi2_from_thumb>
   10744:	0029      	movs	r1, r5
   10746:	0006      	movs	r6, r0
   10748:	0020      	movs	r0, r4
   1074a:	f000 f97f 	bl	10a4c <____clzdi2_from_thumb>
   1074e:	1a33      	subs	r3, r6, r0
   10750:	4698      	mov	r8, r3
   10752:	3b20      	subs	r3, #32
   10754:	469b      	mov	fp, r3
   10756:	d435      	bmi.n	107c4 <__udivmoddi4+0xa4>
   10758:	465a      	mov	r2, fp
   1075a:	4653      	mov	r3, sl
   1075c:	4093      	lsls	r3, r2
   1075e:	4642      	mov	r2, r8
   10760:	001f      	movs	r7, r3
   10762:	4653      	mov	r3, sl
   10764:	4093      	lsls	r3, r2
   10766:	001e      	movs	r6, r3
   10768:	42af      	cmp	r7, r5
   1076a:	d83c      	bhi.n	107e6 <__udivmoddi4+0xc6>
   1076c:	42af      	cmp	r7, r5
   1076e:	d100      	bne.n	10772 <__udivmoddi4+0x52>
   10770:	e07a      	b.n	10868 <__udivmoddi4+0x148>
   10772:	465b      	mov	r3, fp
   10774:	1ba4      	subs	r4, r4, r6
   10776:	41bd      	sbcs	r5, r7
   10778:	2b00      	cmp	r3, #0
   1077a:	da00      	bge.n	1077e <__udivmoddi4+0x5e>
   1077c:	e077      	b.n	1086e <__udivmoddi4+0x14e>
   1077e:	2200      	movs	r2, #0
   10780:	2300      	movs	r3, #0
   10782:	9200      	str	r2, [sp, #0]
   10784:	9301      	str	r3, [sp, #4]
   10786:	2301      	movs	r3, #1
   10788:	465a      	mov	r2, fp
   1078a:	4093      	lsls	r3, r2
   1078c:	9301      	str	r3, [sp, #4]
   1078e:	2301      	movs	r3, #1
   10790:	4642      	mov	r2, r8
   10792:	4093      	lsls	r3, r2
   10794:	9300      	str	r3, [sp, #0]
   10796:	e02a      	b.n	107ee <__udivmoddi4+0xce>
   10798:	4282      	cmp	r2, r0
   1079a:	d9cf      	bls.n	1073c <__udivmoddi4+0x1c>
   1079c:	2200      	movs	r2, #0
   1079e:	2300      	movs	r3, #0
   107a0:	9200      	str	r2, [sp, #0]
   107a2:	9301      	str	r3, [sp, #4]
   107a4:	9b0c      	ldr	r3, [sp, #48]	; 0x30
   107a6:	2b00      	cmp	r3, #0
   107a8:	d001      	beq.n	107ae <__udivmoddi4+0x8e>
   107aa:	601c      	str	r4, [r3, #0]
   107ac:	605d      	str	r5, [r3, #4]
   107ae:	9800      	ldr	r0, [sp, #0]
   107b0:	9901      	ldr	r1, [sp, #4]
   107b2:	b003      	add	sp, #12
   107b4:	bcf0      	pop	{r4, r5, r6, r7}
   107b6:	46bb      	mov	fp, r7
   107b8:	46b2      	mov	sl, r6
   107ba:	46a9      	mov	r9, r5
   107bc:	46a0      	mov	r8, r4
   107be:	bcf0      	pop	{r4, r5, r6, r7}
   107c0:	bc04      	pop	{r2}
   107c2:	4710      	bx	r2
   107c4:	4642      	mov	r2, r8
   107c6:	2320      	movs	r3, #32
   107c8:	1a9b      	subs	r3, r3, r2
   107ca:	4652      	mov	r2, sl
   107cc:	40da      	lsrs	r2, r3
   107ce:	4641      	mov	r1, r8
   107d0:	0013      	movs	r3, r2
   107d2:	464a      	mov	r2, r9
   107d4:	408a      	lsls	r2, r1
   107d6:	0017      	movs	r7, r2
   107d8:	4642      	mov	r2, r8
   107da:	431f      	orrs	r7, r3
   107dc:	4653      	mov	r3, sl
   107de:	4093      	lsls	r3, r2
   107e0:	001e      	movs	r6, r3
   107e2:	42af      	cmp	r7, r5
   107e4:	d9c2      	bls.n	1076c <__udivmoddi4+0x4c>
   107e6:	2200      	movs	r2, #0
   107e8:	2300      	movs	r3, #0
   107ea:	9200      	str	r2, [sp, #0]
   107ec:	9301      	str	r3, [sp, #4]
   107ee:	4643      	mov	r3, r8
   107f0:	2b00      	cmp	r3, #0
   107f2:	d0d7      	beq.n	107a4 <__udivmoddi4+0x84>
   107f4:	07fb      	lsls	r3, r7, #31
   107f6:	0872      	lsrs	r2, r6, #1
   107f8:	431a      	orrs	r2, r3
   107fa:	4646      	mov	r6, r8
   107fc:	087b      	lsrs	r3, r7, #1
   107fe:	e00e      	b.n	1081e <__udivmoddi4+0xfe>
   10800:	42ab      	cmp	r3, r5
   10802:	d101      	bne.n	10808 <__udivmoddi4+0xe8>
   10804:	42a2      	cmp	r2, r4
   10806:	d80c      	bhi.n	10822 <__udivmoddi4+0x102>
   10808:	1aa4      	subs	r4, r4, r2
   1080a:	419d      	sbcs	r5, r3
   1080c:	2001      	movs	r0, #1
   1080e:	1924      	adds	r4, r4, r4
   10810:	416d      	adcs	r5, r5
   10812:	2100      	movs	r1, #0
   10814:	3e01      	subs	r6, #1
   10816:	1824      	adds	r4, r4, r0
   10818:	414d      	adcs	r5, r1
   1081a:	2e00      	cmp	r6, #0
   1081c:	d006      	beq.n	1082c <__udivmoddi4+0x10c>
   1081e:	42ab      	cmp	r3, r5
   10820:	d9ee      	bls.n	10800 <__udivmoddi4+0xe0>
   10822:	3e01      	subs	r6, #1
   10824:	1924      	adds	r4, r4, r4
   10826:	416d      	adcs	r5, r5
   10828:	2e00      	cmp	r6, #0
   1082a:	d1f8      	bne.n	1081e <__udivmoddi4+0xfe>
   1082c:	465b      	mov	r3, fp
   1082e:	9800      	ldr	r0, [sp, #0]
   10830:	9901      	ldr	r1, [sp, #4]
   10832:	1900      	adds	r0, r0, r4
   10834:	4169      	adcs	r1, r5
   10836:	2b00      	cmp	r3, #0
   10838:	db24      	blt.n	10884 <__udivmoddi4+0x164>
   1083a:	002b      	movs	r3, r5
   1083c:	465a      	mov	r2, fp
   1083e:	4644      	mov	r4, r8
   10840:	40d3      	lsrs	r3, r2
   10842:	002a      	movs	r2, r5
   10844:	40e2      	lsrs	r2, r4
   10846:	001c      	movs	r4, r3
   10848:	465b      	mov	r3, fp
   1084a:	0015      	movs	r5, r2
   1084c:	2b00      	cmp	r3, #0
   1084e:	db2a      	blt.n	108a6 <__udivmoddi4+0x186>
   10850:	0026      	movs	r6, r4
   10852:	409e      	lsls	r6, r3
   10854:	0033      	movs	r3, r6
   10856:	0026      	movs	r6, r4
   10858:	4647      	mov	r7, r8
   1085a:	40be      	lsls	r6, r7
   1085c:	0032      	movs	r2, r6
   1085e:	1a80      	subs	r0, r0, r2
   10860:	4199      	sbcs	r1, r3
   10862:	9000      	str	r0, [sp, #0]
   10864:	9101      	str	r1, [sp, #4]
   10866:	e79d      	b.n	107a4 <__udivmoddi4+0x84>
   10868:	42a3      	cmp	r3, r4
   1086a:	d8bc      	bhi.n	107e6 <__udivmoddi4+0xc6>
   1086c:	e781      	b.n	10772 <__udivmoddi4+0x52>
   1086e:	4642      	mov	r2, r8
   10870:	2320      	movs	r3, #32
   10872:	2100      	movs	r1, #0
   10874:	1a9b      	subs	r3, r3, r2
   10876:	2200      	movs	r2, #0
   10878:	9100      	str	r1, [sp, #0]
   1087a:	9201      	str	r2, [sp, #4]
   1087c:	2201      	movs	r2, #1
   1087e:	40da      	lsrs	r2, r3
   10880:	9201      	str	r2, [sp, #4]
   10882:	e784      	b.n	1078e <__udivmoddi4+0x6e>
   10884:	4642      	mov	r2, r8
   10886:	2320      	movs	r3, #32
   10888:	1a9b      	subs	r3, r3, r2
   1088a:	002a      	movs	r2, r5
   1088c:	4646      	mov	r6, r8
   1088e:	409a      	lsls	r2, r3
   10890:	0023      	movs	r3, r4
   10892:	40f3      	lsrs	r3, r6
   10894:	4644      	mov	r4, r8
   10896:	4313      	orrs	r3, r2
   10898:	002a      	movs	r2, r5
   1089a:	40e2      	lsrs	r2, r4
   1089c:	001c      	movs	r4, r3
   1089e:	465b      	mov	r3, fp
   108a0:	0015      	movs	r5, r2
   108a2:	2b00      	cmp	r3, #0
   108a4:	dad4      	bge.n	10850 <__udivmoddi4+0x130>
   108a6:	4642      	mov	r2, r8
   108a8:	002f      	movs	r7, r5
   108aa:	2320      	movs	r3, #32
   108ac:	0026      	movs	r6, r4
   108ae:	4097      	lsls	r7, r2
   108b0:	1a9b      	subs	r3, r3, r2
   108b2:	40de      	lsrs	r6, r3
   108b4:	003b      	movs	r3, r7
   108b6:	4333      	orrs	r3, r6
   108b8:	e7cd      	b.n	10856 <__udivmoddi4+0x136>
   108ba:	46c0      	nop			; (mov r8, r8)

000108bc <__clzdi2>:
   108bc:	e92d4010 	push	{r4, lr}
   108c0:	e3510000 	cmp	r1, #0
   108c4:	1a000002 	bne	108d4 <__clzdi2+0x18>
   108c8:	eb000005 	bl	108e4 <__clzsi2>
   108cc:	e2800020 	add	r0, r0, #32
   108d0:	ea000001 	b	108dc <__clzdi2+0x20>
   108d4:	e1a00001 	mov	r0, r1
   108d8:	eb000001 	bl	108e4 <__clzsi2>
   108dc:	e8bd4010 	pop	{r4, lr}
   108e0:	e12fff1e 	bx	lr

000108e4 <__clzsi2>:
   108e4:	e3a0101c 	mov	r1, #28
   108e8:	e3500801 	cmp	r0, #65536	; 0x10000
   108ec:	21a00820 	lsrcs	r0, r0, #16
   108f0:	22411010 	subcs	r1, r1, #16
   108f4:	e3500c01 	cmp	r0, #256	; 0x100
   108f8:	21a00420 	lsrcs	r0, r0, #8
   108fc:	22411008 	subcs	r1, r1, #8
   10900:	e3500010 	cmp	r0, #16
   10904:	21a00220 	lsrcs	r0, r0, #4
   10908:	22411004 	subcs	r1, r1, #4
   1090c:	e28f2008 	add	r2, pc, #8
   10910:	e7d20000 	ldrb	r0, [r2, r0]
   10914:	e0800001 	add	r0, r0, r1
   10918:	e12fff1e 	bx	lr
   1091c:	02020304 	.word	0x02020304
   10920:	01010101 	.word	0x01010101
	...

0001092c <_close>:
   1092c:	2258      	movs	r2, #88	; 0x58
   1092e:	2001      	movs	r0, #1
   10930:	4b01      	ldr	r3, [pc, #4]	; (10938 <_close+0xc>)
   10932:	4240      	negs	r0, r0
   10934:	601a      	str	r2, [r3, #0]
   10936:	4770      	bx	lr
   10938:	00021c30 	.word	0x00021c30

0001093c <_fstat>:
   1093c:	2258      	movs	r2, #88	; 0x58
   1093e:	2001      	movs	r0, #1
   10940:	4b01      	ldr	r3, [pc, #4]	; (10948 <_fstat+0xc>)
   10942:	4240      	negs	r0, r0
   10944:	601a      	str	r2, [r3, #0]
   10946:	4770      	bx	lr
   10948:	00021c30 	.word	0x00021c30

0001094c <_getpid>:
   1094c:	2258      	movs	r2, #88	; 0x58
   1094e:	2001      	movs	r0, #1
   10950:	4b01      	ldr	r3, [pc, #4]	; (10958 <_getpid+0xc>)
   10952:	4240      	negs	r0, r0
   10954:	601a      	str	r2, [r3, #0]
   10956:	4770      	bx	lr
   10958:	00021c30 	.word	0x00021c30

0001095c <_isatty>:
   1095c:	2258      	movs	r2, #88	; 0x58
   1095e:	4b02      	ldr	r3, [pc, #8]	; (10968 <_isatty+0xc>)
   10960:	2000      	movs	r0, #0
   10962:	601a      	str	r2, [r3, #0]
   10964:	4770      	bx	lr
   10966:	46c0      	nop			; (mov r8, r8)
   10968:	00021c30 	.word	0x00021c30

0001096c <_kill>:
   1096c:	2258      	movs	r2, #88	; 0x58
   1096e:	2001      	movs	r0, #1
   10970:	4b01      	ldr	r3, [pc, #4]	; (10978 <_kill+0xc>)
   10972:	4240      	negs	r0, r0
   10974:	601a      	str	r2, [r3, #0]
   10976:	4770      	bx	lr
   10978:	00021c30 	.word	0x00021c30

0001097c <_lseek>:
   1097c:	2258      	movs	r2, #88	; 0x58
   1097e:	2001      	movs	r0, #1
   10980:	4b01      	ldr	r3, [pc, #4]	; (10988 <_lseek+0xc>)
   10982:	4240      	negs	r0, r0
   10984:	601a      	str	r2, [r3, #0]
   10986:	4770      	bx	lr
   10988:	00021c30 	.word	0x00021c30

0001098c <_read>:
   1098c:	2258      	movs	r2, #88	; 0x58
   1098e:	2001      	movs	r0, #1
   10990:	4b01      	ldr	r3, [pc, #4]	; (10998 <_read+0xc>)
   10992:	4240      	negs	r0, r0
   10994:	601a      	str	r2, [r3, #0]
   10996:	4770      	bx	lr
   10998:	00021c30 	.word	0x00021c30

0001099c <_sbrk>:
   1099c:	4a04      	ldr	r2, [pc, #16]	; (109b0 <_sbrk+0x14>)
   1099e:	0003      	movs	r3, r0
   109a0:	6810      	ldr	r0, [r2, #0]
   109a2:	2800      	cmp	r0, #0
   109a4:	d002      	beq.n	109ac <_sbrk+0x10>
   109a6:	18c3      	adds	r3, r0, r3
   109a8:	6013      	str	r3, [r2, #0]
   109aa:	4770      	bx	lr
   109ac:	4801      	ldr	r0, [pc, #4]	; (109b4 <_sbrk+0x18>)
   109ae:	e7fa      	b.n	109a6 <_sbrk+0xa>
   109b0:	00021c34 	.word	0x00021c34
   109b4:	00021c38 	.word	0x00021c38

000109b8 <_write>:
   109b8:	2258      	movs	r2, #88	; 0x58
   109ba:	2001      	movs	r0, #1
   109bc:	4b01      	ldr	r3, [pc, #4]	; (109c4 <_write+0xc>)
   109be:	4240      	negs	r0, r0
   109c0:	601a      	str	r2, [r3, #0]
   109c2:	4770      	bx	lr
   109c4:	00021c30 	.word	0x00021c30

000109c8 <_exit>:
   109c8:	e7fe      	b.n	109c8 <_exit>
   109ca:	46c0      	nop			; (mov r8, r8)
   109cc:	0000      	movs	r0, r0
	...

000109d0 <____aeabi_dsub_from_thumb>:
   109d0:	4778      	bx	pc
   109d2:	e7fd      	b.n	109d0 <____aeabi_dsub_from_thumb>
   109d4:	eafffc9e 	b	fc54 <__aeabi_dsub>

000109d8 <____aeabi_ui2d_from_thumb>:
   109d8:	4778      	bx	pc
   109da:	e7fd      	b.n	109d8 <____aeabi_ui2d_from_thumb>
   109dc:	eafffd61 	b	ff68 <__aeabi_ui2d>

000109e0 <____aeabi_dcmpeq_from_thumb>:
   109e0:	4778      	bx	pc
   109e2:	e7fd      	b.n	109e0 <____aeabi_dcmpeq_from_thumb>
   109e4:	eafffefb 	b	105d8 <__aeabi_dcmpeq>

000109e8 <____aeabi_dmul_from_thumb>:
   109e8:	4778      	bx	pc
   109ea:	e7fd      	b.n	109e8 <____aeabi_dmul_from_thumb>
   109ec:	eafffd9f 	b	10070 <__aeabi_dmul>

000109f0 <____aeabi_ldiv0_from_arm>:
   109f0:	e59fc000 	ldr	ip, [pc]	; 109f8 <____aeabi_ldiv0_from_arm+0x8>
   109f4:	e12fff1c 	bx	ip
   109f8:	0000fc49 	.word	0x0000fc49

000109fc <____aeabi_idivmod_from_thumb>:
   109fc:	4778      	bx	pc
   109fe:	e7fd      	b.n	109fc <____aeabi_idivmod_from_thumb>
   10a00:	eafffc88 	b	fc28 <__aeabi_idivmod>

00010a04 <____aeabi_uidiv_from_thumb>:
   10a04:	4778      	bx	pc
   10a06:	e7fd      	b.n	10a04 <____aeabi_uidiv_from_thumb>
   10a08:	eafffbf3 	b	f9dc <__udivsi3>

00010a0c <__strcmp_from_thumb>:
   10a0c:	4778      	bx	pc
   10a0e:	e7fd      	b.n	10a0c <__strcmp_from_thumb>
   10a10:	eafff98c 	b	f048 <strcmp>

00010a14 <____aeabi_i2d_from_thumb>:
   10a14:	4778      	bx	pc
   10a16:	e7fd      	b.n	10a14 <____aeabi_i2d_from_thumb>
   10a18:	eafffd5b 	b	ff8c <__aeabi_i2d>

00010a1c <____aeabi_idiv_from_thumb>:
   10a1c:	4778      	bx	pc
   10a1e:	e7fd      	b.n	10a1c <____aeabi_idiv_from_thumb>
   10a20:	eafffc34 	b	faf8 <__divsi3>

00010a24 <____aeabi_idiv0_from_arm>:
   10a24:	e59fc000 	ldr	ip, [pc]	; 10a2c <____aeabi_idiv0_from_arm+0x8>
   10a28:	e12fff1c 	bx	ip
   10a2c:	0000fc49 	.word	0x0000fc49

00010a30 <____aeabi_dcmpun_from_thumb>:
   10a30:	4778      	bx	pc
   10a32:	e7fd      	b.n	10a30 <____aeabi_dcmpun_from_thumb>
   10a34:	eaffff05 	b	10650 <__aeabi_dcmpun>

00010a38 <____aeabi_uldivmod_from_thumb>:
   10a38:	4778      	bx	pc
   10a3a:	e7fd      	b.n	10a38 <____aeabi_uldivmod_from_thumb>
   10a3c:	eaffff28 	b	106e4 <__aeabi_uldivmod>

00010a40 <____udivmoddi4_from_arm>:
   10a40:	e59fc000 	ldr	ip, [pc]	; 10a48 <____udivmoddi4_from_arm+0x8>
   10a44:	e12fff1c 	bx	ip
   10a48:	00010721 	.word	0x00010721

00010a4c <____clzdi2_from_thumb>:
   10a4c:	4778      	bx	pc
   10a4e:	e7fd      	b.n	10a4c <____clzdi2_from_thumb>
   10a50:	eaffff99 	b	108bc <__clzdi2>

00010a54 <____aeabi_dcmplt_from_thumb>:
   10a54:	4778      	bx	pc
   10a56:	e7fd      	b.n	10a54 <____aeabi_dcmplt_from_thumb>
   10a58:	eafffee4 	b	105f0 <__aeabi_dcmplt>

00010a5c <____aeabi_dcmple_from_thumb>:
   10a5c:	4778      	bx	pc
   10a5e:	e7fd      	b.n	10a5c <____aeabi_dcmple_from_thumb>
   10a60:	eafffee8 	b	10608 <__aeabi_dcmple>

00010a64 <____aeabi_dadd_from_thumb>:
   10a64:	4778      	bx	pc
   10a66:	e7fd      	b.n	10a64 <____aeabi_dadd_from_thumb>
   10a68:	eafffc7a 	b	fc58 <__adddf3>

00010a6c <____aeabi_ddiv_from_thumb>:
   10a6c:	4778      	bx	pc
   10a6e:	e7fd      	b.n	10a6c <____aeabi_ddiv_from_thumb>
   10a70:	eafffe22 	b	10300 <__aeabi_ddiv>

00010a74 <____aeabi_d2iz_from_thumb>:
   10a74:	4778      	bx	pc
   10a76:	e7fd      	b.n	10a74 <____aeabi_d2iz_from_thumb>
   10a78:	eaffff02 	b	10688 <__aeabi_d2iz>

00010a7c <____aeabi_dcmpgt_from_thumb>:
   10a7c:	4778      	bx	pc
   10a7e:	e7fd      	b.n	10a7c <____aeabi_dcmpgt_from_thumb>
   10a80:	eafffeec 	b	10638 <__aeabi_dcmpgt>
	...

Disassembly of section .fini:

00010a90 <_fini>:
   10a90:	b5f8      	push	{r3, r4, r5, r6, r7, lr}
   10a92:	46c0      	nop			; (mov r8, r8)
   10a94:	bcf8      	pop	{r3, r4, r5, r6, r7}
   10a96:	bc08      	pop	{r3}
   10a98:	469e      	mov	lr, r3
   10a9a:	4770      	bx	lr
